	.file	"Console.cpp"
	.text
.Ltext0:
	.file 0 "/mnt/a/myOsX64" "src/kernel/Console.cpp"
	.align 2
	.globl	_ZN6Kernel7Console9writeCharEmmhNS0_10AttributesE
	.type	_ZN6Kernel7Console9writeCharEmmhNS0_10AttributesE, @function
_ZN6Kernel7Console9writeCharEmmhNS0_10AttributesE:
.LVL0:
.LFB75:
	.file 1 "src/kernel/Console.cpp"
	.loc 1 39 5 view -0
	.cfi_startproc
	.loc 1 39 5 is_stmt 0 view .LVU1
	movl	%edx, %r9d
	movl	%ecx, %r8d
	.loc 1 40 9 is_stmt 1 view .LVU2
.LVL1:
.LBB50:
.LBI50:
	.file 2 "src/kernel/../../include/kernel/../utils/RollingWindow.h"
	.loc 2 74 8 view .LVU3
.LBB51:
	.loc 2 76 24 is_stmt 0 view .LVU4
	movq	$_ZN6Kernel7Console12s_charBufferE, %rcx
.LVL2:
	.loc 2 76 31 view .LVU5
	addq	_ZN6Kernel7Console12s_charBufferE+327680(%rip), %rdi
.LVL3:
	.loc 2 76 40 view .LVU6
	andl	$2047, %edi
.LVL4:
	.loc 2 76 40 view .LVU7
.LBE51:
.LBE50:
.LBB52:
.LBI52:
	.file 3 "src/kernel/../../include/kernel/../utils/Array.h"
	.loc 3 25 12 is_stmt 1 view .LVU8
	.loc 3 25 12 is_stmt 0 view .LVU9
.LBE52:
	.loc 1 40 43 discriminator 2 view .LVU10
	leaq	0(,%rdi,4), %rax
	leaq	(%rax,%rdi), %rdx
.LVL5:
	.loc 1 40 43 discriminator 2 view .LVU11
	salq	$4, %rdx
	addq	%rsi, %rdx
	movb	%r9b, (%rcx,%rdx,2)
	.loc 1 41 9 is_stmt 1 view .LVU12
.LVL6:
.LBB53:
.LBI53:
	.loc 2 74 8 view .LVU13
	.loc 2 74 8 is_stmt 0 view .LVU14
.LBE53:
.LBB54:
.LBI54:
	.loc 3 25 12 is_stmt 1 view .LVU15
	.loc 3 25 12 is_stmt 0 view .LVU16
.LBE54:
	.loc 1 41 38 discriminator 2 view .LVU17
	movb	%r8b, 1(%rcx,%rdx,2)
	.loc 1 42 5 view .LVU18
	ret
	.cfi_endproc
.LFE75:
	.size	_ZN6Kernel7Console9writeCharEmmhNS0_10AttributesE, .-_ZN6Kernel7Console9writeCharEmmhNS0_10AttributesE
	.align 2
	.globl	_ZN6Kernel7Console7putCharEhNS0_10AttributesE
	.type	_ZN6Kernel7Console7putCharEhNS0_10AttributesE, @function
_ZN6Kernel7Console7putCharEhNS0_10AttributesE:
.LVL7:
.LFB77:
	.loc 1 52 5 is_stmt 1 view -0
	.cfi_startproc
	.loc 1 53 9 view .LVU20
	cmpb	$10, %dil
	je	.L12
	.loc 1 52 5 is_stmt 0 view .LVU21
	pushq	%rbp
	.cfi_def_cfa_offset 16
	.cfi_offset 6, -16
	movq	%rsp, %rbp
	.cfi_def_cfa_register 6
	.loc 1 61 13 is_stmt 1 view .LVU22
	.loc 1 61 50 is_stmt 0 view .LVU23
	movq	_ZN6Kernel7Console11s_cursorPosE(%rip), %r8
	.loc 1 61 35 view .LVU24
	movq	_ZN6Kernel7Console11s_cursorPosE+8(%rip), %rax
	.loc 1 61 22 view .LVU25
	movzbl	%dil, %edx
	movl	%esi, %ecx
	movq	%r8, %rsi
.LVL8:
	.loc 1 61 22 view .LVU26
	movq	%rax, %rdi
.LVL9:
	.loc 1 61 22 view .LVU27
	call	_ZN6Kernel7Console9writeCharEmmhNS0_10AttributesE
.LVL10:
	.loc 1 62 13 is_stmt 1 view .LVU28
	.loc 1 62 29 is_stmt 0 view .LVU29
	movq	_ZN6Kernel7Console11s_cursorPosE(%rip), %rax
	.loc 1 62 13 view .LVU30
	cmpq	$80, %rax
	je	.L13
	.loc 1 72 17 is_stmt 1 view .LVU31
	.loc 1 72 31 is_stmt 0 view .LVU32
	movq	_ZN6Kernel7Console11s_cursorPosE(%rip), %rax
	.loc 1 72 17 view .LVU33
	addq	$1, %rax
	movq	%rax, _ZN6Kernel7Console11s_cursorPosE(%rip)
.L2:
	.loc 1 74 5 view .LVU34
	popq	%rbp
	.cfi_restore 6
	.cfi_def_cfa 7, 8
	ret
.LVL11:
.L12:
	.loc 1 55 13 is_stmt 1 view .LVU35
	.loc 1 55 27 is_stmt 0 view .LVU36
	movq	$0, _ZN6Kernel7Console11s_cursorPosE(%rip)
	.loc 1 56 13 is_stmt 1 view .LVU37
	.loc 1 56 27 is_stmt 0 view .LVU38
	movq	_ZN6Kernel7Console11s_cursorPosE+8(%rip), %rax
	.loc 1 56 13 view .LVU39
	addq	$1, %rax
	movq	%rax, _ZN6Kernel7Console11s_cursorPosE+8(%rip)
	.loc 1 57 13 is_stmt 1 view .LVU40
.LVL12:
.LBB59:
.LBI59:
	.loc 2 20 10 view .LVU41
.LBB60:
	.loc 2 22 16 is_stmt 0 view .LVU42
	movq	_ZN6Kernel7Console12s_charBufferE+327688(%rip), %rdx
	.loc 2 22 9 view .LVU43
	leaq	(%rdx,%rdx,4), %rsi
.LVL13:
	.loc 2 22 9 view .LVU44
	salq	$5, %rsi
	addq	$_ZN6Kernel7Console12s_charBufferE, %rsi
	movl	$20, %ecx
	movl	$0, %eax
	movq	%rsi, %rdi
.LVL14:
	.loc 2 22 9 view .LVU45
	rep stosq
	.loc 2 23 26 view .LVU46
	addq	$1, %rdx
	.loc 2 23 31 view .LVU47
	andl	$2047, %edx
	.loc 2 23 16 view .LVU48
	movq	%rdx, _ZN6Kernel7Console12s_charBufferE+327688(%rip)
	.loc 2 24 23 view .LVU49
	movq	_ZN6Kernel7Console12s_charBufferE+327680(%rip), %rax
	.loc 2 24 9 view .LVU50
	cmpq	%rax, %rdx
	je	.L14
	ret
.L14:
	.loc 2 26 30 view .LVU51
	addq	$1, %rax
	.loc 2 26 35 view .LVU52
	andl	$2047, %eax
	movq	%rax, _ZN6Kernel7Console12s_charBufferE+327680(%rip)
.LVL15:
	.loc 2 26 35 view .LVU53
	ret
.L13:
	.cfi_def_cfa 6, 16
	.cfi_offset 6, -16
.LBE60:
.LBE59:
	.loc 1 64 17 is_stmt 1 view .LVU54
	.loc 1 64 31 is_stmt 0 view .LVU55
	movq	$0, _ZN6Kernel7Console11s_cursorPosE(%rip)
	.loc 1 65 17 is_stmt 1 view .LVU56
	.loc 1 65 33 is_stmt 0 view .LVU57
	movq	_ZN6Kernel7Console11s_cursorPosE+8(%rip), %rax
.LVL16:
	.loc 1 65 17 discriminator 1 view .LVU58
	cmpq	$2046, %rax
	ja	.L7
	.loc 1 67 21 is_stmt 1 view .LVU59
	.loc 1 67 35 is_stmt 0 view .LVU60
	movq	_ZN6Kernel7Console11s_cursorPosE+8(%rip), %rax
	.loc 1 67 21 view .LVU61
	addq	$1, %rax
	movq	%rax, _ZN6Kernel7Console11s_cursorPosE+8(%rip)
.L7:
	.loc 1 69 17 is_stmt 1 view .LVU62
.LVL17:
.LBB61:
.LBI61:
	.loc 2 20 10 view .LVU63
.LBB62:
	.loc 2 22 16 is_stmt 0 view .LVU64
	movq	_ZN6Kernel7Console12s_charBufferE+327688(%rip), %rdx
	.loc 2 22 9 view .LVU65
	leaq	(%rdx,%rdx,4), %rsi
	salq	$5, %rsi
	addq	$_ZN6Kernel7Console12s_charBufferE, %rsi
	movl	$20, %ecx
	movl	$0, %eax
	movq	%rsi, %rdi
	rep stosq
	.loc 2 23 26 view .LVU66
	addq	$1, %rdx
	.loc 2 23 31 view .LVU67
	andl	$2047, %edx
	.loc 2 23 16 view .LVU68
	movq	%rdx, _ZN6Kernel7Console12s_charBufferE+327688(%rip)
	.loc 2 24 23 view .LVU69
	movq	_ZN6Kernel7Console12s_charBufferE+327680(%rip), %rax
	.loc 2 24 9 view .LVU70
	cmpq	%rax, %rdx
	jne	.L2
	.loc 2 26 30 view .LVU71
	addq	$1, %rax
	.loc 2 26 35 view .LVU72
	andl	$2047, %eax
	movq	%rax, _ZN6Kernel7Console12s_charBufferE+327680(%rip)
.LVL18:
	.loc 2 26 35 view .LVU73
	jmp	.L2
.LBE62:
.LBE61:
	.cfi_endproc
.LFE77:
	.size	_ZN6Kernel7Console7putCharEhNS0_10AttributesE, .-_ZN6Kernel7Console7putCharEhNS0_10AttributesE
	.align 2
	.globl	_ZN6Kernel7Console9clearLineEmhNS0_10AttributesE
	.type	_ZN6Kernel7Console9clearLineEmhNS0_10AttributesE, @function
_ZN6Kernel7Console9clearLineEmhNS0_10AttributesE:
.LVL19:
.LFB80:
	.loc 1 109 5 is_stmt 1 view -0
	.cfi_startproc
	.loc 1 109 5 is_stmt 0 view .LVU75
	movl	%edx, %ecx
	movl	%esi, %edx
.LVL20:
	.loc 1 110 9 is_stmt 1 view .LVU76
.LBB63:
	.loc 1 110 30 discriminator 1 view .LVU77
.LBB64:
.LBB65:
	.loc 2 76 31 is_stmt 0 view .LVU78
	movq	%rdi, %rax
	addq	_ZN6Kernel7Console12s_charBufferE+327680(%rip), %rax
	.loc 2 76 40 view .LVU79
	andl	$2047, %eax
	leaq	(%rax,%rax,4), %rsi
.LVL21:
	.loc 2 76 40 view .LVU80
	salq	$5, %rsi
	leaq	_ZN6Kernel7Console12s_charBufferE(%rsi), %rax
	addq	$_ZN6Kernel7Console12s_charBufferE+160, %rsi
.LVL22:
.L16:
	.loc 2 76 40 view .LVU81
.LBE65:
.LBE64:
	.loc 1 112 13 is_stmt 1 view .LVU82
.LBB66:
.LBI64:
	.loc 2 74 8 view .LVU83
	.loc 2 74 8 is_stmt 0 view .LVU84
.LBE66:
	.loc 1 112 45 discriminator 2 view .LVU85
	movb	%dl, (%rax)
	.loc 1 113 13 is_stmt 1 view .LVU86
	.loc 1 113 40 is_stmt 0 discriminator 2 view .LVU87
	movb	%cl, 1(%rax)
	.loc 1 110 9 is_stmt 1 discriminator 3 view .LVU88
	.loc 1 110 30 discriminator 1 view .LVU89
	addq	$2, %rax
	cmpq	%rsi, %rax
	jne	.L16
	.loc 1 110 30 is_stmt 0 discriminator 1 view .LVU90
.LBE63:
	.loc 1 115 9 is_stmt 1 view .LVU91
.LBB67:
	.loc 1 115 21 is_stmt 0 view .LVU92
	movq	_ZN6Kernel7Console13s_displayLineE(%rip), %rax
	.loc 1 115 35 view .LVU93
	cmpq	%rax, %rdi
	jb	.L15
	.loc 1 115 45 discriminator 1 view .LVU94
	movq	_ZN6Kernel7Console13s_displayLineE(%rip), %rax
	.loc 1 115 59 discriminator 1 view .LVU95
	addq	$25, %rax
	.loc 1 115 35 discriminator 1 view .LVU96
	cmpq	%rax, %rdi
	jnb	.L15
.LBB68:
	.loc 1 116 25 view .LVU97
	movl	$0, %esi
.L18:
.LVL23:
	.loc 1 118 17 is_stmt 1 view .LVU98
	.loc 1 118 36 is_stmt 0 view .LVU99
	movq	_ZN6Kernel7Console13s_displayLineE(%rip), %r8
	.loc 1 118 34 view .LVU100
	movq	%rdi, %rax
	subq	%r8, %rax
	.loc 1 118 64 view .LVU101
	movl	$753664, %r8d
	leaq	(%rax,%rax,4), %rax
	salq	$4, %rax
	addq	%rsi, %rax
	movb	%dl, (%r8,%rax,2)
	.loc 1 119 17 is_stmt 1 view .LVU102
	.loc 1 119 36 is_stmt 0 view .LVU103
	movq	_ZN6Kernel7Console13s_displayLineE(%rip), %r9
	.loc 1 119 34 view .LVU104
	movq	%rdi, %rax
	subq	%r9, %rax
	.loc 1 119 59 view .LVU105
	leaq	(%rax,%rax,4), %rax
	salq	$4, %rax
	addq	%rsi, %rax
	movb	%cl, 1(%r8,%rax,2)
	.loc 1 116 13 is_stmt 1 discriminator 3 view .LVU106
	addq	$1, %rsi
.LVL24:
	.loc 1 116 34 discriminator 1 view .LVU107
	cmpq	$80, %rsi
	jne	.L18
.LVL25:
.L15:
	.loc 1 116 34 is_stmt 0 discriminator 1 view .LVU108
.LBE68:
.LBE67:
	.loc 1 121 5 view .LVU109
	ret
	.cfi_endproc
.LFE80:
	.size	_ZN6Kernel7Console9clearLineEmhNS0_10AttributesE, .-_ZN6Kernel7Console9clearLineEmhNS0_10AttributesE
	.align 2
	.globl	_ZN6Kernel7Console10flushToVgaEv
	.type	_ZN6Kernel7Console10flushToVgaEv, @function
_ZN6Kernel7Console10flushToVgaEv:
.LFB81:
	.loc 1 167 5 is_stmt 1 view -0
	.cfi_startproc
	.loc 1 168 9 view .LVU111
	.loc 1 168 24 is_stmt 0 view .LVU112
	movq	_ZN6Kernel7Console13s_displayLineE(%rip), %rax
	.loc 1 169 9 is_stmt 1 view .LVU113
.LVL26:
.LBB69:
.LBI69:
	.loc 2 104 12 view .LVU114
.LBB70:
	.loc 2 106 35 is_stmt 0 view .LVU115
	movq	_ZN6Kernel7Console12s_charBufferE+327688(%rip), %rsi
	subq	_ZN6Kernel7Console12s_charBufferE+327680(%rip), %rsi
	.loc 2 106 47 view .LVU116
	andl	$2047, %esi
.LVL27:
	.loc 2 106 47 view .LVU117
.LBE70:
.LBE69:
	.loc 1 169 48 discriminator 1 view .LVU118
	movq	_ZN6Kernel7Console13s_displayLineE(%rip), %rdx
	.loc 1 169 46 discriminator 1 view .LVU119
	movq	%rsi, %rax
	subq	%rdx, %rax
	.loc 1 169 80 discriminator 1 view .LVU120
	cmpq	$24, %rax
	jbe	.L22
	.loc 1 169 104 discriminator 2 view .LVU121
	movq	_ZN6Kernel7Console13s_displayLineE(%rip), %rsi
	.loc 1 169 80 discriminator 2 view .LVU122
	addq	$25, %rsi
.L22:
.LVL28:
	.loc 1 170 9 is_stmt 1 view .LVU123
.LBB71:
	.loc 1 170 25 is_stmt 0 view .LVU124
	movq	_ZN6Kernel7Console13s_displayLineE(%rip), %rcx
.LVL29:
	.loc 1 170 42 is_stmt 1 discriminator 1 view .LVU125
	cmpq	%rsi, %rcx
	jnb	.L24
.L23:
.LVL30:
.LBB72:
	.loc 1 172 34 discriminator 1 view .LVU126
	.loc 1 172 25 is_stmt 0 view .LVU127
	movl	$0, %eax
.LVL31:
.L25:
	.loc 1 174 17 is_stmt 1 view .LVU128
.LBB73:
.LBI73:
	.loc 2 74 8 view .LVU129
	.loc 2 74 8 is_stmt 0 view .LVU130
.LBE73:
.LBB75:
.LBI75:
	.loc 3 25 12 is_stmt 1 view .LVU131
	.loc 3 25 12 is_stmt 0 view .LVU132
.LBE75:
	.loc 1 174 82 discriminator 2 view .LVU133
	movq	$_ZN6Kernel7Console12s_charBufferE, %r8
.LBB76:
.LBB74:
	.loc 2 76 31 view .LVU134
	movq	%rcx, %rdx
	addq	_ZN6Kernel7Console12s_charBufferE+327680(%rip), %rdx
	.loc 2 76 40 view .LVU135
	andl	$2047, %edx
.LBE74:
.LBE76:
	.loc 1 174 82 discriminator 2 view .LVU136
	leaq	(%rdx,%rdx,4), %rdx
	salq	$4, %rdx
	addq	%rax, %rdx
	movzbl	(%r8,%rdx,2), %r9d
	.loc 1 174 33 discriminator 2 view .LVU137
	movq	_ZN6Kernel7Console13s_displayLineE(%rip), %rdi
	.loc 1 174 31 discriminator 2 view .LVU138
	movq	%rcx, %rdx
	subq	%rdi, %rdx
	.loc 1 174 61 discriminator 2 view .LVU139
	movl	$753664, %edi
	leaq	(%rdx,%rdx,4), %rdx
	salq	$4, %rdx
	addq	%rax, %rdx
	movb	%r9b, (%rdi,%rdx,2)
	.loc 1 175 17 is_stmt 1 view .LVU140
.LVL32:
.LBB77:
.LBI77:
	.loc 2 74 8 view .LVU141
	.loc 2 74 8 is_stmt 0 view .LVU142
.LBE77:
.LBB79:
.LBI79:
	.loc 3 25 12 is_stmt 1 view .LVU143
	.loc 3 25 12 is_stmt 0 view .LVU144
.LBE79:
.LBB80:
.LBB78:
	.loc 2 76 31 view .LVU145
	movq	%rcx, %rdx
	addq	_ZN6Kernel7Console12s_charBufferE+327680(%rip), %rdx
	.loc 2 76 40 view .LVU146
	andl	$2047, %edx
.LBE78:
.LBE80:
	.loc 1 175 77 discriminator 2 view .LVU147
	leaq	(%rdx,%rdx,4), %rdx
	salq	$4, %rdx
	addq	%rax, %rdx
	movzbl	1(%r8,%rdx,2), %r8d
	.loc 1 175 33 discriminator 2 view .LVU148
	movq	_ZN6Kernel7Console13s_displayLineE(%rip), %r9
	.loc 1 175 31 discriminator 2 view .LVU149
	movq	%rcx, %rdx
	subq	%r9, %rdx
	.loc 1 175 56 discriminator 2 view .LVU150
	leaq	(%rdx,%rdx,4), %rdx
	salq	$4, %rdx
	addq	%rax, %rdx
	movb	%r8b, 1(%rdi,%rdx,2)
	.loc 1 172 13 is_stmt 1 discriminator 3 view .LVU151
	addq	$1, %rax
.LVL33:
	.loc 1 172 34 discriminator 1 view .LVU152
	cmpq	$80, %rax
	jne	.L25
.LBE72:
	.loc 1 170 9 discriminator 2 view .LVU153
	addq	$1, %rcx
.LVL34:
	.loc 1 170 42 discriminator 1 view .LVU154
	cmpq	%rcx, %rsi
	jne	.L23
.LVL35:
.L24:
	.loc 1 170 42 is_stmt 0 discriminator 1 view .LVU155
.LBE71:
	.loc 1 179 9 is_stmt 1 view .LVU156
	.loc 1 179 34 is_stmt 0 view .LVU157
	movq	_ZN6Kernel7Console13s_displayLineE(%rip), %rax
	subq	%rax, %rsi
.LVL36:
	.loc 1 180 9 is_stmt 1 view .LVU158
.LBB81:
	.loc 1 180 34 discriminator 1 view .LVU159
	cmpq	$24, %rsi
	ja	.L33
.LVL37:
.L26:
.LBB82:
	.loc 1 182 34 discriminator 1 view .LVU160
	.loc 1 182 25 is_stmt 0 view .LVU161
	movl	$0, %eax
	.loc 1 184 45 view .LVU162
	leaq	(%rsi,%rsi,4), %rdi
	salq	$4, %rdi
.LVL38:
.L28:
	.loc 1 184 17 is_stmt 1 view .LVU163
	.loc 1 184 45 is_stmt 0 view .LVU164
	movl	$753664, %edx
	leaq	(%rdi,%rax), %rcx
	movb	$0, (%rdx,%rcx,2)
	.loc 1 185 17 is_stmt 1 view .LVU165
	.loc 1 185 40 is_stmt 0 view .LVU166
	movb	$0, 1(%rdx,%rcx,2)
	.loc 1 182 13 is_stmt 1 discriminator 3 view .LVU167
	addq	$1, %rax
.LVL39:
	.loc 1 182 34 discriminator 1 view .LVU168
	cmpq	$80, %rax
	jne	.L28
.LBE82:
	.loc 1 180 9 discriminator 2 view .LVU169
	addq	$1, %rsi
.LVL40:
	.loc 1 180 34 discriminator 1 view .LVU170
	cmpq	$25, %rsi
	jne	.L26
.LBE81:
	.loc 1 188 5 is_stmt 0 view .LVU171
	ret
.LVL41:
.L33:
	.loc 1 188 5 view .LVU172
	ret
	.cfi_endproc
.LFE81:
	.size	_ZN6Kernel7Console10flushToVgaEv, .-_ZN6Kernel7Console10flushToVgaEv
	.align 2
	.globl	_ZN6Kernel7Console20cursorInScreenBoundsERVNS0_9CursorPosE
	.type	_ZN6Kernel7Console20cursorInScreenBoundsERVNS0_9CursorPosE, @function
_ZN6Kernel7Console20cursorInScreenBoundsERVNS0_9CursorPosE:
.LVL42:
.LFB83:
	.loc 1 198 5 is_stmt 1 view -0
	.cfi_startproc
	.loc 1 199 9 view .LVU174
	.loc 1 199 20 is_stmt 0 view .LVU175
	movq	8(%rdi), %rcx
	.loc 1 199 25 view .LVU176
	movq	_ZN6Kernel7Console13s_displayLineE(%rip), %rdx
	.loc 1 199 39 discriminator 4 view .LVU177
	movl	$0, %eax
	.loc 1 199 39 view .LVU178
	cmpq	%rdx, %rcx
	jb	.L34
	.loc 1 199 46 discriminator 1 view .LVU179
	movq	8(%rdi), %rdx
	.loc 1 199 50 discriminator 1 view .LVU180
	movq	_ZN6Kernel7Console13s_displayLineE(%rip), %rax
	.loc 1 199 64 discriminator 1 view .LVU181
	addq	$25, %rax
	.loc 1 199 39 discriminator 1 view .LVU182
	cmpq	%rax, %rdx
	setb	%al
.L34:
	.loc 1 200 5 view .LVU183
	ret
	.cfi_endproc
.LFE83:
	.size	_ZN6Kernel7Console20cursorInScreenBoundsERVNS0_9CursorPosE, .-_ZN6Kernel7Console20cursorInScreenBoundsERVNS0_9CursorPosE
	.align 2
	.globl	_ZN6Kernel7Console12updateCursorEv
	.type	_ZN6Kernel7Console12updateCursorEv, @function
_ZN6Kernel7Console12updateCursorEv:
.LFB72:
	.loc 1 6 5 is_stmt 1 view -0
	.cfi_startproc
	pushq	%rbp
	.cfi_def_cfa_offset 16
	.cfi_offset 6, -16
	movq	%rsp, %rbp
	.cfi_def_cfa_register 6
	pushq	%rbx
	subq	$8, %rsp
	.cfi_offset 3, -24
	.loc 1 7 9 view .LVU185
	.loc 1 7 14 is_stmt 0 view .LVU186
	movzbl	_ZN6Kernel7Console15s_cursorEnabledE(%rip), %eax
	.loc 1 7 30 view .LVU187
	testb	%al, %al
	je	.L38
	.loc 1 7 54 discriminator 2 view .LVU188
	movq	$_ZN6Kernel7Console11s_cursorPosE, %rdi
	call	_ZN6Kernel7Console20cursorInScreenBoundsERVNS0_9CursorPosE
.LVL43:
	.loc 1 7 30 discriminator 1 view .LVU189
	testb	%al, %al
	jne	.L39
.L38:
	.loc 1 9 13 is_stmt 1 view .LVU190
	.loc 1 9 26 is_stmt 0 view .LVU191
	movl	$10, %esi
	movl	$980, %edi
	call	port_out_byte
.LVL44:
	.loc 1 10 13 is_stmt 1 view .LVU192
	.loc 1 10 26 is_stmt 0 view .LVU193
	movl	$32, %esi
	movl	$981, %edi
	call	port_out_byte
.LVL45:
	.loc 1 11 13 is_stmt 1 view .LVU194
.L37:
	.loc 1 23 5 is_stmt 0 view .LVU195
	movq	-8(%rbp), %rbx
	leave
	.cfi_remember_state
	.cfi_restore 6
	.cfi_restore 3
	.cfi_def_cfa 7, 8
	ret
.L39:
	.cfi_restore_state
	.loc 1 14 9 is_stmt 1 view .LVU196
	.loc 1 14 22 is_stmt 0 view .LVU197
	movl	$0, %esi
	movl	$981, %edi
	call	port_out_byte
.LVL46:
	.loc 1 15 9 is_stmt 1 view .LVU198
	.loc 1 15 22 is_stmt 0 view .LVU199
	movl	$15, %esi
	movl	$981, %edi
	call	port_out_byte
.LVL47:
	.loc 1 17 9 is_stmt 1 view .LVU200
	.loc 1 17 35 is_stmt 0 view .LVU201
	movq	_ZN6Kernel7Console11s_cursorPosE+8(%rip), %rax
	.loc 1 17 39 view .LVU202
	movq	_ZN6Kernel7Console13s_displayLineE(%rip), %rcx
	.loc 1 17 85 view .LVU203
	movq	_ZN6Kernel7Console11s_cursorPosE(%rip), %rdx
	.loc 1 17 37 view .LVU204
	subq	%rcx, %rax
	.loc 1 17 54 view .LVU205
	leaq	(%rax,%rax,4), %rbx
	salq	$4, %rbx
	.loc 1 17 85 view .LVU206
	addq	%rdx, %rbx
.LVL48:
	.loc 1 19 9 is_stmt 1 view .LVU207
	.loc 1 19 22 is_stmt 0 view .LVU208
	movl	$15, %esi
	movl	$980, %edi
	call	port_out_byte
.LVL49:
	.loc 1 20 9 is_stmt 1 view .LVU209
	.loc 1 20 22 is_stmt 0 view .LVU210
	movzbl	%bl, %esi
	movl	$981, %edi
	call	port_out_byte
.LVL50:
	.loc 1 21 9 is_stmt 1 view .LVU211
	.loc 1 21 22 is_stmt 0 view .LVU212
	movl	$14, %esi
	movl	$980, %edi
	call	port_out_byte
.LVL51:
	.loc 1 22 9 is_stmt 1 view .LVU213
	.loc 1 22 22 is_stmt 0 view .LVU214
	movzbl	%bh, %esi
	movl	$981, %edi
	call	port_out_byte
.LVL52:
	jmp	.L37
	.cfi_endproc
.LFE72:
	.size	_ZN6Kernel7Console12updateCursorEv, .-_ZN6Kernel7Console12updateCursorEv
	.align 2
	.globl	_ZN6Kernel7Console12enableCursorEv
	.type	_ZN6Kernel7Console12enableCursorEv, @function
_ZN6Kernel7Console12enableCursorEv:
.LFB73:
	.loc 1 26 5 is_stmt 1 view -0
	.cfi_startproc
	pushq	%rbp
	.cfi_def_cfa_offset 16
	.cfi_offset 6, -16
	movq	%rsp, %rbp
	.cfi_def_cfa_register 6
	.loc 1 27 9 view .LVU216
	.loc 1 27 25 is_stmt 0 view .LVU217
	movb	$1, _ZN6Kernel7Console15s_cursorEnabledE(%rip)
	.loc 1 28 9 is_stmt 1 view .LVU218
	.loc 1 28 21 is_stmt 0 view .LVU219
	call	_ZN6Kernel7Console12updateCursorEv
.LVL53:
	.loc 1 29 5 view .LVU220
	popq	%rbp
	.cfi_restore 6
	.cfi_def_cfa 7, 8
	ret
	.cfi_endproc
.LFE73:
	.size	_ZN6Kernel7Console12enableCursorEv, .-_ZN6Kernel7Console12enableCursorEv
	.align 2
	.globl	_ZN6Kernel7Console13disableCursorEv
	.type	_ZN6Kernel7Console13disableCursorEv, @function
_ZN6Kernel7Console13disableCursorEv:
.LFB74:
	.loc 1 32 5 is_stmt 1 view -0
	.cfi_startproc
	pushq	%rbp
	.cfi_def_cfa_offset 16
	.cfi_offset 6, -16
	movq	%rsp, %rbp
	.cfi_def_cfa_register 6
	.loc 1 33 9 view .LVU222
	.loc 1 33 25 is_stmt 0 view .LVU223
	movb	$0, _ZN6Kernel7Console15s_cursorEnabledE(%rip)
	.loc 1 34 9 is_stmt 1 view .LVU224
	.loc 1 34 21 is_stmt 0 view .LVU225
	call	_ZN6Kernel7Console12updateCursorEv
.LVL54:
	.loc 1 35 5 view .LVU226
	popq	%rbp
	.cfi_restore 6
	.cfi_def_cfa 7, 8
	ret
	.cfi_endproc
.LFE74:
	.size	_ZN6Kernel7Console13disableCursorEv, .-_ZN6Kernel7Console13disableCursorEv
	.align 2
	.globl	_ZN6Kernel7Console9setCursorENS0_9CursorPosE
	.type	_ZN6Kernel7Console9setCursorENS0_9CursorPosE, @function
_ZN6Kernel7Console9setCursorENS0_9CursorPosE:
.LVL55:
.LFB76:
	.loc 1 45 5 is_stmt 1 view -0
	.cfi_startproc
	.loc 1 45 5 is_stmt 0 view .LVU228
	pushq	%rbp
	.cfi_def_cfa_offset 16
	.cfi_offset 6, -16
	movq	%rsp, %rbp
	.cfi_def_cfa_register 6
	.loc 1 46 9 is_stmt 1 view .LVU229
	.loc 1 46 23 is_stmt 0 view .LVU230
	movq	%rdi, _ZN6Kernel7Console11s_cursorPosE(%rip)
	.loc 1 47 9 is_stmt 1 view .LVU231
	.loc 1 47 23 is_stmt 0 view .LVU232
	movq	%rsi, _ZN6Kernel7Console11s_cursorPosE+8(%rip)
	.loc 1 48 9 is_stmt 1 view .LVU233
	.loc 1 48 21 is_stmt 0 view .LVU234
	call	_ZN6Kernel7Console12updateCursorEv
.LVL56:
	.loc 1 49 5 view .LVU235
	popq	%rbp
	.cfi_restore 6
	.cfi_def_cfa 7, 8
	ret
	.cfi_endproc
.LFE76:
	.size	_ZN6Kernel7Console9setCursorENS0_9CursorPosE, .-_ZN6Kernel7Console9setCursorENS0_9CursorPosE
	.align 2
	.globl	_ZN6Kernel7Console9clearLineEhNS0_10AttributesE
	.type	_ZN6Kernel7Console9clearLineEhNS0_10AttributesE, @function
_ZN6Kernel7Console9clearLineEhNS0_10AttributesE:
.LVL57:
.LFB79:
	.loc 1 100 5 is_stmt 1 view -0
	.cfi_startproc
	.loc 1 100 5 is_stmt 0 view .LVU237
	pushq	%rbp
	.cfi_def_cfa_offset 16
	.cfi_offset 6, -16
	movq	%rsp, %rbp
	.cfi_def_cfa_register 6
	movl	%esi, %edx
	.loc 1 101 9 is_stmt 1 view .LVU238
	.loc 1 101 31 is_stmt 0 view .LVU239
	movq	_ZN6Kernel7Console11s_cursorPosE+8(%rip), %rax
	.loc 1 101 18 view .LVU240
	movzbl	%dil, %esi
.LVL58:
	.loc 1 101 18 view .LVU241
	movq	%rax, %rdi
.LVL59:
	.loc 1 101 18 view .LVU242
	call	_ZN6Kernel7Console9clearLineEmhNS0_10AttributesE
.LVL60:
	.loc 1 102 9 is_stmt 1 view .LVU243
	.loc 1 102 35 is_stmt 0 view .LVU244
	movq	_ZN6Kernel7Console11s_cursorPosE+8(%rip), %rsi
	.loc 1 102 18 view .LVU245
	movl	$0, %edi
	call	_ZN6Kernel7Console9setCursorENS0_9CursorPosE
.LVL61:
	.loc 1 103 5 view .LVU246
	popq	%rbp
	.cfi_restore 6
	.cfi_def_cfa 7, 8
	ret
	.cfi_endproc
.LFE79:
	.size	_ZN6Kernel7Console9clearLineEhNS0_10AttributesE, .-_ZN6Kernel7Console9clearLineEhNS0_10AttributesE
	.align 2
	.globl	_ZN6Kernel7Console5clearEhNS0_10AttributesE
	.type	_ZN6Kernel7Console5clearEhNS0_10AttributesE, @function
_ZN6Kernel7Console5clearEhNS0_10AttributesE:
.LVL62:
.LFB78:
	.loc 1 81 5 is_stmt 1 view -0
	.cfi_startproc
	.loc 1 81 5 is_stmt 0 view .LVU248
	pushq	%rbp
	.cfi_def_cfa_offset 16
	.cfi_offset 6, -16
	movq	%rsp, %rbp
	.cfi_def_cfa_register 6
	movl	%edi, %r8d
	movl	%esi, %edi
.LVL63:
	.loc 1 82 9 is_stmt 1 view .LVU249
.LBB89:
	.loc 1 82 30 discriminator 1 view .LVU250
	.loc 1 82 21 is_stmt 0 view .LVU251
	movl	$0, %r9d
.LVL64:
.L51:
.LBB90:
	.loc 1 84 34 is_stmt 1 discriminator 1 view .LVU252
	.loc 1 84 25 is_stmt 0 view .LVU253
	movl	$0, %eax
	.loc 1 86 45 view .LVU254
	leaq	(%r9,%r9,4), %rsi
	salq	$4, %rsi
.LVL65:
.L52:
	.loc 1 86 17 is_stmt 1 view .LVU255
	.loc 1 86 45 is_stmt 0 view .LVU256
	movl	$753664, %edx
	leaq	(%rsi,%rax), %rcx
	movb	%r8b, (%rdx,%rcx,2)
	.loc 1 87 17 is_stmt 1 view .LVU257
	.loc 1 87 40 is_stmt 0 view .LVU258
	movb	%dil, 1(%rdx,%rcx,2)
	.loc 1 84 13 is_stmt 1 discriminator 3 view .LVU259
	addq	$1, %rax
.LVL66:
	.loc 1 84 34 discriminator 1 view .LVU260
	cmpq	$80, %rax
	jne	.L52
	.loc 1 84 34 is_stmt 0 discriminator 1 view .LVU261
.LBE90:
	.loc 1 82 9 is_stmt 1 discriminator 2 view .LVU262
	addq	$1, %r9
.LVL67:
	.loc 1 82 30 discriminator 1 view .LVU263
	cmpq	$25, %r9
	jne	.L51
.LBE89:
	.loc 1 90 9 view .LVU264
	.loc 1 90 23 is_stmt 0 view .LVU265
	movq	$0, _ZN6Kernel7Console13s_displayLineE(%rip)
	.loc 1 91 9 is_stmt 1 view .LVU266
.LVL68:
.LBB91:
.LBI91:
	.loc 2 119 10 view .LVU267
.LBB92:
	.loc 2 121 16 is_stmt 0 view .LVU268
	movq	$_ZN6Kernel7Console12s_charBufferE, %rdx
	movq	$0, _ZN6Kernel7Console12s_charBufferE+327680(%rip)
.LVL69:
	.loc 2 121 16 view .LVU269
.LBE92:
.LBE91:
	.loc 1 92 9 is_stmt 1 view .LVU270
.LBB93:
.LBI93:
	.loc 2 20 10 view .LVU271
.LBB94:
	.loc 2 22 9 is_stmt 0 view .LVU272
	movl	$20, %ecx
	movl	$0, %eax
.LVL70:
	.loc 2 22 9 view .LVU273
	movq	%rdx, %rdi
.LVL71:
	.loc 2 22 9 view .LVU274
	rep stosq
	.loc 2 23 16 view .LVU275
	movq	$1, _ZN6Kernel7Console12s_charBufferE+327688(%rip)
.LVL72:
	.loc 2 23 16 view .LVU276
.LBE94:
.LBE93:
	.loc 1 93 9 is_stmt 1 view .LVU277
	.loc 1 93 18 is_stmt 0 view .LVU278
	movl	$0, %edi
	movl	$0, %esi
	call	_ZN6Kernel7Console9setCursorENS0_9CursorPosE
.LVL73:
	.loc 1 94 5 view .LVU279
	popq	%rbp
	.cfi_restore 6
	.cfi_def_cfa 7, 8
	ret
	.cfi_endproc
.LFE78:
	.size	_ZN6Kernel7Console5clearEhNS0_10AttributesE, .-_ZN6Kernel7Console5clearEhNS0_10AttributesE
	.align 2
	.globl	_ZN6Kernel7Console14setDisplayLineEm
	.type	_ZN6Kernel7Console14setDisplayLineEm, @function
_ZN6Kernel7Console14setDisplayLineEm:
.LVL74:
.LFB82:
	.loc 1 191 5 is_stmt 1 view -0
	.cfi_startproc
	.loc 1 191 5 is_stmt 0 view .LVU281
	pushq	%rbp
	.cfi_def_cfa_offset 16
	.cfi_offset 6, -16
	movq	%rsp, %rbp
	.cfi_def_cfa_register 6
	.loc 1 192 9 is_stmt 1 view .LVU282
	.loc 1 192 23 is_stmt 0 view .LVU283
	movq	%rdi, _ZN6Kernel7Console13s_displayLineE(%rip)
	.loc 1 193 9 is_stmt 1 view .LVU284
	.loc 1 193 19 is_stmt 0 view .LVU285
	call	_ZN6Kernel7Console10flushToVgaEv
.LVL75:
	.loc 1 194 9 is_stmt 1 view .LVU286
	.loc 1 194 21 is_stmt 0 view .LVU287
	call	_ZN6Kernel7Console12updateCursorEv
.LVL76:
	.loc 1 195 5 view .LVU288
	popq	%rbp
	.cfi_restore 6
	.cfi_def_cfa 7, 8
	ret
	.cfi_endproc
.LFE82:
	.size	_ZN6Kernel7Console14setDisplayLineEm, .-_ZN6Kernel7Console14setDisplayLineEm
	.align 2
	.globl	_ZN6Kernel7Console20clampDisplayToCursorEv
	.type	_ZN6Kernel7Console20clampDisplayToCursorEv, @function
_ZN6Kernel7Console20clampDisplayToCursorEv:
.LFB84:
	.loc 1 203 5 is_stmt 1 view -0
	.cfi_startproc
	.loc 1 204 9 view .LVU290
	.loc 1 204 37 is_stmt 0 view .LVU291
	movq	_ZN6Kernel7Console11s_cursorPosE+8(%rip), %rdx
	.loc 1 204 57 discriminator 2 view .LVU292
	movl	$0, %eax
	.loc 1 204 57 view .LVU293
	cmpq	$24, %rdx
	jbe	.L59
	.loc 1 204 75 discriminator 1 view .LVU294
	movq	_ZN6Kernel7Console11s_cursorPosE+8(%rip), %rax
	.loc 1 204 57 discriminator 1 view .LVU295
	subq	$25, %rax
.L59:
	.loc 1 204 23 discriminator 4 view .LVU296
	movq	%rax, _ZN6Kernel7Console13s_displayLineE(%rip)
	.loc 1 205 5 view .LVU297
	ret
	.cfi_endproc
.LFE84:
	.size	_ZN6Kernel7Console20clampDisplayToCursorEv, .-_ZN6Kernel7Console20clampDisplayToCursorEv
	.align 2
	.globl	_ZN6Kernel7Console10scrollDownEm
	.type	_ZN6Kernel7Console10scrollDownEm, @function
_ZN6Kernel7Console10scrollDownEm:
.LVL77:
.LFB85:
	.loc 1 208 5 is_stmt 1 view -0
	.cfi_startproc
	.loc 1 208 5 is_stmt 0 view .LVU299
	pushq	%rbp
	.cfi_def_cfa_offset 16
	.cfi_offset 6, -16
	movq	%rsp, %rbp
	.cfi_def_cfa_register 6
	.loc 1 209 9 is_stmt 1 view .LVU300
	.loc 1 209 23 is_stmt 0 view .LVU301
	movq	_ZN6Kernel7Console13s_displayLineE(%rip), %rax
	addq	%rdi, %rax
	movq	%rax, _ZN6Kernel7Console13s_displayLineE(%rip)
	.loc 1 210 9 is_stmt 1 view .LVU302
.LVL78:
.LBB95:
.LBI95:
	.loc 2 104 12 view .LVU303
.LBB96:
	.loc 2 106 35 is_stmt 0 view .LVU304
	movq	_ZN6Kernel7Console12s_charBufferE+327688(%rip), %rax
	subq	_ZN6Kernel7Console12s_charBufferE+327680(%rip), %rax
	.loc 2 106 47 view .LVU305
	andl	$2047, %eax
.LBE96:
.LBE95:
	.loc 1 210 49 discriminator 1 view .LVU306
	subq	$25, %rax
	.loc 1 210 13 discriminator 1 view .LVU307
	movq	_ZN6Kernel7Console13s_displayLineE(%rip), %rdx
	.loc 1 210 9 discriminator 1 view .LVU308
	cmpq	%rdx, %rax
	jnb	.L62
	.loc 1 211 13 is_stmt 1 view .LVU309
	.loc 1 211 27 is_stmt 0 discriminator 1 view .LVU310
	movq	%rax, _ZN6Kernel7Console13s_displayLineE(%rip)
.L62:
	.loc 1 212 9 is_stmt 1 view .LVU311
	.loc 1 212 21 is_stmt 0 view .LVU312
	call	_ZN6Kernel7Console12updateCursorEv
.LVL79:
	.loc 1 213 9 is_stmt 1 view .LVU313
	.loc 1 213 19 is_stmt 0 view .LVU314
	call	_ZN6Kernel7Console10flushToVgaEv
.LVL80:
	.loc 1 214 5 view .LVU315
	popq	%rbp
	.cfi_restore 6
	.cfi_def_cfa 7, 8
	ret
	.cfi_endproc
.LFE85:
	.size	_ZN6Kernel7Console10scrollDownEm, .-_ZN6Kernel7Console10scrollDownEm
	.align 2
	.globl	_ZN6Kernel7Console8scrollUpEm
	.type	_ZN6Kernel7Console8scrollUpEm, @function
_ZN6Kernel7Console8scrollUpEm:
.LVL81:
.LFB86:
	.loc 1 217 5 is_stmt 1 view -0
	.cfi_startproc
	.loc 1 217 5 is_stmt 0 view .LVU317
	pushq	%rbp
	.cfi_def_cfa_offset 16
	.cfi_offset 6, -16
	movq	%rsp, %rbp
	.cfi_def_cfa_register 6
	.loc 1 218 9 is_stmt 1 view .LVU318
	.loc 1 218 13 is_stmt 0 view .LVU319
	movq	_ZN6Kernel7Console13s_displayLineE(%rip), %rax
	.loc 1 218 9 view .LVU320
	cmpq	%rdi, %rax
	jnb	.L65
	.loc 1 219 13 is_stmt 1 view .LVU321
	.loc 1 219 27 is_stmt 0 view .LVU322
	movq	$0, _ZN6Kernel7Console13s_displayLineE(%rip)
.L66:
	.loc 1 222 9 is_stmt 1 view .LVU323
	.loc 1 222 21 is_stmt 0 view .LVU324
	call	_ZN6Kernel7Console12updateCursorEv
.LVL82:
	.loc 1 223 9 is_stmt 1 view .LVU325
	.loc 1 223 19 is_stmt 0 view .LVU326
	call	_ZN6Kernel7Console10flushToVgaEv
.LVL83:
	.loc 1 224 5 view .LVU327
	popq	%rbp
	.cfi_remember_state
	.cfi_restore 6
	.cfi_def_cfa 7, 8
	ret
.LVL84:
.L65:
	.cfi_restore_state
	.loc 1 221 13 is_stmt 1 view .LVU328
	.loc 1 221 27 is_stmt 0 view .LVU329
	movq	_ZN6Kernel7Console13s_displayLineE(%rip), %rax
	subq	%rdi, %rax
	movq	%rax, _ZN6Kernel7Console13s_displayLineE(%rip)
	jmp	.L66
	.cfi_endproc
.LFE86:
	.size	_ZN6Kernel7Console8scrollUpEm, .-_ZN6Kernel7Console8scrollUpEm
	.type	_GLOBAL__sub_I__ZN6Kernel7Console12updateCursorEv, @function
_GLOBAL__sub_I__ZN6Kernel7Console12updateCursorEv:
.LFB97:
	.loc 1 225 1 is_stmt 1 view -0
	.cfi_startproc
.LBB102:
.LBI102:
	.loc 1 225 1 view .LVU331
.LBB103:
	.file 4 "src/kernel/../../include/kernel/Console.h"
	.loc 4 72 95 is_stmt 0 view .LVU332
	cmpb	$0, _ZGVN6Kernel7Console12s_charBufferE(%rip)
	jne	.L68
	.loc 4 72 95 discriminator 1 view .LVU333
	movb	$1, _ZGVN6Kernel7Console12s_charBufferE(%rip)
.LVL85:
.LBB104:
.LBI104:
	.loc 2 14 5 is_stmt 1 view .LVU334
.LBB105:
.LBB106:
	.loc 2 15 5 discriminator 1 view .LVU335
.LBE106:
	.loc 2 14 5 is_stmt 0 view .LVU336
	movl	$2048, %eax
.L70:
.LBB107:
	.loc 2 15 5 is_stmt 1 discriminator 1 view .LVU337
	subq	$1, %rax
	jne	.L70
	.loc 2 15 5 is_stmt 0 discriminator 4 view .LVU338
	movq	$0, _ZN6Kernel7Console12s_charBufferE+327680(%rip)
	movq	$0, _ZN6Kernel7Console12s_charBufferE+327688(%rip)
.LVL86:
.L68:
	.loc 2 15 5 discriminator 4 view .LVU339
.LBE107:
.LBE105:
.LBE104:
.LBE103:
.LBE102:
	.loc 1 225 1 view .LVU340
	ret
	.cfi_endproc
.LFE97:
	.size	_GLOBAL__sub_I__ZN6Kernel7Console12updateCursorEv, .-_GLOBAL__sub_I__ZN6Kernel7Console12updateCursorEv
	.section	.ctors,"aw",@progbits
	.align 8
	.quad	_GLOBAL__sub_I__ZN6Kernel7Console12updateCursorEv
	.weak	_ZGVN6Kernel7Console12s_charBufferE
	.section	.bss._ZGVN6Kernel7Console12s_charBufferE,"awG",@nobits,_ZGVN6Kernel7Console12s_charBufferE,comdat
	.align 8
	.type	_ZGVN6Kernel7Console12s_charBufferE, @object
	.size	_ZGVN6Kernel7Console12s_charBufferE, 8
_ZGVN6Kernel7Console12s_charBufferE:
	.zero	8
	.weak	_ZN6Kernel7Console13s_shouldFlushE
	.section	.bss._ZN6Kernel7Console13s_shouldFlushE,"awG",@nobits,_ZN6Kernel7Console13s_shouldFlushE,comdat
	.type	_ZN6Kernel7Console13s_shouldFlushE, @object
	.size	_ZN6Kernel7Console13s_shouldFlushE, 1
_ZN6Kernel7Console13s_shouldFlushE:
	.zero	1
	.weak	_ZN6Kernel7Console15s_cursorEnabledE
	.section	.bss._ZN6Kernel7Console15s_cursorEnabledE,"awG",@nobits,_ZN6Kernel7Console15s_cursorEnabledE,comdat
	.type	_ZN6Kernel7Console15s_cursorEnabledE, @object
	.size	_ZN6Kernel7Console15s_cursorEnabledE, 1
_ZN6Kernel7Console15s_cursorEnabledE:
	.zero	1
	.weak	_ZN6Kernel7Console13s_displayLineE
	.section	.bss._ZN6Kernel7Console13s_displayLineE,"awG",@nobits,_ZN6Kernel7Console13s_displayLineE,comdat
	.align 8
	.type	_ZN6Kernel7Console13s_displayLineE, @object
	.size	_ZN6Kernel7Console13s_displayLineE, 8
_ZN6Kernel7Console13s_displayLineE:
	.zero	8
	.weak	_ZN6Kernel7Console11s_cursorPosE
	.section	.bss._ZN6Kernel7Console11s_cursorPosE,"awG",@nobits,_ZN6Kernel7Console11s_cursorPosE,comdat
	.align 16
	.type	_ZN6Kernel7Console11s_cursorPosE, @object
	.size	_ZN6Kernel7Console11s_cursorPosE, 16
_ZN6Kernel7Console11s_cursorPosE:
	.zero	16
	.weak	_ZN6Kernel7Console12s_charBufferE
	.section	.bss._ZN6Kernel7Console12s_charBufferE,"awG",@nobits,_ZN6Kernel7Console12s_charBufferE,comdat
	.align 32
	.type	_ZN6Kernel7Console12s_charBufferE, @object
	.size	_ZN6Kernel7Console12s_charBufferE, 327696
_ZN6Kernel7Console12s_charBufferE:
	.zero	327696
	.text
.Letext0:
	.file 5 "src/kernel/../../include/kernel/../utils/Types.h"
	.file 6 "src/kernel/../../include/kernel/../utils/Utils.h"