	.file	"Heap.cpp"
	.text
.Ltext0:
	.file 0 "/mnt/a/myOsX64" "src/kernel/Heap.cpp"
	.align 2
	.globl	_ZNV6Kernel14HeapLinkedList10initializeEPvS1_
	.type	_ZNV6Kernel14HeapLinkedList10initializeEPvS1_, @function
_ZNV6Kernel14HeapLinkedList10initializeEPvS1_:
.LVL0:
.LFB82:
	.file 1 "src/kernel/Heap.cpp"
	.loc 1 5 5 view -0
	.cfi_startproc
	.loc 1 6 9 view .LVU1
	.loc 1 6 21 is_stmt 0 view .LVU2
	movq	%rsi, 8(%rdi)
	.loc 1 7 9 is_stmt 1 view .LVU3
	.loc 1 7 19 is_stmt 0 view .LVU4
	movq	%rdx, 16(%rdi)
	.loc 1 8 9 is_stmt 1 view .LVU5
	.loc 1 8 20 is_stmt 0 view .LVU6
	movq	$32, 24(%rdi)
	.loc 1 9 9 is_stmt 1 view .LVU7
	.loc 1 9 16 is_stmt 0 view .LVU8
	movq	%rsi, (%rdi)
	.loc 1 10 9 is_stmt 1 view .LVU9
	movq	(%rdi), %rax
.LVL1:
.LBB86:
.LBI86:
	.file 2 "src/kernel/../../include/Heap.h"
	.loc 2 33 18 view .LVU10
	.loc 2 35 17 view .LVU11
.LBB87:
.LBI87:
	.file 3 "src/kernel/../../include/Utils.h"
	.loc 3 47 14 view .LVU12
.LBB88:
	.loc 3 49 21 is_stmt 0 view .LVU13
	andq	$-2, 16(%rax)
.LVL2:
	.loc 3 49 21 view .LVU14
.LBE88:
.LBE87:
.LBE86:
	.loc 1 11 9 is_stmt 1 view .LVU15
	movq	(%rdi), %rax
	.loc 1 11 22 is_stmt 0 view .LVU16
	movq	$0, 8(%rax)
	.loc 1 12 9 is_stmt 1 view .LVU17
	movq	(%rdi), %rax
	.loc 1 12 22 is_stmt 0 view .LVU18
	movq	$0, (%rax)
	.loc 1 14 9 is_stmt 1 view .LVU19
	.loc 1 14 25 is_stmt 0 view .LVU20
	movq	$0, 40(%rdi)
	.loc 1 15 9 is_stmt 1 view .LVU21
	.loc 1 15 64 is_stmt 0 view .LVU22
	subq	%rsi, %rdx
.LVL3:
	.loc 1 15 105 view .LVU23
	subq	$32, %rdx
	.loc 1 15 25 view .LVU24
	movq	%rdx, 32(%rdi)
	.loc 1 16 5 view .LVU25
	ret
	.cfi_endproc
.LFE82:
	.size	_ZNV6Kernel14HeapLinkedList10initializeEPvS1_, .-_ZNV6Kernel14HeapLinkedList10initializeEPvS1_
	.align 2
	.globl	_ZN6Kernel14HeapLinkedList8allocateEm
	.type	_ZN6Kernel14HeapLinkedList8allocateEm, @function
_ZN6Kernel14HeapLinkedList8allocateEm:
.LVL4:
.LFB83:
	.loc 1 19 5 is_stmt 1 view -0
	.cfi_startproc
	.loc 1 19 5 is_stmt 0 view .LVU27
	movq	%rdi, %r8
	.loc 1 20 9 is_stmt 1 view .LVU28
.LVL5:
.LBB89:
.LBI89:
	.loc 2 101 23 view .LVU29
.LBB90:
	.loc 2 101 44 view .LVU30
	.loc 2 101 57 is_stmt 0 view .LVU31
	addq	$7, %rsi
.LVL6:
	.loc 2 101 65 view .LVU32
	andq	$-8, %rsi
.LVL7:
	.loc 2 101 65 view .LVU33
.LBE90:
.LBE89:
	.loc 1 21 9 is_stmt 1 view .LVU34
	.loc 1 21 13 is_stmt 0 view .LVU35
	movq	32(%rdi), %rax
	.loc 1 21 9 view .LVU36
	cmpq	%rsi, %rax
	jb	.L8
	.loc 1 23 9 is_stmt 1 view .LVU37
	.loc 1 23 16 is_stmt 0 view .LVU38
	movq	(%rdi), %rax
.LVL8:
	.loc 1 25 9 is_stmt 1 view .LVU39
	jmp	.L4
.LVL9:
.L9:
.LBB91:
.LBB92:
	.loc 1 25 9 is_stmt 0 view .LVU40
	movq	%rcx, %rax
.LVL10:
.L4:
	.loc 1 25 9 view .LVU41
.LBE92:
.LBE91:
	.loc 1 25 24 is_stmt 1 view .LVU42
	testq	%rax, %rax
	je	.L10
.LBB112:
	.loc 1 27 13 view .LVU43
.LVL11:
.LBB109:
.LBI109:
	.loc 2 38 20 view .LVU44
.LBB110:
	.loc 2 40 17 view .LVU45
	.loc 2 40 52 is_stmt 0 view .LVU46
	movq	8(%rax), %rcx
	.loc 2 40 58 view .LVU47
	movq	%rcx, %rdx
	subq	%rax, %rdx
	.loc 2 40 108 view .LVU48
	subq	$32, %rdx
.LVL12:
	.loc 2 40 108 view .LVU49
.LBE110:
.LBE109:
	.loc 1 28 13 is_stmt 1 view .LVU50
.LBB111:
.LBB93:
.LBI93:
	.loc 2 28 18 view .LVU51
	.loc 2 28 35 view .LVU52
.LBB94:
.LBI94:
	.loc 3 51 14 view .LVU53
.LBB95:
	.loc 3 53 21 is_stmt 0 view .LVU54
	movq	16(%rax), %rdi
.LVL13:
	.loc 3 53 21 view .LVU55
.LBE95:
.LBE94:
.LBE93:
	.loc 1 28 36 discriminator 1 view .LVU56
	testb	$1, %dil
	jne	.L9
	cmpq	%rsi, %rdx
	jb	.L9
.LBB96:
	.loc 1 30 17 is_stmt 1 view .LVU57
.LVL14:
.LBB97:
.LBI97:
	.loc 2 29 18 view .LVU58
	.loc 2 31 17 view .LVU59
.LBB98:
.LBI98:
	.loc 3 43 14 view .LVU60
.LBB99:
	.loc 3 45 21 is_stmt 0 view .LVU61
	orq	$1, %rdi
	movq	%rdi, 16(%rax)
.LVL15:
	.loc 3 45 21 view .LVU62
.LBE99:
.LBE98:
.LBE97:
	.loc 1 31 17 is_stmt 1 view .LVU63
.LBB100:
	.loc 1 31 48 is_stmt 0 view .LVU64
	addq	$32, %rsi
.LVL16:
	.loc 1 31 17 view .LVU65
	cmpq	%rdx, %rsi
	jnb	.L5
.LBB101:
	.loc 1 33 21 is_stmt 1 view .LVU66
	.loc 1 33 28 is_stmt 0 view .LVU67
	leaq	(%rax,%rsi), %rdx
.LVL17:
	.loc 1 34 21 is_stmt 1 view .LVU68
	.loc 1 34 36 is_stmt 0 view .LVU69
	movq	%rax, (%rdx)
	.loc 1 35 21 is_stmt 1 view .LVU70
	.loc 1 35 47 is_stmt 0 view .LVU71
	movq	8(%rax), %rcx
.LVL18:
	.loc 1 35 36 view .LVU72
	movq	%rcx, 8(%rdx)
	.loc 1 36 21 is_stmt 1 view .LVU73
	.loc 1 36 35 is_stmt 0 view .LVU74
	movq	%rdx, 8(%rax)
	.loc 1 37 21 is_stmt 1 view .LVU75
	.loc 1 37 35 is_stmt 0 view .LVU76
	movq	8(%rdx), %rcx
	.loc 1 37 21 view .LVU77
	testq	%rcx, %rcx
	je	.L6
	.loc 1 38 25 is_stmt 1 view .LVU78
	.loc 1 38 46 is_stmt 0 view .LVU79
	movq	%rdx, (%rcx)
.L6:
	.loc 1 39 21 is_stmt 1 view .LVU80
.LVL19:
.LBB102:
.LBI102:
	.loc 2 33 18 view .LVU81
	.loc 2 35 17 view .LVU82
.LBB103:
.LBI103:
	.loc 3 47 14 view .LVU83
.LBB104:
	.loc 3 49 21 is_stmt 0 view .LVU84
	andq	$-2, 16(%rdx)
.LVL20:
	.loc 3 49 21 view .LVU85
.LBE104:
.LBE103:
.LBE102:
	.loc 1 40 21 is_stmt 1 view .LVU86
	movq	24(%r8), %rdx
.LVL21:
	.loc 1 40 32 is_stmt 0 view .LVU87
	addq	$32, %rdx
	movq	%rdx, 24(%r8)
.LVL22:
.L5:
	.loc 1 40 32 view .LVU88
.LBE101:
.LBE100:
	.loc 1 42 17 is_stmt 1 view .LVU89
.LBB105:
.LBI105:
	.loc 2 38 20 view .LVU90
.LBB106:
	.loc 2 40 17 view .LVU91
	.loc 2 40 58 is_stmt 0 view .LVU92
	movq	8(%rax), %rdx
	subq	%rax, %rdx
	.loc 2 40 108 view .LVU93
	subq	$32, %rdx
.LVL23:
	.loc 2 40 108 view .LVU94
.LBE106:
.LBE105:
	.loc 1 43 17 is_stmt 1 view .LVU95
	movq	24(%r8), %rcx
	.loc 1 43 28 is_stmt 0 view .LVU96
	addq	%rdx, %rcx
	movq	%rcx, 24(%r8)
	.loc 1 44 17 is_stmt 1 view .LVU97
	movq	40(%r8), %rcx
	.loc 1 44 33 is_stmt 0 view .LVU98
	addq	%rdx, %rcx
	movq	%rcx, 40(%r8)
	.loc 1 45 17 is_stmt 1 view .LVU99
	movq	32(%r8), %rcx
	.loc 1 45 33 is_stmt 0 view .LVU100
	subq	%rdx, %rcx
	movq	%rcx, 32(%r8)
	.loc 1 46 17 is_stmt 1 view .LVU101
.LVL24:
.LBB107:
.LBI107:
	.loc 2 43 19 view .LVU102
.LBB108:
	.loc 2 45 17 view .LVU103
	.loc 2 45 72 is_stmt 0 view .LVU104
	addq	$32, %rax
.LVL25:
	.loc 2 45 72 view .LVU105
.LBE108:
.LBE107:
	.loc 1 46 38 view .LVU106
	ret
.LVL26:
.L10:
	.loc 1 46 38 view .LVU107
	ret
.LVL27:
.L8:
	.loc 1 46 38 view .LVU108
.LBE96:
.LBE111:
.LBE112:
	.loc 1 22 20 view .LVU109
	movl	$0, %eax
	.loc 1 51 5 view .LVU110
	ret
	.cfi_endproc
.LFE83:
	.size	_ZN6Kernel14HeapLinkedList8allocateEm, .-_ZN6Kernel14HeapLinkedList8allocateEm
	.align 2
	.globl	_ZN6Kernel14HeapLinkedList4freeEPv
	.type	_ZN6Kernel14HeapLinkedList4freeEPv, @function
_ZN6Kernel14HeapLinkedList4freeEPv:
.LVL28:
.LFB85:
	.loc 1 112 5 is_stmt 1 view -0
	.cfi_startproc
	.loc 1 112 5 is_stmt 0 view .LVU112
	movq	%rdi, %rdx
	.loc 1 113 9 is_stmt 1 view .LVU113
.LVL29:
	.loc 1 114 9 view .LVU114
.LBB113:
.LBI113:
	.loc 2 33 18 view .LVU115
	.loc 2 35 17 view .LVU116
.LBB114:
.LBI114:
	.loc 3 47 14 view .LVU117
.LBB115:
	.loc 3 49 21 is_stmt 0 view .LVU118
	andq	$-2, -16(%rsi)
.LVL30:
	.loc 3 49 21 view .LVU119
.LBE115:
.LBE114:
.LBE113:
	.loc 1 115 9 is_stmt 1 view .LVU120
.LBB116:
.LBI116:
	.loc 2 38 20 view .LVU121
.LBB117:
	.loc 2 40 17 view .LVU122
	.loc 2 40 58 is_stmt 0 view .LVU123
	leaq	-32(%rsi), %rax
.LVL31:
	.loc 2 40 108 view .LVU124
	movq	-24(%rsi), %rcx
	subq	%rsi, %rcx
.LVL32:
	.loc 2 40 108 view .LVU125
.LBE117:
.LBE116:
	.loc 1 116 9 is_stmt 1 view .LVU126
	movq	24(%rdi), %rdi
.LVL33:
	.loc 1 116 20 is_stmt 0 view .LVU127
	subq	%rcx, %rdi
	movq	%rdi, 24(%rdx)
	.loc 1 117 9 is_stmt 1 view .LVU128
	movq	40(%rdx), %rdi
	.loc 1 117 25 is_stmt 0 view .LVU129
	subq	%rcx, %rdi
	movq	%rdi, 40(%rdx)
	.loc 1 118 9 is_stmt 1 view .LVU130
	.loc 1 119 9 view .LVU131
	movq	32(%rdx), %rdi
	.loc 1 119 25 is_stmt 0 view .LVU132
	addq	%rdi, %rcx
.LVL34:
	.loc 1 119 25 view .LVU133
	movq	%rcx, 32(%rdx)
	.loc 1 120 9 is_stmt 1 view .LVU134
	.loc 1 121 9 view .LVU135
	.loc 1 121 39 view .LVU136
	.loc 1 121 23 is_stmt 0 view .LVU137
	movq	-32(%rsi), %rcx
	.loc 1 121 39 view .LVU138
	testq	%rcx, %rcx
	je	.L12
.LVL35:
.L16:
.LBB118:
.LBI118:
	.loc 2 28 18 is_stmt 1 view .LVU139
	.loc 2 28 35 view .LVU140
.LBB119:
.LBI119:
	.loc 3 51 14 view .LVU141
	.loc 3 51 14 is_stmt 0 view .LVU142
.LBE119:
.LBE118:
	.loc 1 121 39 discriminator 1 view .LVU143
	testb	$1, 16(%rcx)
	jne	.L12
	.loc 1 123 13 is_stmt 1 view .LVU144
	.loc 1 123 40 is_stmt 0 view .LVU145
	movq	8(%rax), %rsi
	.loc 1 123 31 view .LVU146
	movq	%rsi, 8(%rcx)
	.loc 1 124 13 is_stmt 1 view .LVU147
	.loc 1 124 19 is_stmt 0 view .LVU148
	movq	(%rax), %rax
.LVL36:
	.loc 1 125 13 is_stmt 1 view .LVU149
	movq	24(%rdx), %rcx
	.loc 1 125 24 is_stmt 0 view .LVU150
	subq	$32, %rcx
	movq	%rcx, 24(%rdx)
	.loc 1 121 39 is_stmt 1 view .LVU151
	.loc 1 121 23 is_stmt 0 view .LVU152
	movq	(%rax), %rcx
	.loc 1 121 39 view .LVU153
	testq	%rcx, %rcx
	jne	.L16
.L12:
	.loc 1 127 39 is_stmt 1 view .LVU154
	.loc 1 127 23 is_stmt 0 view .LVU155
	movq	8(%rax), %rcx
	.loc 1 127 39 view .LVU156
	testq	%rcx, %rcx
	je	.L21
.L14:
.LVL37:
.LBB120:
.LBI120:
	.loc 2 28 18 is_stmt 1 view .LVU157
	.loc 2 28 35 view .LVU158
.LBB121:
.LBI121:
	.loc 3 51 14 view .LVU159
	.loc 3 51 14 is_stmt 0 view .LVU160
.LBE121:
.LBE120:
	.loc 1 127 39 discriminator 1 view .LVU161
	testb	$1, 16(%rcx)
	jne	.L11
	.loc 1 129 13 is_stmt 1 view .LVU162
	.loc 1 129 40 is_stmt 0 view .LVU163
	movq	8(%rcx), %rcx
	.loc 1 129 25 view .LVU164
	movq	%rcx, 8(%rax)
	.loc 1 130 13 is_stmt 1 view .LVU165
	movq	24(%rdx), %rcx
	.loc 1 130 24 is_stmt 0 view .LVU166
	subq	$32, %rcx
	movq	%rcx, 24(%rdx)
	.loc 1 127 39 is_stmt 1 view .LVU167
	.loc 1 127 23 is_stmt 0 view .LVU168
	movq	8(%rax), %rcx
	.loc 1 127 39 view .LVU169
	testq	%rcx, %rcx
	jne	.L14
.L11:
	.loc 1 132 5 view .LVU170
	ret
.L21:
	.loc 1 132 5 view .LVU171
	ret
	.cfi_endproc
.LFE85:
	.size	_ZN6Kernel14HeapLinkedList4freeEPv, .-_ZN6Kernel14HeapLinkedList4freeEPv
	.align 2
	.globl	_ZN6Kernel14HeapLinkedList10reallocateEPvm
	.type	_ZN6Kernel14HeapLinkedList10reallocateEPvm, @function
_ZN6Kernel14HeapLinkedList10reallocateEPvm:
.LVL38:
.LFB84:
	.loc 1 54 5 is_stmt 1 view -0
	.cfi_startproc
	.loc 1 54 5 is_stmt 0 view .LVU173
	pushq	%rbp
	.cfi_def_cfa_offset 16
	.cfi_offset 6, -16
	movq	%rsp, %rbp
	.cfi_def_cfa_register 6
	pushq	%r14
	pushq	%r13
	pushq	%r12
	pushq	%rbx
	.cfi_offset 14, -24
	.cfi_offset 13, -32
	.cfi_offset 12, -40
	.cfi_offset 3, -48
	movq	%rdi, %r12
	.loc 1 55 9 is_stmt 1 view .LVU174
	testq	%rsi, %rsi
	je	.L37
	movq	%rsi, %rbx
	.loc 1 57 9 view .LVU175
.LVL39:
.LBB122:
.LBI122:
	.loc 2 101 23 view .LVU176
.LBB123:
	.loc 2 101 44 view .LVU177
	.loc 2 101 57 is_stmt 0 view .LVU178
	leaq	7(%rdx), %rsi
.LVL40:
	.loc 2 101 65 view .LVU179
	andq	$-8, %rsi
.LVL41:
	.loc 2 101 65 view .LVU180
.LBE123:
.LBE122:
	.loc 1 58 9 is_stmt 1 view .LVU181
	.loc 1 59 9 view .LVU182
.LBB124:
.LBI124:
	.loc 2 38 20 view .LVU183
.LBB125:
	.loc 2 40 17 view .LVU184
	.loc 2 40 52 is_stmt 0 view .LVU185
	movq	-24(%rbx), %rax
	.loc 2 40 58 view .LVU186
	leaq	-32(%rbx), %rdx
.LVL42:
	.loc 2 40 108 view .LVU187
	movq	%rax, %r14
	subq	%rbx, %r14
.LVL43:
	.loc 2 40 108 view .LVU188
.LBE125:
.LBE124:
	.loc 1 60 9 is_stmt 1 view .LVU189
.LBB126:
	cmpq	%rsi, %r14
	jnb	.L38
.LBE126:
	.loc 1 77 9 view .LVU190
.LBB147:
	.loc 1 77 62 is_stmt 0 view .LVU191
	testq	%rax, %rax
	je	.L27
.LVL44:
.LBB148:
.LBI148:
	.loc 2 28 18 is_stmt 1 view .LVU192
	.loc 2 28 35 view .LVU193
.LBB149:
.LBI149:
	.loc 3 51 14 view .LVU194
	.loc 3 51 14 is_stmt 0 view .LVU195
.LBE149:
.LBE148:
	.loc 1 77 36 discriminator 1 view .LVU196
	testb	$1, 16(%rax)
	jne	.L27
.LVL45:
.LBB150:
.LBI150:
	.loc 2 38 20 is_stmt 1 view .LVU197
.LBB151:
	.loc 2 40 17 view .LVU198
	.loc 2 40 52 is_stmt 0 view .LVU199
	movq	8(%rax), %rdi
.LVL46:
	.loc 2 40 58 view .LVU200
	movq	%rdi, %rcx
	subq	%rax, %rcx
	.loc 2 40 108 view .LVU201
	subq	$32, %rcx
.LVL47:
	.loc 2 40 108 view .LVU202
.LBE151:
.LBE150:
	.loc 1 77 85 discriminator 1 view .LVU203
	leaq	(%r14,%rcx), %r8
	.loc 1 77 62 discriminator 1 view .LVU204
	cmpq	%rsi, %r8
	jb	.L27
.LBB152:
	.loc 1 79 13 is_stmt 1 view .LVU205
	.loc 1 79 20 is_stmt 0 view .LVU206
	movq	%rsi, %r8
	subq	%r14, %r8
.LVL48:
	.loc 1 80 13 is_stmt 1 view .LVU207
	.loc 1 82 13 view .LVU208
	.loc 1 82 13 is_stmt 0 discriminator 1 view .LVU209
	cmpq	%rcx, %r8
	je	.L39
	.loc 1 90 13 is_stmt 1 view .LVU210
	.loc 1 90 20 is_stmt 0 view .LVU211
	addq	%r8, %rax
.LVL49:
	.loc 1 91 13 is_stmt 1 view .LVU212
	.loc 1 91 28 is_stmt 0 view .LVU213
	movq	%rdx, (%rax)
	.loc 1 92 13 is_stmt 1 view .LVU214
	.loc 1 92 28 is_stmt 0 view .LVU215
	movq	%rdi, 8(%rax)
	.loc 1 93 13 is_stmt 1 view .LVU216
	.loc 1 93 25 is_stmt 0 view .LVU217
	movq	%rax, -24(%rbx)
	.loc 1 94 13 is_stmt 1 view .LVU218
	testq	%rdi, %rdi
	je	.L31
	.loc 1 95 17 view .LVU219
	.loc 1 95 32 is_stmt 0 view .LVU220
	movq	%rax, (%rdi)
.L31:
	.loc 1 97 13 is_stmt 1 view .LVU221
.LVL50:
.LBB153:
.LBI153:
	.loc 2 33 18 view .LVU222
	.loc 2 35 17 view .LVU223
.LBB154:
.LBI154:
	.loc 3 47 14 view .LVU224
.LBB155:
	.loc 3 49 21 is_stmt 0 view .LVU225
	andq	$-2, 16(%rax)
.LVL51:
	.loc 3 49 21 view .LVU226
.LBE155:
.LBE154:
.LBE153:
	.loc 1 98 13 is_stmt 1 view .LVU227
	movq	24(%r12), %rax
.LVL52:
	.loc 1 98 24 is_stmt 0 view .LVU228
	addq	%r8, %rax
	movq	%rax, 24(%r12)
	.loc 1 99 13 is_stmt 1 view .LVU229
	movq	40(%r12), %rax
	.loc 1 99 29 is_stmt 0 view .LVU230
	addq	%r8, %rax
	movq	%rax, 40(%r12)
	.loc 1 100 13 is_stmt 1 view .LVU231
	movq	32(%r12), %rax
	.loc 1 100 29 is_stmt 0 view .LVU232
	subq	%rsi, %rax
	addq	%r14, %rax
	movq	%rax, 32(%r12)
	.loc 1 101 13 is_stmt 1 view .LVU233
	.loc 1 101 20 is_stmt 0 view .LVU234
	movq	%rbx, %r13
	jmp	.L22
.LVL53:
.L37:
	.loc 1 101 20 view .LVU235
.LBE152:
.LBE147:
	.loc 1 56 13 is_stmt 1 view .LVU236
	.loc 1 56 28 is_stmt 0 view .LVU237
	movq	%rdx, %rsi
.LVL54:
	.loc 1 56 28 view .LVU238
	call	_ZN6Kernel14HeapLinkedList8allocateEm
.LVL55:
	.loc 1 56 28 view .LVU239
	movq	%rax, %r13
	.loc 1 56 33 view .LVU240
	jmp	.L22
.LVL56:
.L38:
.LBB157:
.LBB127:
	.loc 1 62 13 is_stmt 1 view .LVU241
.LBB128:
	.loc 1 62 30 is_stmt 0 view .LVU242
	leaq	32(%rsi), %rcx
.LBE128:
	.loc 1 75 20 view .LVU243
	movq	%rbx, %r13
.LBB145:
	.loc 1 62 13 view .LVU244
	cmpq	%r14, %rcx
	jnb	.L22
.LBB129:
	.loc 1 64 17 is_stmt 1 view .LVU245
.LVL57:
	.loc 1 65 17 view .LVU246
	.loc 1 65 31 is_stmt 0 view .LVU247
	addq	%rdx, %rsi
.LVL58:
	.loc 1 65 29 view .LVU248
	movq	%rsi, -24(%rbx)
	.loc 1 66 17 is_stmt 1 view .LVU249
	.loc 1 66 35 is_stmt 0 view .LVU250
	movq	%rdx, (%rsi)
	.loc 1 67 17 is_stmt 1 view .LVU251
	.loc 1 67 24 is_stmt 0 view .LVU252
	movq	-24(%rbx), %rdx
.LVL59:
	.loc 1 67 35 view .LVU253
	movq	%rax, 8(%rdx)
.LVL60:
	.loc 1 68 17 is_stmt 1 view .LVU254
	testq	%rax, %rax
	je	.L26
	.loc 1 69 21 view .LVU255
	.loc 1 69 45 is_stmt 0 view .LVU256
	movq	-24(%rbx), %rdx
	.loc 1 69 36 view .LVU257
	movq	%rdx, (%rax)
.L26:
	.loc 1 70 17 is_stmt 1 view .LVU258
	.loc 1 70 24 is_stmt 0 view .LVU259
	movq	-24(%rbx), %rax
.LVL61:
.LBB130:
.LBI130:
	.loc 2 33 18 is_stmt 1 view .LVU260
	.loc 2 35 17 view .LVU261
.LBB131:
.LBI131:
	.loc 3 47 14 view .LVU262
.LBB132:
	.loc 3 49 21 is_stmt 0 view .LVU263
	andq	$-2, 16(%rax)
.LVL62:
	.loc 3 49 21 view .LVU264
.LBE132:
.LBE131:
.LBE130:
	.loc 1 71 17 is_stmt 1 view .LVU265
	.loc 1 71 54 is_stmt 0 view .LVU266
	movq	-24(%rbx), %rax
.LVL63:
.LBB133:
.LBI133:
	.loc 2 38 20 is_stmt 1 view .LVU267
.LBB134:
	.loc 2 40 17 view .LVU268
	.loc 2 40 17 is_stmt 0 view .LVU269
.LBE134:
.LBE133:
	.loc 1 71 17 discriminator 1 view .LVU270
	movq	24(%r12), %rdx
.LBB136:
.LBB135:
	.loc 2 40 58 view .LVU271
	subq	8(%rax), %rax
.LBE135:
.LBE136:
	.loc 1 71 28 discriminator 1 view .LVU272
	leaq	64(%rdx,%rax), %rax
	movq	%rax, 24(%r12)
	.loc 1 72 17 is_stmt 1 view .LVU273
	.loc 1 72 59 is_stmt 0 view .LVU274
	movq	-24(%rbx), %rax
.LVL64:
.LBB137:
.LBI137:
	.loc 2 38 20 is_stmt 1 view .LVU275
.LBB138:
	.loc 2 40 17 view .LVU276
	.loc 2 40 17 is_stmt 0 view .LVU277
.LBE138:
.LBE137:
	.loc 1 72 17 discriminator 1 view .LVU278
	movq	40(%r12), %rdx
.LBB140:
.LBB139:
	.loc 2 40 58 view .LVU279
	subq	8(%rax), %rax
.LBE139:
.LBE140:
	.loc 1 72 33 discriminator 1 view .LVU280
	leaq	64(%rdx,%rax), %rax
	movq	%rax, 40(%r12)
	.loc 1 73 17 is_stmt 1 view .LVU281
	.loc 1 73 43 is_stmt 0 view .LVU282
	movq	-24(%rbx), %rdx
.LVL65:
.LBB141:
.LBI141:
	.loc 2 38 20 is_stmt 1 view .LVU283
.LBB142:
	.loc 2 40 17 view .LVU284
	.loc 2 40 17 is_stmt 0 view .LVU285
.LBE142:
.LBE141:
	.loc 1 73 17 discriminator 1 view .LVU286
	movq	32(%r12), %rcx
.LVL66:
.LBB144:
.LBB143:
	.loc 2 40 58 view .LVU287
	movq	8(%rdx), %rax
	subq	%rdx, %rax
.LBE143:
.LBE144:
	.loc 1 73 33 discriminator 1 view .LVU288
	leaq	-32(%rcx,%rax), %rax
	movq	%rax, 32(%r12)
.LBE129:
.LBE145:
	.loc 1 75 20 view .LVU289
	movq	%rbx, %r13
.LBB146:
	jmp	.L22
.LVL67:
.L27:
	.loc 1 75 20 view .LVU290
.LBE146:
.LBE127:
.LBE157:
	.loc 1 103 9 is_stmt 1 view .LVU291
	.loc 1 103 32 is_stmt 0 view .LVU292
	movq	%r12, %rdi
	call	_ZN6Kernel14HeapLinkedList8allocateEm
.LVL68:
	.loc 1 103 32 view .LVU293
	movq	%rax, %r13
.LVL69:
	.loc 1 104 9 is_stmt 1 view .LVU294
	testq	%rax, %rax
	je	.L22
	.loc 1 106 9 view .LVU295
	.loc 1 106 15 is_stmt 0 view .LVU296
	movq	%r14, %rdx
	movq	%rbx, %rsi
	movq	%rax, %rdi
	call	memcpy
.LVL70:
	.loc 1 107 9 is_stmt 1 view .LVU297
	.loc 1 107 13 is_stmt 0 view .LVU298
	movq	%rbx, %rsi
	movq	%r12, %rdi
	call	_ZN6Kernel14HeapLinkedList4freeEPv
.LVL71:
	.loc 1 108 9 is_stmt 1 view .LVU299
.L22:
	.loc 1 109 5 is_stmt 0 view .LVU300
	movq	%r13, %rax
	popq	%rbx
	.cfi_remember_state
	.cfi_restore 3
	popq	%r12
	.cfi_restore 12
.LVL72:
	.loc 1 109 5 view .LVU301
	popq	%r13
	.cfi_restore 13
	popq	%r14
	.cfi_restore 14
	popq	%rbp
	.cfi_restore 6
	.cfi_def_cfa 7, 8
	ret
.LVL73:
.L39:
	.cfi_restore_state
.LBB158:
.LBB156:
	.loc 1 84 17 is_stmt 1 view .LVU302
	.loc 1 84 29 is_stmt 0 view .LVU303
	movq	%rdi, -24(%rbx)
	.loc 1 85 17 is_stmt 1 view .LVU304
	.loc 1 87 24 is_stmt 0 view .LVU305
	movq	%rbx, %r13
	.loc 1 85 17 view .LVU306
	testq	%rdi, %rdi
	je	.L22
	.loc 1 86 21 is_stmt 1 view .LVU307
	.loc 1 86 36 is_stmt 0 view .LVU308
	movq	%rdx, (%rdi)
	jmp	.L22
.LBE156:
.LBE158:
	.cfi_endproc
.LFE84:
	.size	_ZN6Kernel14HeapLinkedList10reallocateEPvm, .-_ZN6Kernel14HeapLinkedList10reallocateEPvm
	.type	_GLOBAL__sub_I__ZNV6Kernel14HeapLinkedList10initializeEPvS1_, @function
_GLOBAL__sub_I__ZNV6Kernel14HeapLinkedList10initializeEPvS1_:
.LFB107:
	.loc 1 133 1 is_stmt 1 view -0
	.cfi_startproc
.LBB164:
.LBI164:
	.loc 1 133 1 view .LVU310
.LBB165:
	.file 4 "src/kernel/../../include/Console.h"
	.loc 4 72 95 is_stmt 0 view .LVU311
	cmpb	$0, _ZGVN6Kernel7Console12s_charBufferE(%rip)
	jne	.L40
	.loc 4 72 95 discriminator 1 view .LVU312
	movb	$1, _ZGVN6Kernel7Console12s_charBufferE(%rip)
.LVL74:
.LBB166:
.LBI166:
	.file 5 "src/kernel/../../include/RollingWindow.h"
	.loc 5 14 5 is_stmt 1 view .LVU313
.LBB167:
.LBB168:
	.loc 5 15 5 discriminator 1 view .LVU314
.LBE168:
	.loc 5 14 5 is_stmt 0 view .LVU315
	movl	$2048, %eax
.L42:
.LBB169:
	.loc 5 15 5 is_stmt 1 discriminator 1 view .LVU316
	subq	$1, %rax
	jne	.L42
	.loc 5 15 5 is_stmt 0 discriminator 4 view .LVU317
	movq	$0, _ZN6Kernel7Console12s_charBufferE+327680(%rip)
	movq	$0, _ZN6Kernel7Console12s_charBufferE+327688(%rip)
.LVL75:
.L40:
	.loc 5 15 5 discriminator 4 view .LVU318
.LBE169:
.LBE167:
.LBE166:
.LBE165:
.LBE164:
	.loc 1 133 1 view .LVU319
	ret
	.cfi_endproc
.LFE107:
	.size	_GLOBAL__sub_I__ZNV6Kernel14HeapLinkedList10initializeEPvS1_, .-_GLOBAL__sub_I__ZNV6Kernel14HeapLinkedList10initializeEPvS1_
	.section	.ctors,"aw",@progbits
	.align 8
	.quad	_GLOBAL__sub_I__ZNV6Kernel14HeapLinkedList10initializeEPvS1_
	.weak	_ZGVN6Kernel7Console12s_charBufferE
	.section	.bss._ZGVN6Kernel7Console12s_charBufferE,"awG",@nobits,_ZGVN6Kernel7Console12s_charBufferE,comdat
	.align 8
	.type	_ZGVN6Kernel7Console12s_charBufferE, @object
	.size	_ZGVN6Kernel7Console12s_charBufferE, 8
_ZGVN6Kernel7Console12s_charBufferE:
	.zero	8
	.weak	_ZN6Kernel7Console13s_shouldFlushE
	.section	.bss._ZN6Kernel7Console13s_shouldFlushE,"awG",@nobits,_ZN6Kernel7Console13s_shouldFlushE,comdat
	.type	_ZN6Kernel7Console13s_shouldFlushE, @object
	.size	_ZN6Kernel7Console13s_shouldFlushE, 1
_ZN6Kernel7Console13s_shouldFlushE:
	.zero	1
	.weak	_ZN6Kernel7Console15s_cursorEnabledE
	.section	.bss._ZN6Kernel7Console15s_cursorEnabledE,"awG",@nobits,_ZN6Kernel7Console15s_cursorEnabledE,comdat
	.type	_ZN6Kernel7Console15s_cursorEnabledE, @object
	.size	_ZN6Kernel7Console15s_cursorEnabledE, 1
_ZN6Kernel7Console15s_cursorEnabledE:
	.zero	1
	.weak	_ZN6Kernel7Console13s_displayLineE
	.section	.bss._ZN6Kernel7Console13s_displayLineE,"awG",@nobits,_ZN6Kernel7Console13s_displayLineE,comdat
	.align 8
	.type	_ZN6Kernel7Console13s_displayLineE, @object
	.size	_ZN6Kernel7Console13s_displayLineE, 8
_ZN6Kernel7Console13s_displayLineE:
	.zero	8
	.weak	_ZN6Kernel7Console11s_cursorPosE
	.section	.bss._ZN6Kernel7Console11s_cursorPosE,"awG",@nobits,_ZN6Kernel7Console11s_cursorPosE,comdat
	.align 16
	.type	_ZN6Kernel7Console11s_cursorPosE, @object
	.size	_ZN6Kernel7Console11s_cursorPosE, 16
_ZN6Kernel7Console11s_cursorPosE:
	.zero	16
	.weak	_ZN6Kernel7Console12s_charBufferE
	.section	.bss._ZN6Kernel7Console12s_charBufferE,"awG",@nobits,_ZN6Kernel7Console12s_charBufferE,comdat
	.align 32
	.type	_ZN6Kernel7Console12s_charBufferE, @object
	.size	_ZN6Kernel7Console12s_charBufferE, 327696
_ZN6Kernel7Console12s_charBufferE:
	.zero	327696
	.text
.Letext0:
	.file 6 "src/kernel/../../include/Types.h"
	.file 7 "src/kernel/../../include/Array.h"