	.file	"InterruptManager.cpp"
	.text
.Ltext0:
	.file 0 "/mnt/a/myOsX64" "src/kernel/InterruptManager.cpp"
	.align 2
	.globl	_ZN6Kernel16InterruptManager10setIdtGateEhPFvvEhh
	.type	_ZN6Kernel16InterruptManager10setIdtGateEhPFvvEhh, @function
_ZN6Kernel16InterruptManager10setIdtGateEhPFvvEhh:
.LVL0:
.LFB27:
	.file 1 "src/kernel/InterruptManager.cpp"
	.loc 1 49 5 view -0
	.cfi_startproc
	.loc 1 49 5 is_stmt 0 view .LVU1
	movl	%edx, %r8d
	.loc 1 50 9 is_stmt 1 view .LVU2
.LVL1:
	.loc 1 51 9 view .LVU3
	.loc 1 51 22 is_stmt 0 view .LVU4
	movzbl	%dil, %edi
	.loc 1 51 22 view .LVU5
	movq	%rdi, %rdx
.LVL2:
	.loc 1 51 22 view .LVU6
	salq	$4, %rdx
	leaq	_ZN6Kernel16InterruptManager12s_idtEntriesE(%rdx), %rax
.LVL3:
	.loc 1 51 22 view .LVU7
	movw	%si, _ZN6Kernel16InterruptManager12s_idtEntriesE(%rdx)
	.loc 1 52 9 is_stmt 1 view .LVU8
	.loc 1 52 24 is_stmt 0 view .LVU9
	movq	$gdt64_code_segment, %rdx
	movw	%dx, 2(%rax)
	.loc 1 53 9 is_stmt 1 view .LVU10
	.loc 1 53 19 is_stmt 0 view .LVU11
	movb	%r8b, 4(%rax)
	.loc 1 54 9 is_stmt 1 view .LVU12
	.loc 1 54 26 is_stmt 0 view .LVU13
	movb	%cl, 5(%rax)
	.loc 1 55 9 is_stmt 1 view .LVU14
	.loc 1 55 77 is_stmt 0 view .LVU15
	movq	%rsi, %rdx
	shrq	$16, %rdx
	.loc 1 55 22 view .LVU16
	movw	%dx, 6(%rax)
	.loc 1 56 9 is_stmt 1 view .LVU17
	.loc 1 56 78 is_stmt 0 view .LVU18
	shrq	$32, %rsi
.LVL4:
	.loc 1 56 23 view .LVU19
	movl	%esi, 8(%rax)
	.loc 1 57 9 is_stmt 1 view .LVU20
	.loc 1 57 24 is_stmt 0 view .LVU21
	movl	$0, 12(%rax)
	.loc 1 58 9 is_stmt 1 view .LVU22
.LVL5:
.LBB24:
.LBI24:
	.loc 1 190 10 view .LVU23
.LBB25:
	.loc 1 192 9 view .LVU24
	.loc 1 192 36 is_stmt 0 view .LVU25
	movq	$_ZN6Kernel16InterruptManager15handleExceptionERNS_14InterruptFrameE, _ZN6Kernel16InterruptManager19s_interruptHandlersE(,%rdi,8)
.LVL6:
	.loc 1 192 36 view .LVU26
.LBE25:
.LBE24:
	.loc 1 59 5 view .LVU27
	ret
	.cfi_endproc
.LFE27:
	.size	_ZN6Kernel16InterruptManager10setIdtGateEhPFvvEhh, .-_ZN6Kernel16InterruptManager10setIdtGateEhPFvvEhh
	.align 2
	.globl	_ZN6Kernel16InterruptManager7loadIdtEv
	.type	_ZN6Kernel16InterruptManager7loadIdtEv, @function
_ZN6Kernel16InterruptManager7loadIdtEv:
.LFB29:
	.loc 1 123 5 is_stmt 1 view -0
	.cfi_startproc
	.loc 1 124 9 view .LVU29
	.loc 1 124 24 is_stmt 0 view .LVU30
	movw	$4095, _ZN6Kernel16InterruptManager8s_idtPtrE(%rip)
	.loc 1 125 9 is_stmt 1 view .LVU31
	.loc 1 125 23 is_stmt 0 view .LVU32
	movq	$_ZN6Kernel16InterruptManager12s_idtEntriesE, _ZN6Kernel16InterruptManager8s_idtPtrE+2(%rip)
	.loc 1 126 9 is_stmt 1 view .LVU33
/APP
# 126 "src/kernel/InterruptManager.cpp" 1
	lidt _ZN6Kernel16InterruptManager8s_idtPtrE(%rip)
# 0 "" 2
	.loc 1 127 5 is_stmt 0 view .LVU34
/NO_APP
	ret
	.cfi_endproc
.LFE29:
	.size	_ZN6Kernel16InterruptManager7loadIdtEv, .-_ZN6Kernel16InterruptManager7loadIdtEv
	.align 2
	.globl	_ZN6Kernel16InterruptManager8remapPicEv
	.type	_ZN6Kernel16InterruptManager8remapPicEv, @function
_ZN6Kernel16InterruptManager8remapPicEv:
.LFB30:
	.loc 1 130 5 is_stmt 1 view -0
	.cfi_startproc
	pushq	%rbp
	.cfi_def_cfa_offset 16
	.cfi_offset 6, -16
	movq	%rsp, %rbp
	.cfi_def_cfa_register 6
	.loc 1 132 9 view .LVU36
	.loc 1 132 31 is_stmt 0 view .LVU37
	movl	$33, %edi
	call	_ZN6Kernel6inByteEt
.LVL7:
	.loc 1 133 9 is_stmt 1 view .LVU38
	.loc 1 133 31 is_stmt 0 view .LVU39
	movl	$161, %edi
	call	_ZN6Kernel6inByteEt
.LVL8:
	.loc 1 136 9 is_stmt 1 view .LVU40
	.loc 1 136 16 is_stmt 0 view .LVU41
	movl	$17, %esi
	movl	$32, %edi
	call	_ZN6Kernel7outByteEth
.LVL9:
	.loc 1 137 9 is_stmt 1 view .LVU42
	.loc 1 137 16 is_stmt 0 view .LVU43
	movl	$17, %esi
	movl	$160, %edi
	call	_ZN6Kernel7outByteEth
.LVL10:
	.loc 1 140 9 is_stmt 1 view .LVU44
	.loc 1 140 16 is_stmt 0 view .LVU45
	movl	$32, %esi
	movl	$33, %edi
	call	_ZN6Kernel7outByteEth
.LVL11:
	.loc 1 141 9 is_stmt 1 view .LVU46
	.loc 1 141 16 is_stmt 0 view .LVU47
	movl	$40, %esi
	movl	$161, %edi
	call	_ZN6Kernel7outByteEth
.LVL12:
	.loc 1 144 9 is_stmt 1 view .LVU48
	.loc 1 144 16 is_stmt 0 view .LVU49
	movl	$4, %esi
	movl	$33, %edi
	call	_ZN6Kernel7outByteEth
.LVL13:
	.loc 1 145 9 is_stmt 1 view .LVU50
	.loc 1 145 16 is_stmt 0 view .LVU51
	movl	$2, %esi
	movl	$161, %edi
	call	_ZN6Kernel7outByteEth
.LVL14:
	.loc 1 148 9 is_stmt 1 view .LVU52
	.loc 1 148 16 is_stmt 0 view .LVU53
	movl	$1, %esi
	movl	$33, %edi
	call	_ZN6Kernel7outByteEth
.LVL15:
	.loc 1 149 9 is_stmt 1 view .LVU54
	.loc 1 149 16 is_stmt 0 view .LVU55
	movl	$1, %esi
	movl	$161, %edi
	call	_ZN6Kernel7outByteEth
.LVL16:
	.loc 1 152 9 is_stmt 1 view .LVU56
	.loc 1 152 16 is_stmt 0 view .LVU57
	movl	$0, %esi
	movl	$33, %edi
	call	_ZN6Kernel7outByteEth
.LVL17:
	.loc 1 153 9 is_stmt 1 view .LVU58
	.loc 1 153 16 is_stmt 0 view .LVU59
	movl	$0, %esi
	movl	$161, %edi
	call	_ZN6Kernel7outByteEth
.LVL18:
	.loc 1 154 5 view .LVU60
	popq	%rbp
	.cfi_restore 6
	.cfi_def_cfa 7, 8
	ret
	.cfi_endproc
.LFE30:
	.size	_ZN6Kernel16InterruptManager8remapPicEv, .-_ZN6Kernel16InterruptManager8remapPicEv
	.align 2
	.globl	_ZN6Kernel16InterruptManager8setupIdtEv
	.type	_ZN6Kernel16InterruptManager8setupIdtEv, @function
_ZN6Kernel16InterruptManager8setupIdtEv:
.LFB28:
	.loc 1 62 5 is_stmt 1 view -0
	.cfi_startproc
	pushq	%rbp
	.cfi_def_cfa_offset 16
	.cfi_offset 6, -16
	movq	%rsp, %rbp
	.cfi_def_cfa_register 6
	.loc 1 63 9 view .LVU62
	.loc 1 63 17 is_stmt 0 view .LVU63
	call	_ZN6Kernel16InterruptManager8remapPicEv
.LVL19:
	.loc 1 65 9 is_stmt 1 view .LVU64
	.loc 1 65 19 is_stmt 0 view .LVU65
	movl	$142, %ecx
	movl	$0, %edx
	movq	$isr0, %rsi
	movl	$0, %edi
	call	_ZN6Kernel16InterruptManager10setIdtGateEhPFvvEhh
.LVL20:
	.loc 1 66 9 is_stmt 1 view .LVU66
	.loc 1 66 19 is_stmt 0 view .LVU67
	movl	$142, %ecx
	movl	$0, %edx
	movq	$isr1, %rsi
	movl	$1, %edi
	call	_ZN6Kernel16InterruptManager10setIdtGateEhPFvvEhh
.LVL21:
	.loc 1 67 9 is_stmt 1 view .LVU68
	.loc 1 67 19 is_stmt 0 view .LVU69
	movl	$142, %ecx
	movl	$0, %edx
	movq	$isr2, %rsi
	movl	$2, %edi
	call	_ZN6Kernel16InterruptManager10setIdtGateEhPFvvEhh
.LVL22:
	.loc 1 68 9 is_stmt 1 view .LVU70
	.loc 1 68 19 is_stmt 0 view .LVU71
	movl	$142, %ecx
	movl	$0, %edx
	movq	$isr3, %rsi
	movl	$3, %edi
	call	_ZN6Kernel16InterruptManager10setIdtGateEhPFvvEhh
.LVL23:
	.loc 1 69 9 is_stmt 1 view .LVU72
	.loc 1 69 19 is_stmt 0 view .LVU73
	movl	$142, %ecx
	movl	$0, %edx
	movq	$isr4, %rsi
	movl	$4, %edi
	call	_ZN6Kernel16InterruptManager10setIdtGateEhPFvvEhh
.LVL24:
	.loc 1 70 9 is_stmt 1 view .LVU74
	.loc 1 70 19 is_stmt 0 view .LVU75
	movl	$142, %ecx
	movl	$0, %edx
	movq	$isr5, %rsi
	movl	$5, %edi
	call	_ZN6Kernel16InterruptManager10setIdtGateEhPFvvEhh
.LVL25:
	.loc 1 71 9 is_stmt 1 view .LVU76
	.loc 1 71 19 is_stmt 0 view .LVU77
	movl	$142, %ecx
	movl	$0, %edx
	movq	$isr6, %rsi
	movl	$6, %edi
	call	_ZN6Kernel16InterruptManager10setIdtGateEhPFvvEhh
.LVL26:
	.loc 1 72 9 is_stmt 1 view .LVU78
	.loc 1 72 19 is_stmt 0 view .LVU79
	movl	$142, %ecx
	movl	$0, %edx
	movq	$isr7, %rsi
	movl	$7, %edi
	call	_ZN6Kernel16InterruptManager10setIdtGateEhPFvvEhh
.LVL27:
	.loc 1 73 9 is_stmt 1 view .LVU80
	.loc 1 73 19 is_stmt 0 view .LVU81
	movl	$142, %ecx
	movl	$0, %edx
	movq	$isr8, %rsi
	movl	$8, %edi
	call	_ZN6Kernel16InterruptManager10setIdtGateEhPFvvEhh
.LVL28:
	.loc 1 74 9 is_stmt 1 view .LVU82
	.loc 1 74 19 is_stmt 0 view .LVU83
	movl	$142, %ecx
	movl	$0, %edx
	movq	$isr9, %rsi
	movl	$9, %edi
	call	_ZN6Kernel16InterruptManager10setIdtGateEhPFvvEhh
.LVL29:
	.loc 1 76 9 is_stmt 1 view .LVU84
	.loc 1 76 19 is_stmt 0 view .LVU85
	movl	$142, %ecx
	movl	$0, %edx
	movq	$isr10, %rsi
	movl	$10, %edi
	call	_ZN6Kernel16InterruptManager10setIdtGateEhPFvvEhh
.LVL30:
	.loc 1 77 9 is_stmt 1 view .LVU86
	.loc 1 77 19 is_stmt 0 view .LVU87
	movl	$142, %ecx
	movl	$0, %edx
	movq	$isr11, %rsi
	movl	$11, %edi
	call	_ZN6Kernel16InterruptManager10setIdtGateEhPFvvEhh
.LVL31:
	.loc 1 78 9 is_stmt 1 view .LVU88
	.loc 1 78 19 is_stmt 0 view .LVU89
	movl	$142, %ecx
	movl	$0, %edx
	movq	$isr12, %rsi
	movl	$12, %edi
	call	_ZN6Kernel16InterruptManager10setIdtGateEhPFvvEhh
.LVL32:
	.loc 1 79 9 is_stmt 1 view .LVU90
	.loc 1 79 19 is_stmt 0 view .LVU91
	movl	$142, %ecx
	movl	$0, %edx
	movq	$isr13, %rsi
	movl	$13, %edi
	call	_ZN6Kernel16InterruptManager10setIdtGateEhPFvvEhh
.LVL33:
	.loc 1 80 9 is_stmt 1 view .LVU92
	.loc 1 80 19 is_stmt 0 view .LVU93
	movl	$142, %ecx
	movl	$0, %edx
	movq	$isr14, %rsi
	movl	$14, %edi
	call	_ZN6Kernel16InterruptManager10setIdtGateEhPFvvEhh
.LVL34:
	.loc 1 81 9 is_stmt 1 view .LVU94
	.loc 1 81 19 is_stmt 0 view .LVU95
	movl	$142, %ecx
	movl	$0, %edx
	movq	$isr15, %rsi
	movl	$15, %edi
	call	_ZN6Kernel16InterruptManager10setIdtGateEhPFvvEhh
.LVL35:
	.loc 1 82 9 is_stmt 1 view .LVU96
	.loc 1 82 19 is_stmt 0 view .LVU97
	movl	$142, %ecx
	movl	$0, %edx
	movq	$isr16, %rsi
	movl	$16, %edi
	call	_ZN6Kernel16InterruptManager10setIdtGateEhPFvvEhh
.LVL36:
	.loc 1 83 9 is_stmt 1 view .LVU98
	.loc 1 83 19 is_stmt 0 view .LVU99
	movl	$142, %ecx
	movl	$0, %edx
	movq	$isr17, %rsi
	movl	$17, %edi
	call	_ZN6Kernel16InterruptManager10setIdtGateEhPFvvEhh
.LVL37:
	.loc 1 84 9 is_stmt 1 view .LVU100
	.loc 1 84 19 is_stmt 0 view .LVU101
	movl	$142, %ecx
	movl	$0, %edx
	movq	$isr18, %rsi
	movl	$18, %edi
	call	_ZN6Kernel16InterruptManager10setIdtGateEhPFvvEhh
.LVL38:
	.loc 1 85 9 is_stmt 1 view .LVU102
	.loc 1 85 19 is_stmt 0 view .LVU103
	movl	$142, %ecx
	movl	$0, %edx
	movq	$isr19, %rsi
	movl	$19, %edi
	call	_ZN6Kernel16InterruptManager10setIdtGateEhPFvvEhh
.LVL39:
	.loc 1 87 9 is_stmt 1 view .LVU104
	.loc 1 87 19 is_stmt 0 view .LVU105
	movl	$142, %ecx
	movl	$0, %edx
	movq	$isr20, %rsi
	movl	$20, %edi
	call	_ZN6Kernel16InterruptManager10setIdtGateEhPFvvEhh
.LVL40:
	.loc 1 88 9 is_stmt 1 view .LVU106
	.loc 1 88 19 is_stmt 0 view .LVU107
	movl	$142, %ecx
	movl	$0, %edx
	movq	$isr21, %rsi
	movl	$21, %edi
	call	_ZN6Kernel16InterruptManager10setIdtGateEhPFvvEhh
.LVL41:
	.loc 1 89 9 is_stmt 1 view .LVU108
	.loc 1 89 19 is_stmt 0 view .LVU109
	movl	$142, %ecx
	movl	$0, %edx
	movq	$isr22, %rsi
	movl	$22, %edi
	call	_ZN6Kernel16InterruptManager10setIdtGateEhPFvvEhh
.LVL42:
	.loc 1 90 9 is_stmt 1 view .LVU110
	.loc 1 90 19 is_stmt 0 view .LVU111
	movl	$142, %ecx
	movl	$0, %edx
	movq	$isr23, %rsi
	movl	$23, %edi
	call	_ZN6Kernel16InterruptManager10setIdtGateEhPFvvEhh
.LVL43:
	.loc 1 91 9 is_stmt 1 view .LVU112
	.loc 1 91 19 is_stmt 0 view .LVU113
	movl	$142, %ecx
	movl	$0, %edx
	movq	$isr24, %rsi
	movl	$24, %edi
	call	_ZN6Kernel16InterruptManager10setIdtGateEhPFvvEhh
.LVL44:
	.loc 1 92 9 is_stmt 1 view .LVU114
	.loc 1 92 19 is_stmt 0 view .LVU115
	movl	$142, %ecx
	movl	$0, %edx
	movq	$isr25, %rsi
	movl	$25, %edi
	call	_ZN6Kernel16InterruptManager10setIdtGateEhPFvvEhh
.LVL45:
	.loc 1 93 9 is_stmt 1 view .LVU116
	.loc 1 93 19 is_stmt 0 view .LVU117
	movl	$142, %ecx
	movl	$0, %edx
	movq	$isr26, %rsi
	movl	$26, %edi
	call	_ZN6Kernel16InterruptManager10setIdtGateEhPFvvEhh
.LVL46:
	.loc 1 94 9 is_stmt 1 view .LVU118
	.loc 1 94 19 is_stmt 0 view .LVU119
	movl	$142, %ecx
	movl	$0, %edx
	movq	$isr27, %rsi
	movl	$27, %edi
	call	_ZN6Kernel16InterruptManager10setIdtGateEhPFvvEhh
.LVL47:
	.loc 1 95 9 is_stmt 1 view .LVU120
	.loc 1 95 19 is_stmt 0 view .LVU121
	movl	$142, %ecx
	movl	$0, %edx
	movq	$isr28, %rsi
	movl	$28, %edi
	call	_ZN6Kernel16InterruptManager10setIdtGateEhPFvvEhh
.LVL48:
	.loc 1 96 9 is_stmt 1 view .LVU122
	.loc 1 96 19 is_stmt 0 view .LVU123
	movl	$142, %ecx
	movl	$0, %edx
	movq	$isr29, %rsi
	movl	$29, %edi
	call	_ZN6Kernel16InterruptManager10setIdtGateEhPFvvEhh
.LVL49:
	.loc 1 98 9 is_stmt 1 view .LVU124
	.loc 1 98 19 is_stmt 0 view .LVU125
	movl	$142, %ecx
	movl	$0, %edx
	movq	$isr30, %rsi
	movl	$30, %edi
	call	_ZN6Kernel16InterruptManager10setIdtGateEhPFvvEhh
.LVL50:
	.loc 1 99 9 is_stmt 1 view .LVU126
	.loc 1 99 19 is_stmt 0 view .LVU127
	movl	$142, %ecx
	movl	$0, %edx
	movq	$isr31, %rsi
	movl	$31, %edi
	call	_ZN6Kernel16InterruptManager10setIdtGateEhPFvvEhh
.LVL51:
	.loc 1 101 9 is_stmt 1 view .LVU128
	.loc 1 101 19 is_stmt 0 view .LVU129
	movl	$142, %ecx
	movl	$0, %edx
	movq	$irq0, %rsi
	movl	$32, %edi
	call	_ZN6Kernel16InterruptManager10setIdtGateEhPFvvEhh
.LVL52:
	.loc 1 102 9 is_stmt 1 view .LVU130
	.loc 1 102 19 is_stmt 0 view .LVU131
	movl	$142, %ecx
	movl	$0, %edx
	movq	$irq1, %rsi
	movl	$33, %edi
	call	_ZN6Kernel16InterruptManager10setIdtGateEhPFvvEhh
.LVL53:
	.loc 1 103 9 is_stmt 1 view .LVU132
	.loc 1 103 19 is_stmt 0 view .LVU133
	movl	$142, %ecx
	movl	$0, %edx
	movq	$irq2, %rsi
	movl	$34, %edi
	call	_ZN6Kernel16InterruptManager10setIdtGateEhPFvvEhh
.LVL54:
	.loc 1 104 9 is_stmt 1 view .LVU134
	.loc 1 104 19 is_stmt 0 view .LVU135
	movl	$142, %ecx
	movl	$0, %edx
	movq	$irq3, %rsi
	movl	$35, %edi
	call	_ZN6Kernel16InterruptManager10setIdtGateEhPFvvEhh
.LVL55:
	.loc 1 105 9 is_stmt 1 view .LVU136
	.loc 1 105 19 is_stmt 0 view .LVU137
	movl	$142, %ecx
	movl	$0, %edx
	movq	$irq4, %rsi
	movl	$36, %edi
	call	_ZN6Kernel16InterruptManager10setIdtGateEhPFvvEhh
.LVL56:
	.loc 1 106 9 is_stmt 1 view .LVU138
	.loc 1 106 19 is_stmt 0 view .LVU139
	movl	$142, %ecx
	movl	$0, %edx
	movq	$irq5, %rsi
	movl	$37, %edi
	call	_ZN6Kernel16InterruptManager10setIdtGateEhPFvvEhh
.LVL57:
	.loc 1 107 9 is_stmt 1 view .LVU140
	.loc 1 107 19 is_stmt 0 view .LVU141
	movl	$142, %ecx
	movl	$0, %edx
	movq	$irq6, %rsi
	movl	$38, %edi
	call	_ZN6Kernel16InterruptManager10setIdtGateEhPFvvEhh
.LVL58:
	.loc 1 108 9 is_stmt 1 view .LVU142
	.loc 1 108 19 is_stmt 0 view .LVU143
	movl	$142, %ecx
	movl	$0, %edx
	movq	$irq7, %rsi
	movl	$39, %edi
	call	_ZN6Kernel16InterruptManager10setIdtGateEhPFvvEhh
.LVL59:
	.loc 1 109 9 is_stmt 1 view .LVU144
	.loc 1 109 19 is_stmt 0 view .LVU145
	movl	$142, %ecx
	movl	$0, %edx
	movq	$irq8, %rsi
	movl	$40, %edi
	call	_ZN6Kernel16InterruptManager10setIdtGateEhPFvvEhh
.LVL60:
	.loc 1 110 9 is_stmt 1 view .LVU146
	.loc 1 110 19 is_stmt 0 view .LVU147
	movl	$142, %ecx
	movl	$0, %edx
	movq	$irq9, %rsi
	movl	$41, %edi
	call	_ZN6Kernel16InterruptManager10setIdtGateEhPFvvEhh
.LVL61:
	.loc 1 111 9 is_stmt 1 view .LVU148
	.loc 1 111 19 is_stmt 0 view .LVU149
	movl	$142, %ecx
	movl	$0, %edx
	movq	$irq10, %rsi
	movl	$42, %edi
	call	_ZN6Kernel16InterruptManager10setIdtGateEhPFvvEhh
.LVL62:
	.loc 1 112 9 is_stmt 1 view .LVU150
	.loc 1 112 19 is_stmt 0 view .LVU151
	movl	$142, %ecx
	movl	$0, %edx
	movq	$irq11, %rsi
	movl	$43, %edi
	call	_ZN6Kernel16InterruptManager10setIdtGateEhPFvvEhh
.LVL63:
	.loc 1 113 9 is_stmt 1 view .LVU152
	.loc 1 113 19 is_stmt 0 view .LVU153
	movl	$142, %ecx
	movl	$0, %edx
	movq	$irq12, %rsi
	movl	$44, %edi
	call	_ZN6Kernel16InterruptManager10setIdtGateEhPFvvEhh
.LVL64:
	.loc 1 114 9 is_stmt 1 view .LVU154
	.loc 1 114 19 is_stmt 0 view .LVU155
	movl	$142, %ecx
	movl	$0, %edx
	movq	$irq13, %rsi
	movl	$45, %edi
	call	_ZN6Kernel16InterruptManager10setIdtGateEhPFvvEhh
.LVL65:
	.loc 1 115 9 is_stmt 1 view .LVU156
	.loc 1 115 19 is_stmt 0 view .LVU157
	movl	$142, %ecx
	movl	$0, %edx
	movq	$irq14, %rsi
	movl	$46, %edi
	call	_ZN6Kernel16InterruptManager10setIdtGateEhPFvvEhh
.LVL66:
	.loc 1 116 9 is_stmt 1 view .LVU158
	.loc 1 116 19 is_stmt 0 view .LVU159
	movl	$142, %ecx
	movl	$0, %edx
	movq	$irq15, %rsi
	movl	$47, %edi
	call	_ZN6Kernel16InterruptManager10setIdtGateEhPFvvEhh
.LVL67:
	.loc 1 118 9 is_stmt 1 view .LVU160
	.loc 1 118 16 is_stmt 0 view .LVU161
	call	_ZN6Kernel16InterruptManager7loadIdtEv
.LVL68:
	.loc 1 119 9 is_stmt 1 view .LVU162
/APP
# 119 "src/kernel/InterruptManager.cpp" 1
	sti
# 0 "" 2
	.loc 1 120 5 is_stmt 0 view .LVU163
/NO_APP
	popq	%rbp
	.cfi_restore 6
	.cfi_def_cfa 7, 8
	ret
	.cfi_endproc
.LFE28:
	.size	_ZN6Kernel16InterruptManager8setupIdtEv, .-_ZN6Kernel16InterruptManager8setupIdtEv
	.section	.rodata.str1.8,"aMS",@progbits,1
	.align 8
.LC0:
	.string	"Interrupt Manager : Initialising\n"
	.text
	.align 2
	.globl	_ZN6Kernel16InterruptManager10initializeEv
	.type	_ZN6Kernel16InterruptManager10initializeEv, @function
_ZN6Kernel16InterruptManager10initializeEv:
.LFB31:
	.loc 1 157 5 is_stmt 1 view -0
	.cfi_startproc
	pushq	%rbp
	.cfi_def_cfa_offset 16
	.cfi_offset 6, -16
	movq	%rsp, %rbp
	.cfi_def_cfa_register 6
	pushq	%r14
	pushq	%r13
	pushq	%r12
	pushq	%rbx
	.cfi_offset 14, -24
	.cfi_offset 13, -32
	.cfi_offset 12, -40
	.cfi_offset 3, -48
	.loc 1 158 9 view .LVU165
.LVL69:
.LBB32:
.LBI32:
	.file 2 "src/kernel/../../include/Console.h"
	.loc 2 301 21 view .LVU166
.LBB33:
.LBI33:
	.loc 2 87 21 view .LVU167
.LBB34:
.LBB35:
	.loc 2 90 39 discriminator 1 view .LVU168
	movq	$.LC0+1, %r12
	.loc 2 90 35 is_stmt 0 discriminator 1 view .LVU169
	movl	$73, %ebx
.LBB36:
	.loc 2 92 55 view .LVU170
	movq	$_ZN6Kernel7Console8s_extentE, %r14
	movq	(%r14), %r13
	jmp	.L10
.LVL70:
.L11:
	.loc 2 97 35 view .LVU171
	movq	$0, _ZN6Kernel7Console11s_cursorPosE(%rip)
	.loc 2 98 35 view .LVU172
	movq	_ZN6Kernel7Console11s_cursorPosE+8(%rip), %rax
	.loc 2 98 21 view .LVU173
	addq	$1, %rax
	movq	%rax, _ZN6Kernel7Console11s_cursorPosE+8(%rip)
	.loc 2 99 37 view .LVU174
	movq	_ZN6Kernel7Console11s_cursorPosE+8(%rip), %rax
	.loc 2 99 21 view .LVU175
	cmpq	8(%r14), %rax
	jnb	.L14
.L8:
.LBE36:
	.loc 2 90 13 is_stmt 1 discriminator 2 view .LVU176
.LVL71:
	.loc 2 90 39 discriminator 1 view .LVU177
	addq	$1, %r12
.LVL72:
	.loc 2 90 35 is_stmt 0 discriminator 1 view .LVU178
	movzbl	-1(%r12), %ebx
	.loc 2 90 39 discriminator 1 view .LVU179
	testb	%bl, %bl
	je	.L15
.LVL73:
.L10:
.LBB37:
	.loc 2 92 42 view .LVU180
	movq	_ZN6Kernel7Console11s_cursorPosE+8(%rip), %rdi
	.loc 2 92 75 view .LVU181
	movq	_ZN6Kernel7Console11s_cursorPosE(%rip), %rax
.LVL74:
	.loc 2 93 26 view .LVU182
	movzbl	%bl, %esi
	.loc 2 92 44 view .LVU183
	imulq	%r13, %rdi
.LVL75:
	.loc 2 92 24 view .LVU184
	addq	%rax, %rdi
.LVL76:
	.loc 2 93 26 view .LVU185
	movl	$15, %edx
	call	_ZN6Kernel7Console9writeCharEmhNS0_10AttributesE
.LVL77:
	.loc 2 94 31 view .LVU186
	movq	_ZN6Kernel7Console11s_cursorPosE(%rip), %rax
	.loc 2 94 17 view .LVU187
	addq	$1, %rax
	movq	%rax, _ZN6Kernel7Console11s_cursorPosE(%rip)
	.loc 2 95 33 view .LVU188
	movq	_ZN6Kernel7Console11s_cursorPosE(%rip), %rax
	.loc 2 95 53 discriminator 2 view .LVU189
	cmpq	%r13, %rax
	jnb	.L11
	cmpb	$10, %bl
	je	.L11
	jmp	.L8
.L14:
	.loc 2 100 35 view .LVU190
	movl	$1, %edi
	call	_ZN6Kernel7Console10scrollDownEm
.LVL78:
	jmp	.L8
.LVL79:
.L15:
	.loc 2 100 35 view .LVU191
.LBE37:
.LBE35:
	.loc 2 103 33 view .LVU192
	call	_ZN6Kernel7Console20updateHardwareCursorEv
.LVL80:
	.loc 2 103 33 view .LVU193
.LBE34:
.LBE33:
.LBE32:
	.loc 1 159 9 is_stmt 1 view .LVU194
	.loc 1 159 17 is_stmt 0 view .LVU195
	call	_ZN6Kernel16InterruptManager8setupIdtEv
.LVL81:
	.loc 1 160 5 view .LVU196
	popq	%rbx
	.cfi_restore 3
	popq	%r12
	.cfi_restore 12
	popq	%r13
	.cfi_restore 13
	popq	%r14
	.cfi_restore 14
	popq	%rbp
	.cfi_restore 6
	.cfi_def_cfa 7, 8
	ret
	.cfi_endproc
.LFE31:
	.size	_ZN6Kernel16InterruptManager10initializeEv, .-_ZN6Kernel16InterruptManager10initializeEv
	.align 2
	.globl	_ZN6Kernel16InterruptManager25registerInterruptCallbackEhPFvRNS_14InterruptFrameEE
	.type	_ZN6Kernel16InterruptManager25registerInterruptCallbackEhPFvRNS_14InterruptFrameEE, @function
_ZN6Kernel16InterruptManager25registerInterruptCallbackEhPFvRNS_14InterruptFrameEE:
.LVL82:
.LFB34:
	.loc 1 191 5 is_stmt 1 view -0
	.cfi_startproc
	.loc 1 192 9 view .LVU198
	.loc 1 192 36 is_stmt 0 view .LVU199
	movzbl	%dil, %edi
	.loc 1 192 36 view .LVU200
	movq	%rsi, _ZN6Kernel16InterruptManager19s_interruptHandlersE(,%rdi,8)
	.loc 1 193 5 view .LVU201
	ret
	.cfi_endproc
.LFE34:
	.size	_ZN6Kernel16InterruptManager25registerInterruptCallbackEhPFvRNS_14InterruptFrameEE, .-_ZN6Kernel16InterruptManager25registerInterruptCallbackEhPFvRNS_14InterruptFrameEE
	.align 2
	.globl	_ZN6Kernel16InterruptManager25registerInterruptCallbackENS0_15InterruptVectorEPFvRNS_14InterruptFrameEE
	.type	_ZN6Kernel16InterruptManager25registerInterruptCallbackENS0_15InterruptVectorEPFvRNS_14InterruptFrameEE, @function
_ZN6Kernel16InterruptManager25registerInterruptCallbackENS0_15InterruptVectorEPFvRNS_14InterruptFrameEE:
.LVL83:
.LFB35:
	.loc 1 196 5 is_stmt 1 view -0
	.cfi_startproc
	.loc 1 197 9 view .LVU203
	.loc 1 197 62 is_stmt 0 view .LVU204
	movzbl	%dil, %edi
	.loc 1 197 62 view .LVU205
	movq	%rsi, _ZN6Kernel16InterruptManager19s_interruptHandlersE(,%rdi,8)
	.loc 1 198 5 view .LVU206
	ret
	.cfi_endproc
.LFE35:
	.size	_ZN6Kernel16InterruptManager25registerInterruptCallbackENS0_15InterruptVectorEPFvRNS_14InterruptFrameEE, .-_ZN6Kernel16InterruptManager25registerInterruptCallbackENS0_15InterruptVectorEPFvRNS_14InterruptFrameEE
	.globl	isr_handler
	.type	isr_handler, @function
isr_handler:
.LVL84:
.LFB36:
	.loc 1 203 1 is_stmt 1 view -0
	.cfi_startproc
	.loc 1 203 1 is_stmt 0 view .LVU208
	pushq	%rbp
	.cfi_def_cfa_offset 16
	.cfi_offset 6, -16
	movq	%rsp, %rbp
	.cfi_def_cfa_register 6
	.loc 1 204 5 is_stmt 1 view .LVU209
.LVL85:
.LBB38:
.LBI38:
	.loc 1 162 17 view .LVU210
.LBB39:
	.loc 1 164 9 view .LVU211
	.loc 1 164 35 is_stmt 0 view .LVU212
	movq	120(%rdi), %rax
	.loc 1 164 51 view .LVU213
	movq	_ZN6Kernel16InterruptManager19s_interruptHandlersE(,%rax,8), %rax
	.loc 1 164 52 view .LVU214
	call	*%rax
.LVL86:
	.loc 1 164 52 view .LVU215
.LBE39:
.LBE38:
	.loc 1 205 5 is_stmt 1 view .LVU216
/APP
# 205 "src/kernel/InterruptManager.cpp" 1
	cli 
 hlt
# 0 "" 2
	.loc 1 206 1 is_stmt 0 view .LVU217
/NO_APP
	popq	%rbp
	.cfi_restore 6
	.cfi_def_cfa 7, 8
	ret
	.cfi_endproc
.LFE36:
	.size	isr_handler, .-isr_handler
	.globl	irq_handler
	.type	irq_handler, @function
irq_handler:
.LVL87:
.LFB37:
	.loc 1 209 1 is_stmt 1 view -0
	.cfi_startproc
	.loc 1 209 1 is_stmt 0 view .LVU219
	pushq	%rbp
	.cfi_def_cfa_offset 16
	.cfi_offset 6, -16
	movq	%rsp, %rbp
	.cfi_def_cfa_register 6
	pushq	%rbx
	subq	$8, %rsp
	.cfi_offset 3, -24
	movq	%rdi, %rbx
	.loc 1 210 5 is_stmt 1 view .LVU220
.LVL88:
.LBB40:
.LBI40:
	.loc 1 162 17 view .LVU221
.LBB41:
	.loc 1 164 9 view .LVU222
	.loc 1 164 35 is_stmt 0 view .LVU223
	movq	120(%rdi), %rax
	.loc 1 164 51 view .LVU224
	movq	_ZN6Kernel16InterruptManager19s_interruptHandlersE(,%rax,8), %rax
	.loc 1 164 52 view .LVU225
	call	*%rax
.LVL89:
	.loc 1 164 52 view .LVU226
.LBE41:
.LBE40:
	.loc 1 211 5 is_stmt 1 view .LVU227
	cmpq	$39, 120(%rbx)
	ja	.L23
.L21:
	.loc 1 215 5 view .LVU228
	.loc 1 215 20 is_stmt 0 view .LVU229
	movl	$32, %esi
	movl	$32, %edi
	call	_ZN6Kernel7outByteEth
.LVL90:
	.loc 1 216 1 view .LVU230
	movq	-8(%rbp), %rbx
.LVL91:
	.loc 1 216 1 view .LVU231
	leave
	.cfi_remember_state
	.cfi_restore 6
	.cfi_restore 3
	.cfi_def_cfa 7, 8
	ret
.LVL92:
.L23:
	.cfi_restore_state
	.loc 1 213 9 is_stmt 1 view .LVU232
	.loc 1 213 24 is_stmt 0 view .LVU233
	movl	$32, %esi
	movl	$160, %edi
	call	_ZN6Kernel7outByteEth
.LVL93:
	jmp	.L21
	.cfi_endproc
.LFE37:
	.size	irq_handler, .-irq_handler
	.section	.rodata._ZN6Kernel7Console9printImplIRPVKcJEEEvPKcNS0_10AttributesEOT_DpOT0_.str1.1,"aMS",@progbits,1
.LC1:
	.string	"0x"
.LC2:
	.string	"0123456789ABCDEF"
	.section	.text._ZN6Kernel7Console9printImplIRPVKcJEEEvPKcNS0_10AttributesEOT_DpOT0_,"axG",@progbits,_ZN6Kernel7Console9printImplIRPVKcJEEEvPKcNS0_10AttributesEOT_DpOT0_,comdat
	.weak	_ZN6Kernel7Console9printImplIRPVKcJEEEvPKcNS0_10AttributesEOT_DpOT0_
	.type	_ZN6Kernel7Console9printImplIRPVKcJEEEvPKcNS0_10AttributesEOT_DpOT0_, @function
_ZN6Kernel7Console9printImplIRPVKcJEEEvPKcNS0_10AttributesEOT_DpOT0_:
.LVL94:
.LFB42:
	.loc 2 197 21 is_stmt 1 view -0
	.cfi_startproc
	.loc 2 197 21 is_stmt 0 view .LVU235
	pushq	%rbp
	.cfi_def_cfa_offset 16
	.cfi_offset 6, -16
	movq	%rsp, %rbp
	.cfi_def_cfa_register 6
	pushq	%r15
	pushq	%r14
	pushq	%r13
	pushq	%r12
	pushq	%rbx
	subq	$40, %rsp
	.cfi_offset 15, -24
	.cfi_offset 14, -32
	.cfi_offset 13, -40
	.cfi_offset 12, -48
	.cfi_offset 3, -56
	movq	%rdi, %rbx
	movq	%rdx, %r13
	movl	%esi, %r12d
	.loc 2 199 13 is_stmt 1 view .LVU236
	movzbl	(%rdi), %edi
.LVL95:
	.loc 2 199 13 is_stmt 0 view .LVU237
	testb	%dil, %dil
	jne	.L50
	jmp	.L24
.LVL96:
.L64:
	.loc 2 205 32 view .LVU238
	movl	%r12d, %esi
	movl	$37, %edi
	call	_ZN6Kernel7Console7putCharEhNS0_10AttributesE
.LVL97:
	.loc 2 206 25 view .LVU239
	addq	$2, %rbx
.LVL98:
	.loc 2 207 25 view .LVU240
	jmp	.L28
.LVL99:
.L34:
	.loc 2 218 36 view .LVU241
	movl	%r12d, %esi
	movl	$37, %edi
	call	_ZN6Kernel7Console7putCharEhNS0_10AttributesE
.LVL100:
	.loc 2 219 36 view .LVU242
	movzbl	1(%rbx), %edi
	movl	%r12d, %esi
	call	_ZN6Kernel7Console7putCharEhNS0_10AttributesE
.LVL101:
.L37:
.LBB52:
.LBB53:
.LBB54:
	.loc 2 90 39 is_stmt 1 discriminator 1 view .LVU243
	.loc 2 90 35 is_stmt 0 discriminator 1 view .LVU244
	leaq	2(%rbx), %r13
	movzbl	2(%rbx), %esi
	.loc 2 90 39 discriminator 1 view .LVU245
	testb	%sil, %sil
	je	.L39
.LBB55:
	.loc 2 92 55 view .LVU246
	movq	$_ZN6Kernel7Console8s_extentE, %r14
	movq	(%r14), %rbx
	jmp	.L38
.LVL102:
.L36:
	.loc 2 92 55 view .LVU247
.LBE55:
.LBE54:
.LBE53:
.LBE52:
	.loc 2 229 36 view .LVU248
	movl	%r12d, %esi
	movl	$37, %edi
	call	_ZN6Kernel7Console7putCharEhNS0_10AttributesE
.LVL103:
	.loc 2 230 36 view .LVU249
	movzbl	1(%rbx), %edi
	movl	%r12d, %esi
	call	_ZN6Kernel7Console7putCharEhNS0_10AttributesE
.LVL104:
	.loc 2 232 25 view .LVU250
	jmp	.L37
.L30:
	.loc 2 240 36 view .LVU251
	movl	%r12d, %esi
	movl	$37, %edi
	call	_ZN6Kernel7Console7putCharEhNS0_10AttributesE
.LVL105:
	.loc 2 241 36 view .LVU252
	movzbl	1(%rbx), %edi
	movl	%r12d, %esi
	call	_ZN6Kernel7Console7putCharEhNS0_10AttributesE
.LVL106:
	.loc 2 243 25 view .LVU253
	jmp	.L37
.L35:
	.loc 2 251 36 view .LVU254
	movl	%r12d, %esi
	movl	$37, %edi
	call	_ZN6Kernel7Console7putCharEhNS0_10AttributesE
.LVL107:
	.loc 2 252 36 view .LVU255
	movzbl	1(%rbx), %edi
	movl	%r12d, %esi
	call	_ZN6Kernel7Console7putCharEhNS0_10AttributesE
.LVL108:
	.loc 2 254 25 view .LVU256
	jmp	.L37
.L33:
	.loc 2 258 38 view .LVU257
	movq	0(%r13), %r13
.LVL109:
.LBB60:
.LBI60:
	.loc 2 172 21 is_stmt 1 view .LVU258
.LBB61:
.LBB62:
.LBI62:
	.loc 2 87 21 view .LVU259
.LBB63:
.LBB64:
	.loc 2 90 39 discriminator 1 view .LVU260
	movq	$.LC1+1, %r15
	.loc 2 90 35 is_stmt 0 discriminator 1 view .LVU261
	movl	$48, %r14d
.LBB65:
	.loc 2 92 55 view .LVU262
	movq	$_ZN6Kernel7Console8s_extentE, %rax
	movq	(%rax), %rax
	movq	%rax, -56(%rbp)
	jmp	.L42
.LVL110:
.L53:
	.loc 2 97 35 view .LVU263
	movq	$0, _ZN6Kernel7Console11s_cursorPosE(%rip)
	.loc 2 98 35 view .LVU264
	movq	_ZN6Kernel7Console11s_cursorPosE+8(%rip), %rax
	.loc 2 98 21 view .LVU265
	addq	$1, %rax
	movq	%rax, _ZN6Kernel7Console11s_cursorPosE+8(%rip)
	.loc 2 99 37 view .LVU266
	movq	_ZN6Kernel7Console11s_cursorPosE+8(%rip), %rax
	.loc 2 99 21 view .LVU267
	movq	$_ZN6Kernel7Console8s_extentE, %rcx
	cmpq	8(%rcx), %rax
	jnb	.L60
.L40:
.LBE65:
	.loc 2 90 13 is_stmt 1 discriminator 2 view .LVU268
.LVL111:
	.loc 2 90 39 discriminator 1 view .LVU269
	addq	$1, %r15
.LVL112:
	.loc 2 90 35 is_stmt 0 discriminator 1 view .LVU270
	movzbl	-1(%r15), %r14d
	.loc 2 90 39 discriminator 1 view .LVU271
	testb	%r14b, %r14b
	je	.L61
.LVL113:
.L42:
.LBB66:
	.loc 2 92 42 view .LVU272
	movq	_ZN6Kernel7Console11s_cursorPosE+8(%rip), %rdi
	.loc 2 92 75 view .LVU273
	movq	_ZN6Kernel7Console11s_cursorPosE(%rip), %rax
.LVL114:
	.loc 2 93 26 view .LVU274
	movzbl	%r14b, %esi
	.loc 2 92 44 view .LVU275
	movq	-56(%rbp), %rcx
	imulq	%rcx, %rdi
.LVL115:
	.loc 2 92 24 view .LVU276
	addq	%rax, %rdi
.LVL116:
	.loc 2 93 26 view .LVU277
	movl	%r12d, %edx
	call	_ZN6Kernel7Console9writeCharEmhNS0_10AttributesE
.LVL117:
	.loc 2 94 31 view .LVU278
	movq	_ZN6Kernel7Console11s_cursorPosE(%rip), %rax
	.loc 2 94 17 view .LVU279
	addq	$1, %rax
	movq	%rax, _ZN6Kernel7Console11s_cursorPosE(%rip)
	.loc 2 95 33 view .LVU280
	movq	_ZN6Kernel7Console11s_cursorPosE(%rip), %rax
	.loc 2 95 53 discriminator 2 view .LVU281
	movq	-56(%rbp), %rcx
	cmpq	%rcx, %rax
	jnb	.L53
	cmpb	$10, %r14b
	je	.L53
	jmp	.L40
.L60:
	.loc 2 100 35 view .LVU282
	movl	$1, %edi
	call	_ZN6Kernel7Console10scrollDownEm
.LVL118:
	jmp	.L40
.LVL119:
.L61:
	.loc 2 100 35 view .LVU283
.LBE66:
.LBE64:
	.loc 2 103 33 view .LVU284
	call	_ZN6Kernel7Console20updateHardwareCursorEv
.LVL120:
	.loc 2 103 33 view .LVU285
.LBE63:
.LBE62:
	.loc 2 176 38 view .LVU286
	movq	_ZN6Kernel7Console11s_cursorPosE+8(%rip), %rax
	.loc 2 176 71 view .LVU287
	movq	_ZN6Kernel7Console11s_cursorPosE(%rip), %rdx
	.loc 2 176 40 view .LVU288
	movq	-56(%rbp), %rcx
	imulq	%rcx, %rax
	.loc 2 176 20 view .LVU289
	addq	%rdx, %rax
	movq	%rax, -72(%rbp)
.LVL121:
	.loc 2 179 22 is_stmt 1 discriminator 1 view .LVU290
	.loc 2 181 17 is_stmt 0 view .LVU291
	movq	%r13, %r15
	shrq	$60, %r15
	jne	.L62
.LVL122:
.L44:
	.loc 2 183 21 view .LVU292
	salq	$4, %r13
.LVL123:
	.loc 2 179 13 is_stmt 1 view .LVU293
	addq	$1, %r15
.LVL124:
	.loc 2 179 22 discriminator 1 view .LVU294
	cmpq	$16, %r15
	je	.L46
	.loc 2 181 17 is_stmt 0 view .LVU295
	movq	%r13, %rax
	shrq	$60, %rax
	je	.L44
	movq	%r15, %r14
.LVL125:
.L43:
	.loc 2 185 22 is_stmt 1 discriminator 1 view .LVU296
	.loc 2 185 22 is_stmt 0 discriminator 1 view .LVU297
	movq	-72(%rbp), %rax
	addq	%rax, %r14
.LVL126:
	.loc 2 185 22 discriminator 1 view .LVU298
	subq	%r15, %r14
	addq	$16, %rax
	subq	%r15, %rax
	movq	%rax, -64(%rbp)
.LVL127:
.L47:
	.loc 2 187 69 view .LVU299
	movq	%r13, %rax
	shrq	$60, %rax
	.loc 2 187 26 view .LVU300
	movzbl	.LC2(%rax), %esi
	movl	%r12d, %edx
	movq	%r14, %rdi
	call	_ZN6Kernel7Console9writeCharEmhNS0_10AttributesE
.LVL128:
	.loc 2 188 21 view .LVU301
	salq	$4, %r13
.LVL129:
	.loc 2 185 13 is_stmt 1 discriminator 2 view .LVU302
	.loc 2 185 22 discriminator 1 view .LVU303
	addq	$1, %r14
.LVL130:
	.loc 2 185 22 is_stmt 0 discriminator 1 view .LVU304
	movq	-64(%rbp), %rax
	cmpq	%rax, %r14
	jne	.L47
.LVL131:
.L46:
	.loc 2 190 43 view .LVU305
	movq	-72(%rbp), %rax
	addq	$16, %rax
	subq	%r15, %rax
	.loc 2 190 55 view .LVU306
	movl	$0, %edx
	divq	-56(%rbp)
	.loc 2 190 27 view .LVU307
	movq	%rdx, _ZN6Kernel7Console11s_cursorPosE(%rip)
	.loc 2 191 27 view .LVU308
	movq	%rax, _ZN6Kernel7Console11s_cursorPosE+8(%rip)
	.loc 2 192 33 view .LVU309
	call	_ZN6Kernel7Console20updateHardwareCursorEv
.LVL132:
	.loc 2 193 9 view .LVU310
	jmp	.L37
.LVL133:
.L32:
	.loc 2 193 9 view .LVU311
.LBE61:
.LBE60:
	.loc 2 274 36 view .LVU312
	movl	%r12d, %esi
	movl	$37, %edi
	call	_ZN6Kernel7Console7putCharEhNS0_10AttributesE
.LVL134:
	.loc 2 275 36 view .LVU313
	movzbl	1(%rbx), %edi
	movl	%r12d, %esi
	call	_ZN6Kernel7Console7putCharEhNS0_10AttributesE
.LVL135:
	.loc 2 277 25 view .LVU314
	jmp	.L37
.L29:
	.loc 2 279 32 view .LVU315
	movl	%r12d, %esi
	movl	$37, %edi
	call	_ZN6Kernel7Console7putCharEhNS0_10AttributesE
.LVL136:
	.loc 2 280 32 view .LVU316
	movzbl	1(%rbx), %edi
	movl	%r12d, %esi
	call	_ZN6Kernel7Console7putCharEhNS0_10AttributesE
.LVL137:
	.loc 2 281 25 view .LVU317
	addq	$2, %rbx
.LVL138:
	.loc 2 282 25 view .LVU318
	jmp	.L28
.LVL139:
.L48:
.LBB68:
.LBB59:
.LBB58:
.LBB56:
	.loc 2 97 35 view .LVU319
	movq	$0, _ZN6Kernel7Console11s_cursorPosE(%rip)
	.loc 2 98 35 view .LVU320
	movq	_ZN6Kernel7Console11s_cursorPosE+8(%rip), %rax
	.loc 2 98 21 view .LVU321
	addq	$1, %rax
	movq	%rax, _ZN6Kernel7Console11s_cursorPosE+8(%rip)
	.loc 2 99 37 view .LVU322
	movq	_ZN6Kernel7Console11s_cursorPosE+8(%rip), %rax
	.loc 2 99 21 view .LVU323
	cmpq	8(%r14), %rax
	jnb	.L63
.L49:
.LBE56:
	.loc 2 90 13 is_stmt 1 discriminator 2 view .LVU324
	.loc 2 90 39 discriminator 1 view .LVU325
	.loc 2 90 35 is_stmt 0 discriminator 1 view .LVU326
	addq	$1, %r13
	movzbl	0(%r13), %esi
	.loc 2 90 39 discriminator 1 view .LVU327
	testb	%sil, %sil
	je	.L39
.LVL140:
.L38:
.LBB57:
	.loc 2 92 42 view .LVU328
	movq	_ZN6Kernel7Console11s_cursorPosE+8(%rip), %rdi
	.loc 2 92 75 view .LVU329
	movq	_ZN6Kernel7Console11s_cursorPosE(%rip), %rax
.LVL141:
	.loc 2 93 26 view .LVU330
	movzbl	%sil, %esi
	.loc 2 92 44 view .LVU331
	imulq	%rbx, %rdi
.LVL142:
	.loc 2 92 24 view .LVU332
	addq	%rax, %rdi
.LVL143:
	.loc 2 93 26 view .LVU333
	movl	%r12d, %edx
	call	_ZN6Kernel7Console9writeCharEmhNS0_10AttributesE
.LVL144:
	.loc 2 94 31 view .LVU334
	movq	_ZN6Kernel7Console11s_cursorPosE(%rip), %rax
	.loc 2 94 17 view .LVU335
	addq	$1, %rax
	movq	%rax, _ZN6Kernel7Console11s_cursorPosE(%rip)
	.loc 2 95 33 view .LVU336
	movq	_ZN6Kernel7Console11s_cursorPosE(%rip), %rax
	.loc 2 95 53 view .LVU337
	cmpq	%rbx, %rax
	jnb	.L48
	.loc 2 95 53 discriminator 2 view .LVU338
	cmpb	$10, 0(%r13)
	jne	.L49
	jmp	.L48
.L63:
	.loc 2 100 35 view .LVU339
	movl	$1, %edi
	call	_ZN6Kernel7Console10scrollDownEm
.LVL145:
	jmp	.L49
.LVL146:
.L39:
	.loc 2 100 35 view .LVU340
.LBE57:
.LBE58:
	.loc 2 103 33 view .LVU341
	call	_ZN6Kernel7Console20updateHardwareCursorEv
.LVL147:
.L24:
.LBE59:
.LBE68:
	.loc 2 297 9 view .LVU342
	addq	$40, %rsp
	popq	%rbx
	.cfi_remember_state
	.cfi_restore 3
	popq	%r12
	.cfi_restore 12
.LVL148:
	.loc 2 297 9 view .LVU343
	popq	%r13
	.cfi_restore 13
	popq	%r14
	.cfi_restore 14
	popq	%r15
	.cfi_restore 15
	popq	%rbp
	.cfi_restore 6
	.cfi_def_cfa 7, 8
	ret
.LVL149:
.L26:
	.cfi_restore_state
	.loc 2 293 28 view .LVU344
	movzbl	%dil, %edi
	movl	%r12d, %esi
	call	_ZN6Kernel7Console7putCharEhNS0_10AttributesE
.LVL150:
	.loc 2 295 17 view .LVU345
	addq	$1, %rbx
.LVL151:
.L28:
	.loc 2 199 13 is_stmt 1 view .LVU346
	movzbl	(%rbx), %edi
	testb	%dil, %dil
	je	.L24
.L50:
	.loc 2 201 17 is_stmt 0 view .LVU347
	cmpb	$37, %dil
	jne	.L26
	.loc 2 201 33 discriminator 1 view .LVU348
	movzbl	1(%rbx), %eax
	testb	%al, %al
	je	.L26
.LVL152:
	.loc 2 203 21 view .LVU349
	cmpb	$37, %al
	je	.L64
	.loc 2 209 21 view .LVU350
	subl	$98, %eax
	cmpb	$22, %al
	ja	.L29
	movzbl	%al, %eax
	jmp	*.L31(,%rax,8)
	.section	.rodata._ZN6Kernel7Console9printImplIRPVKcJEEEvPKcNS0_10AttributesEOT_DpOT0_,"aG",@progbits,_ZN6Kernel7Console9printImplIRPVKcJEEEvPKcNS0_10AttributesEOT_DpOT0_,comdat
	.align 8
	.align 4
.L31:
	.quad	.L36
	.quad	.L35
	.quad	.L34
	.quad	.L29
	.quad	.L29
	.quad	.L29
	.quad	.L29
	.quad	.L29
	.quad	.L29
	.quad	.L29
	.quad	.L29
	.quad	.L29
	.quad	.L29
	.quad	.L29
	.quad	.L33
	.quad	.L29
	.quad	.L29
	.quad	.L32
	.quad	.L29
	.quad	.L29
	.quad	.L29
	.quad	.L29
	.quad	.L30
	.section	.text._ZN6Kernel7Console9printImplIRPVKcJEEEvPKcNS0_10AttributesEOT_DpOT0_,"axG",@progbits,_ZN6Kernel7Console9printImplIRPVKcJEEEvPKcNS0_10AttributesEOT_DpOT0_,comdat
.LVL153:
.L62:
.LBB69:
.LBB67:
	.loc 2 178 20 view .LVU351
	movl	$0, %r15d
	.loc 2 177 20 view .LVU352
	movl	$0, %r14d
	jmp	.L43
.LBE67:
.LBE69:
	.cfi_endproc
.LFE42:
	.size	_ZN6Kernel7Console9printImplIRPVKcJEEEvPKcNS0_10AttributesEOT_DpOT0_, .-_ZN6Kernel7Console9printImplIRPVKcJEEEvPKcNS0_10AttributesEOT_DpOT0_
	.section	.rodata._ZN6Kernel7Console9printImplIRyJEEEvPKcNS0_10AttributesEOT_DpOT0_.str1.1,"aMS",@progbits,1
.LC3:
	.string	"0b"
	.section	.text._ZN6Kernel7Console9printImplIRyJEEEvPKcNS0_10AttributesEOT_DpOT0_,"axG",@progbits,_ZN6Kernel7Console9printImplIRyJEEEvPKcNS0_10AttributesEOT_DpOT0_,comdat
	.weak	_ZN6Kernel7Console9printImplIRyJEEEvPKcNS0_10AttributesEOT_DpOT0_
	.type	_ZN6Kernel7Console9printImplIRyJEEEvPKcNS0_10AttributesEOT_DpOT0_, @function
_ZN6Kernel7Console9printImplIRyJEEEvPKcNS0_10AttributesEOT_DpOT0_:
.LVL154:
.LFB43:
	.loc 2 197 21 is_stmt 1 view -0
	.cfi_startproc
	.loc 2 197 21 is_stmt 0 view .LVU354
	pushq	%rbp
	.cfi_def_cfa_offset 16
	.cfi_offset 6, -16
	movq	%rsp, %rbp
	.cfi_def_cfa_register 6
	pushq	%r15
	pushq	%r14
	pushq	%r13
	pushq	%r12
	pushq	%rbx
	subq	$40, %rsp
	.cfi_offset 15, -24
	.cfi_offset 14, -32
	.cfi_offset 13, -40
	.cfi_offset 12, -48
	.cfi_offset 3, -56
	movq	%rdi, %r12
	movq	%rdx, %r13
	movl	%esi, %ebx
	.loc 2 199 13 is_stmt 1 view .LVU355
	movzbl	(%rdi), %edi
.LVL155:
	.loc 2 199 13 is_stmt 0 view .LVU356
	testb	%dil, %dil
	jne	.L103
	jmp	.L65
.LVL156:
.L128:
	.loc 2 205 32 view .LVU357
	movl	%ebx, %esi
	movl	$37, %edi
	call	_ZN6Kernel7Console7putCharEhNS0_10AttributesE
.LVL157:
	.loc 2 206 25 view .LVU358
	addq	$2, %r12
.LVL158:
	.loc 2 207 25 view .LVU359
	jmp	.L69
.LVL159:
.L75:
	.loc 2 214 38 view .LVU360
	movq	0(%r13), %r14
.LVL160:
.LBB89:
.LBI89:
	.loc 2 131 21 is_stmt 1 view .LVU361
.LBB90:
	.loc 2 133 13 is_stmt 0 view .LVU362
	testq	%r14, %r14
	je	.L120
	.loc 2 138 38 view .LVU363
	movq	_ZN6Kernel7Console11s_cursorPosE+8(%rip), %rax
	.loc 2 138 71 view .LVU364
	movq	_ZN6Kernel7Console11s_cursorPosE(%rip), %rdx
	.loc 2 138 40 view .LVU365
	imulq	_ZN6Kernel7Console8s_extentE(%rip), %rax
	.loc 2 138 20 view .LVU366
	addq	%rdx, %rax
	movq	%rax, -56(%rbp)
.LVL161:
	.loc 2 147 24 is_stmt 1 view .LVU367
	.loc 2 145 20 is_stmt 0 view .LVU368
	movl	$0, %r15d
.LVL162:
.L80:
	.loc 2 149 50 view .LVU369
	movabsq	$-3689348814741910323, %rax
	mulq	%r14
	shrq	$3, %rdx
	movq	%rdx, %r13
	leaq	(%rdx,%rdx,4), %rax
	addq	%rax, %rax
	movq	%r14, %rsi
	subq	%rax, %rsi
	.loc 2 149 44 view .LVU370
	addl	$48, %esi
	.loc 2 149 26 view .LVU371
	movzbl	%sil, %esi
	movq	-56(%rbp), %rax
	leaq	(%rax,%r15), %rdi
	movl	%ebx, %edx
	call	_ZN6Kernel7Console9writeCharEmhNS0_10AttributesE
.LVL163:
	movq	%r14, %rax
	.loc 2 150 21 view .LVU372
	movq	%r13, %r14
.LVL164:
	.loc 2 151 17 view .LVU373
	addq	$1, %r15
.LVL165:
	.loc 2 147 24 is_stmt 1 view .LVU374
	cmpq	$9, %rax
	ja	.L80
.LVL166:
.LBB91:
	.loc 2 156 34 discriminator 1 view .LVU375
	.loc 2 156 42 is_stmt 0 discriminator 1 view .LVU376
	movq	%r15, %r9
	shrq	%r9
	.loc 2 156 34 discriminator 1 view .LVU377
	cmpq	$1, %r15
	jbe	.L81
	movq	-56(%rbp), %rcx
	leaq	(%rcx,%r15), %rax
	leaq	-2(%rax,%rax), %rdx
	addq	%rcx, %rax
	.loc 2 156 25 view .LVU378
	movl	$0, %edi
	.loc 2 160 83 view .LVU379
	leaq	-2(%rax,%rax), %r10
.LVL167:
.L82:
	.loc 2 158 68 view .LVU380
	movq	_ZN6Kernel7Console12s_vgaAddressE(%rip), %rcx
	leaq	(%rcx,%rdx), %rsi
	.loc 2 158 70 view .LVU381
	movzbl	(%rsi), %r11d
.LVL168:
	.loc 2 159 65 view .LVU382
	movzbl	1(%rsi), %r8d
.LVL169:
	.loc 2 160 83 view .LVU383
	movq	%r10, %rax
	subq	%rdx, %rax
	addq	%rax, %rcx
	.loc 2 160 85 view .LVU384
	movzbl	(%rcx), %ecx
	.loc 2 160 61 view .LVU385
	movb	%cl, (%rsi)
	.loc 2 161 78 view .LVU386
	movq	_ZN6Kernel7Console12s_vgaAddressE(%rip), %rcx
	leaq	(%rcx,%rax), %rsi
	.loc 2 161 49 view .LVU387
	addq	%rdx, %rcx
	.loc 2 161 80 view .LVU388
	movzbl	1(%rsi), %esi
	.loc 2 161 56 view .LVU389
	movb	%sil, 1(%rcx)
	.loc 2 162 37 view .LVU390
	movq	%rax, %rcx
	addq	_ZN6Kernel7Console12s_vgaAddressE(%rip), %rcx
	.loc 2 162 49 view .LVU391
	movb	%r11b, (%rcx)
	.loc 2 163 37 view .LVU392
	addq	_ZN6Kernel7Console12s_vgaAddressE(%rip), %rax
	.loc 2 163 44 view .LVU393
	movb	%r8b, 1(%rax)
	.loc 2 156 13 is_stmt 1 discriminator 3 view .LVU394
	addq	$1, %rdi
.LVL170:
	.loc 2 156 34 discriminator 1 view .LVU395
	subq	$2, %rdx
	cmpq	%r9, %rdi
	jb	.L82
.LVL171:
.L81:
	.loc 2 156 34 is_stmt 0 discriminator 1 view .LVU396
.LBE91:
	.loc 2 166 34 view .LVU397
	movq	-56(%rbp), %rax
	addq	%r15, %rax
	.loc 2 166 43 view .LVU398
	movl	$0, %edx
	divq	_ZN6Kernel7Console8s_extentE(%rip)
	.loc 2 166 27 view .LVU399
	movq	%rdx, _ZN6Kernel7Console11s_cursorPosE(%rip)
	.loc 2 167 27 view .LVU400
	movq	%rax, _ZN6Kernel7Console11s_cursorPosE+8(%rip)
	.loc 2 168 33 view .LVU401
	call	_ZN6Kernel7Console20updateHardwareCursorEv
.LVL172:
	jmp	.L79
.LVL173:
.L120:
	.loc 2 135 24 view .LVU402
	movl	%ebx, %esi
	movl	$48, %edi
	call	_ZN6Kernel7Console7putCharEhNS0_10AttributesE
.LVL174:
	jmp	.L79
.LVL175:
.L77:
	.loc 2 135 24 view .LVU403
.LBE90:
.LBE89:
	.loc 2 225 38 view .LVU404
	movq	0(%r13), %r13
.LVL176:
.LBB92:
.LBI92:
	.loc 2 107 21 is_stmt 1 view .LVU405
.LBB93:
.LBB94:
.LBI94:
	.loc 2 87 21 view .LVU406
.LBB95:
.LBB96:
	.loc 2 90 39 discriminator 1 view .LVU407
	movq	$.LC3+1, %r15
	.loc 2 90 35 is_stmt 0 discriminator 1 view .LVU408
	movl	$48, %r14d
.LBB97:
	.loc 2 92 55 view .LVU409
	movq	$_ZN6Kernel7Console8s_extentE, %rax
	movq	(%rax), %rax
	movq	%rax, -56(%rbp)
	jmp	.L85
.LVL177:
.L108:
	.loc 2 97 35 view .LVU410
	movq	$0, _ZN6Kernel7Console11s_cursorPosE(%rip)
	.loc 2 98 35 view .LVU411
	movq	_ZN6Kernel7Console11s_cursorPosE+8(%rip), %rax
	.loc 2 98 21 view .LVU412
	addq	$1, %rax
	movq	%rax, _ZN6Kernel7Console11s_cursorPosE+8(%rip)
	.loc 2 99 37 view .LVU413
	movq	_ZN6Kernel7Console11s_cursorPosE+8(%rip), %rax
	.loc 2 99 21 view .LVU414
	movq	$_ZN6Kernel7Console8s_extentE, %rcx
	cmpq	8(%rcx), %rax
	jnb	.L121
.L83:
.LBE97:
	.loc 2 90 13 is_stmt 1 discriminator 2 view .LVU415
.LVL178:
	.loc 2 90 39 discriminator 1 view .LVU416
	addq	$1, %r15
.LVL179:
	.loc 2 90 35 is_stmt 0 discriminator 1 view .LVU417
	movzbl	-1(%r15), %r14d
	.loc 2 90 39 discriminator 1 view .LVU418
	testb	%r14b, %r14b
	je	.L122
.LVL180:
.L85:
.LBB98:
	.loc 2 92 42 view .LVU419
	movq	_ZN6Kernel7Console11s_cursorPosE+8(%rip), %rdi
	.loc 2 92 75 view .LVU420
	movq	_ZN6Kernel7Console11s_cursorPosE(%rip), %rax
.LVL181:
	.loc 2 93 26 view .LVU421
	movzbl	%r14b, %esi
	.loc 2 92 44 view .LVU422
	movq	-56(%rbp), %rcx
	imulq	%rcx, %rdi
.LVL182:
	.loc 2 92 24 view .LVU423
	addq	%rax, %rdi
.LVL183:
	.loc 2 93 26 view .LVU424
	movl	%ebx, %edx
	call	_ZN6Kernel7Console9writeCharEmhNS0_10AttributesE
.LVL184:
	.loc 2 94 31 view .LVU425
	movq	_ZN6Kernel7Console11s_cursorPosE(%rip), %rax
	.loc 2 94 17 view .LVU426
	addq	$1, %rax
	movq	%rax, _ZN6Kernel7Console11s_cursorPosE(%rip)
	.loc 2 95 33 view .LVU427
	movq	_ZN6Kernel7Console11s_cursorPosE(%rip), %rax
	.loc 2 95 53 discriminator 2 view .LVU428
	movq	-56(%rbp), %rcx
	cmpq	%rcx, %rax
	jnb	.L108
	cmpb	$10, %r14b
	je	.L108
	jmp	.L83
.L121:
	.loc 2 100 35 view .LVU429
	movl	$1, %edi
	call	_ZN6Kernel7Console10scrollDownEm
.LVL185:
	jmp	.L83
.LVL186:
.L122:
	.loc 2 100 35 view .LVU430
.LBE98:
.LBE96:
	.loc 2 103 33 view .LVU431
	call	_ZN6Kernel7Console20updateHardwareCursorEv
.LVL187:
	.loc 2 103 33 view .LVU432
.LBE95:
.LBE94:
	.loc 2 111 38 view .LVU433
	movq	_ZN6Kernel7Console11s_cursorPosE+8(%rip), %rax
	.loc 2 111 71 view .LVU434
	movq	_ZN6Kernel7Console11s_cursorPosE(%rip), %rdx
	.loc 2 111 40 view .LVU435
	movq	-56(%rbp), %rcx
	imulq	%rcx, %rax
	.loc 2 111 20 view .LVU436
	addq	%rdx, %rax
	movq	%rax, -64(%rbp)
.LVL188:
	.loc 2 114 22 is_stmt 1 discriminator 1 view .LVU437
	.loc 2 116 17 is_stmt 0 view .LVU438
	testq	%r13, %r13
	js	.L104
	.loc 2 112 20 view .LVU439
	movl	$0, %r14d
.LVL189:
.L87:
	.loc 2 118 21 view .LVU440
	addq	%r13, %r13
.LVL190:
	.loc 2 114 13 is_stmt 1 view .LVU441
	addq	$1, %r14
.LVL191:
	.loc 2 114 22 discriminator 1 view .LVU442
	cmpq	$64, %r14
	je	.L123
	.loc 2 116 17 is_stmt 0 view .LVU443
	testq	%r13, %r13
	jns	.L87
	movq	%r14, -72(%rbp)
.LVL192:
.L86:
	.loc 2 120 22 is_stmt 1 discriminator 1 view .LVU444
	.loc 2 120 22 is_stmt 0 discriminator 1 view .LVU445
	movq	-64(%rbp), %rax
.LVL193:
	.loc 2 120 22 discriminator 1 view .LVU446
	addq	%rax, %r14
.LVL194:
	.loc 2 120 22 discriminator 1 view .LVU447
	movq	-72(%rbp), %rcx
	subq	%rcx, %r14
	addq	$64, %rax
	subq	%rcx, %rax
	movq	%rax, %r15
.LVL195:
.L90:
	.loc 2 122 56 view .LVU448
	movq	%r13, %rax
	shrq	$63, %rax
	.loc 2 122 26 view .LVU449
	leal	48(%rax), %esi
	movl	%ebx, %edx
	movq	%r14, %rdi
	call	_ZN6Kernel7Console9writeCharEmhNS0_10AttributesE
.LVL196:
	.loc 2 123 21 view .LVU450
	addq	%r13, %r13
.LVL197:
	.loc 2 120 13 is_stmt 1 discriminator 2 view .LVU451
	.loc 2 120 22 discriminator 1 view .LVU452
	addq	$1, %r14
.LVL198:
	.loc 2 120 22 is_stmt 0 discriminator 1 view .LVU453
	cmpq	%r14, %r15
	jne	.L90
.LVL199:
.L89:
	.loc 2 125 43 view .LVU454
	movq	-64(%rbp), %rax
	addq	$64, %rax
	movq	-72(%rbp), %rdx
	subq	%rdx, %rax
	.loc 2 125 51 view .LVU455
	movl	$0, %edx
	divq	-56(%rbp)
	.loc 2 125 27 view .LVU456
	movq	%rdx, _ZN6Kernel7Console11s_cursorPosE(%rip)
	.loc 2 126 27 view .LVU457
	movq	%rax, _ZN6Kernel7Console11s_cursorPosE+8(%rip)
	.loc 2 127 33 view .LVU458
	call	_ZN6Kernel7Console20updateHardwareCursorEv
.LVL200:
.L79:
	.loc 2 127 33 view .LVU459
.LBE93:
.LBE92:
.LBB101:
.LBB102:
.LBB103:
	.loc 2 90 39 is_stmt 1 discriminator 1 view .LVU460
	.loc 2 90 35 is_stmt 0 discriminator 1 view .LVU461
	leaq	2(%r12), %r13
	movzbl	2(%r12), %esi
	.loc 2 90 39 discriminator 1 view .LVU462
	testb	%sil, %sil
	je	.L100
.LBB104:
	.loc 2 92 55 view .LVU463
	movq	$_ZN6Kernel7Console8s_extentE, %r14
	movq	(%r14), %r12
	jmp	.L99
.LVL201:
.L123:
	.loc 2 92 55 view .LVU464
.LBE104:
.LBE103:
.LBE102:
.LBE101:
.LBB109:
.LBB99:
	movq	%r14, -72(%rbp)
	jmp	.L89
.LVL202:
.L71:
	.loc 2 92 55 view .LVU465
.LBE99:
.LBE109:
	.loc 2 236 38 view .LVU466
	movq	0(%r13), %r13
.LVL203:
.LBB110:
.LBI110:
	.loc 2 172 21 is_stmt 1 view .LVU467
.LBB111:
.LBB112:
.LBI112:
	.loc 2 87 21 view .LVU468
.LBB113:
.LBB114:
	.loc 2 90 39 discriminator 1 view .LVU469
	movq	$.LC1+1, %r15
	.loc 2 90 35 is_stmt 0 discriminator 1 view .LVU470
	movl	$48, %r14d
.LBB115:
	.loc 2 92 55 view .LVU471
	movq	$_ZN6Kernel7Console8s_extentE, %rax
	movq	(%rax), %rax
	movq	%rax, -56(%rbp)
	jmp	.L93
.LVL204:
.L109:
	.loc 2 97 35 view .LVU472
	movq	$0, _ZN6Kernel7Console11s_cursorPosE(%rip)
	.loc 2 98 35 view .LVU473
	movq	_ZN6Kernel7Console11s_cursorPosE+8(%rip), %rax
	.loc 2 98 21 view .LVU474
	addq	$1, %rax
	movq	%rax, _ZN6Kernel7Console11s_cursorPosE+8(%rip)
	.loc 2 99 37 view .LVU475
	movq	_ZN6Kernel7Console11s_cursorPosE+8(%rip), %rax
	.loc 2 99 21 view .LVU476
	movq	$_ZN6Kernel7Console8s_extentE, %rdx
	cmpq	8(%rdx), %rax
	jnb	.L124
.L91:
.LBE115:
	.loc 2 90 13 is_stmt 1 discriminator 2 view .LVU477
.LVL205:
	.loc 2 90 39 discriminator 1 view .LVU478
	addq	$1, %r15
.LVL206:
	.loc 2 90 35 is_stmt 0 discriminator 1 view .LVU479
	movzbl	-1(%r15), %r14d
	.loc 2 90 39 discriminator 1 view .LVU480
	testb	%r14b, %r14b
	je	.L125
.LVL207:
.L93:
.LBB116:
	.loc 2 92 42 view .LVU481
	movq	_ZN6Kernel7Console11s_cursorPosE+8(%rip), %rdi
	.loc 2 92 75 view .LVU482
	movq	_ZN6Kernel7Console11s_cursorPosE(%rip), %rax
.LVL208:
	.loc 2 93 26 view .LVU483
	movzbl	%r14b, %esi
	.loc 2 92 44 view .LVU484
	movq	-56(%rbp), %rcx
	imulq	%rcx, %rdi
.LVL209:
	.loc 2 92 24 view .LVU485
	addq	%rax, %rdi
.LVL210:
	.loc 2 93 26 view .LVU486
	movl	%ebx, %edx
	call	_ZN6Kernel7Console9writeCharEmhNS0_10AttributesE
.LVL211:
	.loc 2 94 31 view .LVU487
	movq	_ZN6Kernel7Console11s_cursorPosE(%rip), %rax
	.loc 2 94 17 view .LVU488
	addq	$1, %rax
	movq	%rax, _ZN6Kernel7Console11s_cursorPosE(%rip)
	.loc 2 95 33 view .LVU489
	movq	_ZN6Kernel7Console11s_cursorPosE(%rip), %rax
	.loc 2 95 53 discriminator 2 view .LVU490
	movq	-56(%rbp), %rcx
	cmpq	%rcx, %rax
	jnb	.L109
	cmpb	$10, %r14b
	je	.L109
	jmp	.L91
.L124:
	.loc 2 100 35 view .LVU491
	movl	$1, %edi
	call	_ZN6Kernel7Console10scrollDownEm
.LVL212:
	jmp	.L91
.LVL213:
.L125:
	.loc 2 100 35 view .LVU492
.LBE116:
.LBE114:
	.loc 2 103 33 view .LVU493
	call	_ZN6Kernel7Console20updateHardwareCursorEv
.LVL214:
	.loc 2 103 33 view .LVU494
.LBE113:
.LBE112:
	.loc 2 176 38 view .LVU495
	movq	_ZN6Kernel7Console11s_cursorPosE+8(%rip), %rax
	.loc 2 176 71 view .LVU496
	movq	_ZN6Kernel7Console11s_cursorPosE(%rip), %rdx
	.loc 2 176 40 view .LVU497
	movq	-56(%rbp), %rcx
	imulq	%rcx, %rax
	.loc 2 176 20 view .LVU498
	addq	%rdx, %rax
	movq	%rax, -72(%rbp)
.LVL215:
	.loc 2 179 22 is_stmt 1 discriminator 1 view .LVU499
	.loc 2 181 17 is_stmt 0 view .LVU500
	movq	%r13, %r15
	shrq	$60, %r15
	jne	.L126
.LVL216:
.L95:
	.loc 2 183 21 view .LVU501
	salq	$4, %r13
.LVL217:
	.loc 2 179 13 is_stmt 1 view .LVU502
	addq	$1, %r15
.LVL218:
	.loc 2 179 22 discriminator 1 view .LVU503
	cmpq	$16, %r15
	je	.L97
	.loc 2 181 17 is_stmt 0 view .LVU504
	movq	%r13, %rax
	shrq	$60, %rax
	je	.L95
	movq	%r15, %r14
.LVL219:
.L94:
	.loc 2 185 22 is_stmt 1 discriminator 1 view .LVU505
	.loc 2 185 22 is_stmt 0 discriminator 1 view .LVU506
	movq	-72(%rbp), %rax
	addq	%rax, %r14
.LVL220:
	.loc 2 185 22 discriminator 1 view .LVU507
	subq	%r15, %r14
	addq	$16, %rax
	subq	%r15, %rax
	movq	%rax, -64(%rbp)
.LVL221:
.L98:
	.loc 2 187 69 view .LVU508
	movq	%r13, %rax
	shrq	$60, %rax
	.loc 2 187 26 view .LVU509
	movzbl	.LC2(%rax), %esi
	movl	%ebx, %edx
	movq	%r14, %rdi
	call	_ZN6Kernel7Console9writeCharEmhNS0_10AttributesE
.LVL222:
	.loc 2 188 21 view .LVU510
	salq	$4, %r13
.LVL223:
	.loc 2 185 13 is_stmt 1 discriminator 2 view .LVU511
	.loc 2 185 22 discriminator 1 view .LVU512
	addq	$1, %r14
.LVL224:
	.loc 2 185 22 is_stmt 0 discriminator 1 view .LVU513
	movq	-64(%rbp), %rax
	cmpq	%rax, %r14
	jne	.L98
.LVL225:
.L97:
	.loc 2 190 43 view .LVU514
	movq	-72(%rbp), %rax
	addq	$16, %rax
	subq	%r15, %rax
	.loc 2 190 55 view .LVU515
	movl	$0, %edx
	divq	-56(%rbp)
	.loc 2 190 27 view .LVU516
	movq	%rdx, _ZN6Kernel7Console11s_cursorPosE(%rip)
	.loc 2 191 27 view .LVU517
	movq	%rax, _ZN6Kernel7Console11s_cursorPosE+8(%rip)
	.loc 2 192 33 view .LVU518
	call	_ZN6Kernel7Console20updateHardwareCursorEv
.LVL226:
	.loc 2 193 9 view .LVU519
	jmp	.L79
.LVL227:
.L76:
	.loc 2 193 9 view .LVU520
.LBE111:
.LBE110:
	.loc 2 251 36 view .LVU521
	movl	%ebx, %esi
	movl	$37, %edi
	call	_ZN6Kernel7Console7putCharEhNS0_10AttributesE
.LVL228:
	.loc 2 252 36 view .LVU522
	movzbl	1(%r12), %edi
	movl	%ebx, %esi
	call	_ZN6Kernel7Console7putCharEhNS0_10AttributesE
.LVL229:
	.loc 2 254 25 view .LVU523
	jmp	.L79
.L74:
	.loc 2 262 36 view .LVU524
	movl	%ebx, %esi
	movl	$37, %edi
	call	_ZN6Kernel7Console7putCharEhNS0_10AttributesE
.LVL230:
	.loc 2 263 36 view .LVU525
	movzbl	1(%r12), %edi
	movl	%ebx, %esi
	call	_ZN6Kernel7Console7putCharEhNS0_10AttributesE
.LVL231:
	.loc 2 265 25 view .LVU526
	jmp	.L79
.L73:
	.loc 2 274 36 view .LVU527
	movl	%ebx, %esi
	movl	$37, %edi
	call	_ZN6Kernel7Console7putCharEhNS0_10AttributesE
.LVL232:
	.loc 2 275 36 view .LVU528
	movzbl	1(%r12), %edi
	movl	%ebx, %esi
	call	_ZN6Kernel7Console7putCharEhNS0_10AttributesE
.LVL233:
	.loc 2 277 25 view .LVU529
	jmp	.L79
.L70:
	.loc 2 279 32 view .LVU530
	movl	%ebx, %esi
	movl	$37, %edi
	call	_ZN6Kernel7Console7putCharEhNS0_10AttributesE
.LVL234:
	.loc 2 280 32 view .LVU531
	movzbl	1(%r12), %edi
	movl	%ebx, %esi
	call	_ZN6Kernel7Console7putCharEhNS0_10AttributesE
.LVL235:
	.loc 2 281 25 view .LVU532
	addq	$2, %r12
.LVL236:
	.loc 2 282 25 view .LVU533
	jmp	.L69
.LVL237:
.L101:
.LBB118:
.LBB108:
.LBB107:
.LBB105:
	.loc 2 97 35 view .LVU534
	movq	$0, _ZN6Kernel7Console11s_cursorPosE(%rip)
	.loc 2 98 35 view .LVU535
	movq	_ZN6Kernel7Console11s_cursorPosE+8(%rip), %rax
	.loc 2 98 21 view .LVU536
	addq	$1, %rax
	movq	%rax, _ZN6Kernel7Console11s_cursorPosE+8(%rip)
	.loc 2 99 37 view .LVU537
	movq	_ZN6Kernel7Console11s_cursorPosE+8(%rip), %rax
	.loc 2 99 21 view .LVU538
	cmpq	8(%r14), %rax
	jnb	.L127
.L102:
.LBE105:
	.loc 2 90 13 is_stmt 1 discriminator 2 view .LVU539
	.loc 2 90 39 discriminator 1 view .LVU540
	.loc 2 90 35 is_stmt 0 discriminator 1 view .LVU541
	addq	$1, %r13
	movzbl	0(%r13), %esi
	.loc 2 90 39 discriminator 1 view .LVU542
	testb	%sil, %sil
	je	.L100
.LVL238:
.L99:
.LBB106:
	.loc 2 92 42 view .LVU543
	movq	_ZN6Kernel7Console11s_cursorPosE+8(%rip), %rdi
	.loc 2 92 75 view .LVU544
	movq	_ZN6Kernel7Console11s_cursorPosE(%rip), %rax
.LVL239:
	.loc 2 93 26 view .LVU545
	movzbl	%sil, %esi
	.loc 2 92 44 view .LVU546
	imulq	%r12, %rdi
.LVL240:
	.loc 2 92 24 view .LVU547
	addq	%rax, %rdi
.LVL241:
	.loc 2 93 26 view .LVU548
	movl	%ebx, %edx
	call	_ZN6Kernel7Console9writeCharEmhNS0_10AttributesE
.LVL242:
	.loc 2 94 31 view .LVU549
	movq	_ZN6Kernel7Console11s_cursorPosE(%rip), %rax
	.loc 2 94 17 view .LVU550
	addq	$1, %rax
	movq	%rax, _ZN6Kernel7Console11s_cursorPosE(%rip)
	.loc 2 95 33 view .LVU551
	movq	_ZN6Kernel7Console11s_cursorPosE(%rip), %rax
	.loc 2 95 53 view .LVU552
	cmpq	%r12, %rax
	jnb	.L101
	.loc 2 95 53 discriminator 2 view .LVU553
	cmpb	$10, 0(%r13)
	jne	.L102
	jmp	.L101
.L127:
	.loc 2 100 35 view .LVU554
	movl	$1, %edi
	call	_ZN6Kernel7Console10scrollDownEm
.LVL243:
	jmp	.L102
.LVL244:
.L100:
	.loc 2 100 35 view .LVU555
.LBE106:
.LBE107:
	.loc 2 103 33 view .LVU556
	call	_ZN6Kernel7Console20updateHardwareCursorEv
.LVL245:
.L65:
.LBE108:
.LBE118:
	.loc 2 297 9 view .LVU557
	addq	$40, %rsp
	popq	%rbx
	.cfi_remember_state
	.cfi_restore 3
.LVL246:
	.loc 2 297 9 view .LVU558
	popq	%r12
	.cfi_restore 12
	popq	%r13
	.cfi_restore 13
	popq	%r14
	.cfi_restore 14
	popq	%r15
	.cfi_restore 15
	popq	%rbp
	.cfi_restore 6
	.cfi_def_cfa 7, 8
	ret
.LVL247:
.L67:
	.cfi_restore_state
	.loc 2 293 28 view .LVU559
	movzbl	%dil, %edi
	movl	%ebx, %esi
	call	_ZN6Kernel7Console7putCharEhNS0_10AttributesE
.LVL248:
	.loc 2 295 17 view .LVU560
	addq	$1, %r12
.LVL249:
.L69:
	.loc 2 199 13 is_stmt 1 view .LVU561
	movzbl	(%r12), %edi
	testb	%dil, %dil
	je	.L65
.L103:
	.loc 2 201 17 is_stmt 0 view .LVU562
	cmpb	$37, %dil
	jne	.L67
	.loc 2 201 33 discriminator 1 view .LVU563
	movzbl	1(%r12), %eax
	testb	%al, %al
	je	.L67
.LVL250:
	.loc 2 203 21 view .LVU564
	cmpb	$37, %al
	je	.L128
	.loc 2 209 21 view .LVU565
	subl	$98, %eax
	cmpb	$22, %al
	ja	.L70
	movzbl	%al, %eax
	jmp	*.L72(,%rax,8)
	.section	.rodata._ZN6Kernel7Console9printImplIRyJEEEvPKcNS0_10AttributesEOT_DpOT0_,"aG",@progbits,_ZN6Kernel7Console9printImplIRyJEEEvPKcNS0_10AttributesEOT_DpOT0_,comdat
	.align 8
	.align 4
.L72:
	.quad	.L77
	.quad	.L76
	.quad	.L75
	.quad	.L70
	.quad	.L70
	.quad	.L70
	.quad	.L70
	.quad	.L70
	.quad	.L70
	.quad	.L70
	.quad	.L70
	.quad	.L70
	.quad	.L70
	.quad	.L70
	.quad	.L74
	.quad	.L70
	.quad	.L70
	.quad	.L73
	.quad	.L70
	.quad	.L70
	.quad	.L70
	.quad	.L70
	.quad	.L71
	.section	.text._ZN6Kernel7Console9printImplIRyJEEEvPKcNS0_10AttributesEOT_DpOT0_,"axG",@progbits,_ZN6Kernel7Console9printImplIRyJEEEvPKcNS0_10AttributesEOT_DpOT0_,comdat
.LVL251:
.L104:
.LBB119:
.LBB100:
	.loc 2 113 20 view .LVU566
	movq	$0, -72(%rbp)
	.loc 2 112 20 view .LVU567
	movl	$0, %r14d
	jmp	.L86
.LVL252:
.L126:
	.loc 2 112 20 view .LVU568
.LBE100:
.LBE119:
.LBB120:
.LBB117:
	.loc 2 178 20 view .LVU569
	movl	$0, %r15d
	.loc 2 177 20 view .LVU570
	movl	$0, %r14d
	jmp	.L94
.LBE117:
.LBE120:
	.cfi_endproc
.LFE43:
	.size	_ZN6Kernel7Console9printImplIRyJEEEvPKcNS0_10AttributesEOT_DpOT0_, .-_ZN6Kernel7Console9printImplIRyJEEEvPKcNS0_10AttributesEOT_DpOT0_
	.section	.rodata.str1.1,"aMS",@progbits,1
.LC4:
	.string	"Interrupt: %s\n"
.LC5:
	.string	"  RIP: %x\n"
.LC6:
	.string	"  CS:  %x\n"
.LC7:
	.string	"  RFLAGS: %x\n"
.LC8:
	.string	"  RSP: %x\n"
.LC9:
	.string	"  SS:  %x\n"
.LC10:
	.string	"  Error Code: %x\n"
	.text
	.align 2
	.globl	_ZN6Kernel16InterruptManager15handleExceptionERNS_14InterruptFrameE
	.type	_ZN6Kernel16InterruptManager15handleExceptionERNS_14InterruptFrameE, @function
_ZN6Kernel16InterruptManager15handleExceptionERNS_14InterruptFrameE:
.LVL253:
.LFB33:
	.loc 1 179 5 is_stmt 1 view -0
	.cfi_startproc
	.loc 1 179 5 is_stmt 0 view .LVU572
	pushq	%rbp
	.cfi_def_cfa_offset 16
	.cfi_offset 6, -16
	movq	%rsp, %rbp
	.cfi_def_cfa_register 6
	pushq	%rbx
	subq	$24, %rsp
	.cfi_offset 3, -24
	movq	%rdi, %rbx
	.loc 1 180 9 is_stmt 1 view .LVU573
.LVL254:
	.loc 1 180 23 is_stmt 0 view .LVU574
	movq	120(%rdi), %rax
	movq	_ZN6Kernel16InterruptManager19s_exceptionMessagesE(,%rax,8), %rax
	movq	%rax, -24(%rbp)
.LVL255:
.LBB121:
.LBI121:
	.loc 2 314 21 is_stmt 1 view .LVU575
.LBB122:
	.loc 2 322 26 is_stmt 0 view .LVU576
	leaq	-24(%rbp), %rdx
	movl	$4, %esi
	movq	$.LC4, %rdi
.LVL256:
	.loc 2 322 26 view .LVU577
	call	_ZN6Kernel7Console9printImplIRPVKcJEEEvPKcNS0_10AttributesEOT_DpOT0_
.LVL257:
	.loc 2 322 26 view .LVU578
.LBE122:
.LBE121:
	.loc 1 182 9 is_stmt 1 view .LVU579
	.loc 1 182 9 is_stmt 0 view .LVU580
	movq	136(%rbx), %rax
	movq	%rax, -24(%rbp)
.LVL258:
.LBB123:
.LBI123:
	.loc 2 301 21 is_stmt 1 view .LVU581
.LBB124:
	.loc 2 309 26 is_stmt 0 view .LVU582
	leaq	-24(%rbp), %rdx
	movl	$15, %esi
	movq	$.LC5, %rdi
	call	_ZN6Kernel7Console9printImplIRyJEEEvPKcNS0_10AttributesEOT_DpOT0_
.LVL259:
	.loc 2 309 26 view .LVU583
.LBE124:
.LBE123:
	.loc 1 183 9 is_stmt 1 view .LVU584
	.loc 1 183 9 is_stmt 0 view .LVU585
	movq	144(%rbx), %rax
	movq	%rax, -24(%rbp)
.LVL260:
.LBB125:
.LBI125:
	.loc 2 301 21 is_stmt 1 view .LVU586
.LBB126:
	.loc 2 309 26 is_stmt 0 view .LVU587
	leaq	-24(%rbp), %rdx
	movl	$15, %esi
	movq	$.LC6, %rdi
	call	_ZN6Kernel7Console9printImplIRyJEEEvPKcNS0_10AttributesEOT_DpOT0_
.LVL261:
	.loc 2 309 26 view .LVU588
.LBE126:
.LBE125:
	.loc 1 184 9 is_stmt 1 view .LVU589
	.loc 1 184 9 is_stmt 0 view .LVU590
	movq	152(%rbx), %rax
	movq	%rax, -24(%rbp)
.LVL262:
.LBB127:
.LBI127:
	.loc 2 301 21 is_stmt 1 view .LVU591
.LBB128:
	.loc 2 309 26 is_stmt 0 view .LVU592
	leaq	-24(%rbp), %rdx
	movl	$15, %esi
	movq	$.LC7, %rdi
	call	_ZN6Kernel7Console9printImplIRyJEEEvPKcNS0_10AttributesEOT_DpOT0_
.LVL263:
	.loc 2 309 26 view .LVU593
.LBE128:
.LBE127:
	.loc 1 185 9 is_stmt 1 view .LVU594
	.loc 1 185 9 is_stmt 0 view .LVU595
	movq	160(%rbx), %rax
	movq	%rax, -24(%rbp)
.LVL264:
.LBB129:
.LBI129:
	.loc 2 301 21 is_stmt 1 view .LVU596
.LBB130:
	.loc 2 309 26 is_stmt 0 view .LVU597
	leaq	-24(%rbp), %rdx
	movl	$15, %esi
	movq	$.LC8, %rdi
	call	_ZN6Kernel7Console9printImplIRyJEEEvPKcNS0_10AttributesEOT_DpOT0_
.LVL265:
	.loc 2 309 26 view .LVU598
.LBE130:
.LBE129:
	.loc 1 186 9 is_stmt 1 view .LVU599
	.loc 1 186 9 is_stmt 0 view .LVU600
	movq	168(%rbx), %rax
	movq	%rax, -24(%rbp)
.LVL266:
.LBB131:
.LBI131:
	.loc 2 301 21 is_stmt 1 view .LVU601
.LBB132:
	.loc 2 309 26 is_stmt 0 view .LVU602
	leaq	-24(%rbp), %rdx
	movl	$15, %esi
	movq	$.LC9, %rdi
	call	_ZN6Kernel7Console9printImplIRyJEEEvPKcNS0_10AttributesEOT_DpOT0_
.LVL267:
	.loc 2 309 26 view .LVU603
.LBE132:
.LBE131:
	.loc 1 187 9 is_stmt 1 view .LVU604
	.loc 1 187 9 is_stmt 0 view .LVU605
	movq	128(%rbx), %rax
	movq	%rax, -24(%rbp)
.LVL268:
.LBB133:
.LBI133:
	.loc 2 301 21 is_stmt 1 view .LVU606
.LBB134:
	.loc 2 309 26 is_stmt 0 view .LVU607
	leaq	-24(%rbp), %rdx
	movl	$15, %esi
	movq	$.LC10, %rdi
	call	_ZN6Kernel7Console9printImplIRyJEEEvPKcNS0_10AttributesEOT_DpOT0_
.LVL269:
	.loc 2 309 26 view .LVU608
.LBE134:
.LBE133:
	.loc 1 188 5 view .LVU609
	movq	-8(%rbp), %rbx
.LVL270:
	.loc 1 188 5 view .LVU610
	leave
	.cfi_restore 6
	.cfi_restore 3
	.cfi_def_cfa 7, 8
	ret
	.cfi_endproc
.LFE33:
	.size	_ZN6Kernel16InterruptManager15handleExceptionERNS_14InterruptFrameE, .-_ZN6Kernel16InterruptManager15handleExceptionERNS_14InterruptFrameE
	.globl	_ZN6Kernel16InterruptManager19s_interruptHandlersE
	.section	.bss
	.align 32
	.type	_ZN6Kernel16InterruptManager19s_interruptHandlersE, @object
	.size	_ZN6Kernel16InterruptManager19s_interruptHandlersE, 2048
_ZN6Kernel16InterruptManager19s_interruptHandlersE:
	.zero	2048
	.globl	_ZN6Kernel16InterruptManager8s_idtPtrE
	.align 8
	.type	_ZN6Kernel16InterruptManager8s_idtPtrE, @object
	.size	_ZN6Kernel16InterruptManager8s_idtPtrE, 10
_ZN6Kernel16InterruptManager8s_idtPtrE:
	.zero	10
	.globl	_ZN6Kernel16InterruptManager12s_idtEntriesE
	.align 16
	.type	_ZN6Kernel16InterruptManager12s_idtEntriesE, @object
	.size	_ZN6Kernel16InterruptManager12s_idtEntriesE, 4096
_ZN6Kernel16InterruptManager12s_idtEntriesE:
	.zero	4096
	.globl	_ZN6Kernel16InterruptManager19s_exceptionMessagesE
	.section	.rodata.str1.1
.LC11:
	.string	"Division By Zero"
.LC12:
	.string	"Debug"
.LC13:
	.string	"Non Maskable Interrupt"
.LC14:
	.string	"Breakpoint"
.LC15:
	.string	"Into Detected Overflow"
.LC16:
	.string	"Out of Bounds"
.LC17:
	.string	"Invalid Opcode"
.LC18:
	.string	"No Coprocessor"
.LC19:
	.string	"Double Fault"
.LC20:
	.string	"Coprocessor Segment Overrun"
.LC21:
	.string	"Bad TSS"
.LC22:
	.string	"Segment Not Present"
.LC23:
	.string	"Stack Fault"
.LC24:
	.string	"General Protection Fault"
.LC25:
	.string	"Page Fault"
.LC26:
	.string	"Unknown Interrupt"
.LC27:
	.string	"Coprocessor Fault"
.LC28:
	.string	"Alignment Check"
.LC29:
	.string	"Machine Check"
.LC30:
	.string	"Reserved"
	.data
	.align 32
	.type	_ZN6Kernel16InterruptManager19s_exceptionMessagesE, @object
	.size	_ZN6Kernel16InterruptManager19s_exceptionMessagesE, 256
_ZN6Kernel16InterruptManager19s_exceptionMessagesE:
	.quad	.LC11
	.quad	.LC12
	.quad	.LC13
	.quad	.LC14
	.quad	.LC15
	.quad	.LC16
	.quad	.LC17
	.quad	.LC18
	.quad	.LC19
	.quad	.LC20
	.quad	.LC21
	.quad	.LC22
	.quad	.LC23
	.quad	.LC24
	.quad	.LC25
	.quad	.LC26
	.quad	.LC27
	.quad	.LC28
	.quad	.LC29
	.quad	.LC30
	.quad	.LC30
	.quad	.LC30
	.quad	.LC30
	.quad	.LC30
	.quad	.LC30
	.quad	.LC30
	.quad	.LC30
	.quad	.LC30
	.quad	.LC30
	.quad	.LC30
	.quad	.LC30
	.quad	.LC30
	.text
.Letext0:
	.file 3 "src/kernel/../../include/Types.h"
	.file 4 "src/kernel/../../include/InterruptManager.h"
	.file 5 "src/kernel/../../include/Utils.h"