	.file	"kernel.cpp"
	.text
.Ltext0:
	.file 0 "/mnt/a/myOsX64" "src/kernel/kernel.cpp"
	.globl	_Z20handleTimerInterruptRN6Kernel14InterruptFrameE
	.type	_Z20handleTimerInterruptRN6Kernel14InterruptFrameE, @function
_Z20handleTimerInterruptRN6Kernel14InterruptFrameE:
.LVL0:
.LFB105:
	.file 1 "src/kernel/kernel.cpp"
	.loc 1 26 1 view -0
	.cfi_startproc
	.loc 1 27 5 view .LVU1
	.loc 1 29 1 is_stmt 0 view .LVU2
	ret
	.cfi_endproc
.LFE105:
	.size	_Z20handleTimerInterruptRN6Kernel14InterruptFrameE, .-_Z20handleTimerInterruptRN6Kernel14InterruptFrameE
	.globl	__cxa_pure_virtual
	.type	__cxa_pure_virtual, @function
__cxa_pure_virtual:
.LFB104:
	.loc 1 9 1 is_stmt 1 view -0
	.cfi_startproc
.L3:
	.loc 1 10 5 view .LVU4
	.loc 1 10 5 view .LVU5
	jmp	.L3
	.cfi_endproc
.LFE104:
	.size	__cxa_pure_virtual, .-__cxa_pure_virtual
	.section	.text._ZN6Kernel7Console5printIJEEEvPKcDpT_,"axG",@progbits,_ZN6Kernel7Console5printIJEEEvPKcDpT_,comdat
	.weak	_ZN6Kernel7Console5printIJEEEvPKcDpT_
	.type	_ZN6Kernel7Console5printIJEEEvPKcDpT_, @function
_ZN6Kernel7Console5printIJEEEvPKcDpT_:
.LVL1:
.LFB118:
	.file 2 "src/kernel/../../include/Console.h"
	.loc 2 319 21 view -0
	.cfi_startproc
	.loc 2 319 21 is_stmt 0 view .LVU7
	pushq	%rbp
	.cfi_def_cfa_offset 16
	.cfi_offset 6, -16
	movq	%rsp, %rbp
	.cfi_def_cfa_register 6
	pushq	%rbx
	subq	$8, %rsp
	.cfi_offset 3, -24
.LVL2:
.LBB47:
.LBI47:
	.loc 2 108 21 is_stmt 1 view .LVU8
.LBB48:
	.loc 2 110 39 discriminator 1 view .LVU9
	.loc 2 110 35 is_stmt 0 discriminator 1 view .LVU10
	movzbl	(%rdi), %eax
	.loc 2 110 39 discriminator 1 view .LVU11
	testb	%al, %al
	je	.L5
	leaq	1(%rdi), %rbx
.LVL3:
.L6:
	.loc 2 112 24 view .LVU12
	movzbl	%al, %edi
	movl	$15, %esi
	call	_ZN6Kernel7Console7putCharEhNS0_10AttributesE
.LVL4:
	.loc 2 110 13 is_stmt 1 discriminator 3 view .LVU13
	.loc 2 110 39 discriminator 1 view .LVU14
	addq	$1, %rbx
.LVL5:
	.loc 2 110 35 is_stmt 0 discriminator 1 view .LVU15
	movzbl	-1(%rbx), %eax
	.loc 2 110 39 discriminator 1 view .LVU16
	testb	%al, %al
	jne	.L6
.LVL6:
.L5:
	.loc 2 110 39 discriminator 1 view .LVU17
.LBE48:
.LBE47:
	.loc 2 329 33 view .LVU18
	call	_ZN6Kernel7Console20clampDisplayToCursorEv
.LVL7:
	.loc 2 330 25 view .LVU19
	call	_ZN6Kernel7Console12updateCursorEv
.LVL8:
	.loc 2 331 23 view .LVU20
	call	_ZN6Kernel7Console10flushToVgaEv
.LVL9:
	.loc 2 332 9 view .LVU21
	movq	-8(%rbp), %rbx
	leave
	.cfi_restore 6
	.cfi_restore 3
	.cfi_def_cfa 7, 8
	ret
	.cfi_endproc
.LFE118:
	.size	_ZN6Kernel7Console5printIJEEEvPKcDpT_, .-_ZN6Kernel7Console5printIJEEEvPKcDpT_
	.section	.rodata._ZZN6Kernel7Console9printImplIJRPNS_14HeapLinkedList5BlockEEEEvPKcNS0_10AttributesEDpOT_ENKUlOT_E_clIS5_EEDaSD_.str1.1,"aMS",@progbits,1
.LC0:
	.string	"0x"
.LC1:
	.string	"0123456789ABCDEF"
	.section	.text._ZZN6Kernel7Console9printImplIJRPNS_14HeapLinkedList5BlockEEEEvPKcNS0_10AttributesEDpOT_ENKUlOT_E_clIS5_EEDaSD_,"axG",@progbits,_ZZN6Kernel7Console9printImplIJRPNS_14HeapLinkedList5BlockEEEEvPKcNS0_10AttributesEDpOT_ENKUlOT_E_clIS5_EEDaSD_,comdat
	.align 2
	.weak	_ZZN6Kernel7Console9printImplIJRPNS_14HeapLinkedList5BlockEEEEvPKcNS0_10AttributesEDpOT_ENKUlOT_E_clIS5_EEDaSD_
	.type	_ZZN6Kernel7Console9printImplIJRPNS_14HeapLinkedList5BlockEEEEvPKcNS0_10AttributesEDpOT_ENKUlOT_E_clIS5_EEDaSD_, @function
_ZZN6Kernel7Console9printImplIJRPNS_14HeapLinkedList5BlockEEEEvPKcNS0_10AttributesEDpOT_ENKUlOT_E_clIS5_EEDaSD_:
.LVL10:
.LFB136:
	.loc 2 203 14 is_stmt 1 view -0
	.cfi_startproc
	.loc 2 203 14 is_stmt 0 view .LVU23
	pushq	%rbp
	.cfi_def_cfa_offset 16
	.cfi_offset 6, -16
	movq	%rsp, %rbp
	.cfi_def_cfa_register 6
	pushq	%r14
	pushq	%r13
	pushq	%r12
	pushq	%rbx
	.cfi_offset 14, -24
	.cfi_offset 13, -32
	.cfi_offset 12, -40
	.cfi_offset 3, -48
	movq	%rdi, %rbx
	movq	%rsi, %r12
.LBB60:
	.loc 2 206 28 is_stmt 1 view .LVU24
	movq	(%rdi), %rdx
	movq	(%rdx), %rax
	movzbl	(%rax), %edi
.LVL11:
	.loc 2 206 28 is_stmt 0 view .LVU25
	testb	%dil, %dil
	jne	.L33
	jmp	.L9
.LVL12:
.L19:
	.loc 2 219 40 view .LVU26
	movq	8(%rbx), %rax
	movzbl	(%rax), %esi
	movl	$37, %edi
	call	_ZN6Kernel7Console7putCharEhNS0_10AttributesE
.LVL13:
	.loc 2 220 40 view .LVU27
	movq	8(%rbx), %rax
	movzbl	(%rax), %esi
	movq	(%rbx), %rax
	movq	(%rax), %rax
	movzbl	(%rax), %edi
	call	_ZN6Kernel7Console7putCharEhNS0_10AttributesE
.LVL14:
.L22:
	.loc 2 305 25 view .LVU28
	movq	(%rbx), %rax
	addq	$1, (%rax)
.L9:
	.loc 2 305 25 view .LVU29
.LBE60:
	.loc 2 203 14 view .LVU30
	popq	%rbx
	.cfi_remember_state
	.cfi_restore 3
.LVL15:
	.loc 2 203 14 view .LVU31
	popq	%r12
	.cfi_restore 12
	popq	%r13
	.cfi_restore 13
	popq	%r14
	.cfi_restore 14
	popq	%rbp
	.cfi_restore 6
	.cfi_def_cfa 7, 8
	ret
.LVL16:
.L21:
	.cfi_restore_state
.LBB73:
	.loc 2 230 40 view .LVU32
	movq	8(%rbx), %rax
	movzbl	(%rax), %esi
	movl	$37, %edi
	call	_ZN6Kernel7Console7putCharEhNS0_10AttributesE
.LVL17:
	.loc 2 231 40 view .LVU33
	movq	8(%rbx), %rax
	movzbl	(%rax), %esi
	movq	(%rbx), %rax
	movq	(%rax), %rax
	movzbl	(%rax), %edi
	call	_ZN6Kernel7Console7putCharEhNS0_10AttributesE
.LVL18:
	.loc 2 233 29 view .LVU34
	jmp	.L22
.L14:
	.loc 2 241 40 view .LVU35
	movq	8(%rbx), %rax
	movzbl	(%rax), %esi
	movl	$37, %edi
	call	_ZN6Kernel7Console7putCharEhNS0_10AttributesE
.LVL19:
	.loc 2 242 40 view .LVU36
	movq	8(%rbx), %rax
	movzbl	(%rax), %esi
	movq	(%rbx), %rax
	movq	(%rax), %rax
	movzbl	(%rax), %edi
	call	_ZN6Kernel7Console7putCharEhNS0_10AttributesE
.LVL20:
	.loc 2 244 29 view .LVU37
	jmp	.L22
.L20:
	.loc 2 252 40 view .LVU38
	movq	8(%rbx), %rax
	movzbl	(%rax), %esi
	movl	$37, %edi
	call	_ZN6Kernel7Console7putCharEhNS0_10AttributesE
.LVL21:
	.loc 2 253 40 view .LVU39
	movq	8(%rbx), %rax
	movzbl	(%rax), %esi
	movq	(%rbx), %rax
	movq	(%rax), %rax
	movzbl	(%rax), %edi
	call	_ZN6Kernel7Console7putCharEhNS0_10AttributesE
.LVL22:
	.loc 2 255 29 view .LVU40
	jmp	.L22
.L18:
	.loc 2 259 42 view .LVU41
	movq	8(%rbx), %rax
	movzbl	(%rax), %r14d
	movq	(%r12), %r12
.LVL23:
.LBB61:
.LBI61:
	.loc 2 168 21 is_stmt 1 view .LVU42
.LBB62:
.LBB63:
.LBI63:
	.loc 2 108 21 view .LVU43
.LBB64:
	.loc 2 110 39 discriminator 1 view .LVU44
	movq	$.LC0+1, %r13
	.loc 2 110 35 is_stmt 0 discriminator 1 view .LVU45
	movl	$48, %edi
.LVL24:
.L23:
	.loc 2 112 24 view .LVU46
	movzbl	%dil, %edi
	movl	%r14d, %esi
	call	_ZN6Kernel7Console7putCharEhNS0_10AttributesE
.LVL25:
	.loc 2 110 13 is_stmt 1 discriminator 3 view .LVU47
	.loc 2 110 39 discriminator 1 view .LVU48
	addq	$1, %r13
.LVL26:
	.loc 2 110 35 is_stmt 0 discriminator 1 view .LVU49
	movzbl	-1(%r13), %edi
	.loc 2 110 39 discriminator 1 view .LVU50
	testb	%dil, %dil
	jne	.L23
.LVL27:
	.loc 2 110 39 discriminator 1 view .LVU51
.LBE64:
.LBE63:
	.loc 2 174 22 is_stmt 1 discriminator 1 view .LVU52
	.loc 2 176 17 is_stmt 0 view .LVU53
	movq	%r12, %r13
	shrq	$60, %r13
	jne	.L42
.LVL28:
.L25:
	.loc 2 178 21 view .LVU54
	salq	$4, %r12
.LVL29:
	.loc 2 174 13 is_stmt 1 view .LVU55
	addq	$1, %r13
.LVL30:
	.loc 2 174 22 discriminator 1 view .LVU56
	cmpq	$16, %r13
	je	.L22
	.loc 2 176 17 is_stmt 0 view .LVU57
	movq	%r12, %rax
	shrq	$60, %rax
	je	.L25
.L27:
	.loc 2 182 49 view .LVU58
	movq	%r12, %rax
	shrq	$60, %rax
	.loc 2 182 24 view .LVU59
	movzbl	.LC1(%rax), %edi
	movl	%r14d, %esi
	call	_ZN6Kernel7Console7putCharEhNS0_10AttributesE
.LVL31:
	.loc 2 183 21 view .LVU60
	salq	$4, %r12
.LVL32:
	.loc 2 180 13 is_stmt 1 discriminator 2 view .LVU61
	addq	$1, %r13
.LVL33:
	.loc 2 180 22 discriminator 1 view .LVU62
	cmpq	$16, %r13
	jne	.L27
	jmp	.L22
.LVL34:
.L17:
	.loc 2 180 22 is_stmt 0 discriminator 1 view .LVU63
.LBE62:
.LBE61:
	.loc 2 274 40 view .LVU64
	movq	8(%rbx), %rax
	movzbl	(%rax), %esi
	movl	$37, %edi
	call	_ZN6Kernel7Console7putCharEhNS0_10AttributesE
.LVL35:
	.loc 2 275 40 view .LVU65
	movq	8(%rbx), %rax
	movzbl	(%rax), %esi
	movq	(%rbx), %rax
	movq	(%rax), %rax
	movzbl	(%rax), %edi
	call	_ZN6Kernel7Console7putCharEhNS0_10AttributesE
.LVL36:
	.loc 2 277 29 view .LVU66
	jmp	.L22
.L16:
	.loc 2 289 42 view .LVU67
	movq	8(%rbx), %rax
	movzbl	(%rax), %r14d
	movq	(%r12), %r12
.LVL37:
.LBB66:
.LBI66:
	.loc 2 168 21 is_stmt 1 view .LVU68
.LBB67:
.LBB68:
.LBI68:
	.loc 2 108 21 view .LVU69
.LBB69:
	.loc 2 110 39 discriminator 1 view .LVU70
	movq	$.LC0+1, %r13
	.loc 2 110 35 is_stmt 0 discriminator 1 view .LVU71
	movl	$48, %edi
.LVL38:
.L28:
	.loc 2 112 24 view .LVU72
	movzbl	%dil, %edi
	movl	%r14d, %esi
	call	_ZN6Kernel7Console7putCharEhNS0_10AttributesE
.LVL39:
	.loc 2 110 13 is_stmt 1 discriminator 3 view .LVU73
	.loc 2 110 39 discriminator 1 view .LVU74
	addq	$1, %r13
.LVL40:
	.loc 2 110 35 is_stmt 0 discriminator 1 view .LVU75
	movzbl	-1(%r13), %edi
	.loc 2 110 39 discriminator 1 view .LVU76
	testb	%dil, %dil
	jne	.L28
.LVL41:
	.loc 2 110 39 discriminator 1 view .LVU77
.LBE69:
.LBE68:
	.loc 2 174 22 is_stmt 1 discriminator 1 view .LVU78
	.loc 2 176 17 is_stmt 0 view .LVU79
	movq	%r12, %r13
	shrq	$60, %r13
	jne	.L43
.LVL42:
.L30:
	.loc 2 178 21 view .LVU80
	salq	$4, %r12
.LVL43:
	.loc 2 174 13 is_stmt 1 view .LVU81
	addq	$1, %r13
.LVL44:
	.loc 2 174 22 discriminator 1 view .LVU82
	cmpq	$16, %r13
	je	.L22
	.loc 2 176 17 is_stmt 0 view .LVU83
	movq	%r12, %rax
	shrq	$60, %rax
	je	.L30
.L32:
	.loc 2 182 49 view .LVU84
	movq	%r12, %rax
	shrq	$60, %rax
	.loc 2 182 24 view .LVU85
	movzbl	.LC1(%rax), %edi
	movl	%r14d, %esi
	call	_ZN6Kernel7Console7putCharEhNS0_10AttributesE
.LVL45:
	.loc 2 183 21 view .LVU86
	salq	$4, %r12
.LVL46:
	.loc 2 180 13 is_stmt 1 discriminator 2 view .LVU87
	addq	$1, %r13
.LVL47:
	.loc 2 180 22 discriminator 1 view .LVU88
	cmpq	$16, %r13
	jne	.L32
	jmp	.L22
.LVL48:
.L12:
	.loc 2 180 22 is_stmt 0 discriminator 1 view .LVU89
.LBE67:
.LBE66:
	.loc 2 298 36 view .LVU90
	movq	8(%rbx), %rax
	movzbl	(%rax), %esi
	movl	$37, %edi
	call	_ZN6Kernel7Console7putCharEhNS0_10AttributesE
.LVL49:
	.loc 2 299 29 view .LVU91
	jmp	.L22
.L13:
	.loc 2 301 36 view .LVU92
	movq	8(%rbx), %rax
	movzbl	(%rax), %esi
	movl	$37, %edi
	call	_ZN6Kernel7Console7putCharEhNS0_10AttributesE
.LVL50:
	.loc 2 302 36 view .LVU93
	movq	8(%rbx), %rax
	movzbl	(%rax), %esi
	movq	(%rbx), %rax
	movq	(%rax), %rax
	movzbl	(%rax), %edi
	call	_ZN6Kernel7Console7putCharEhNS0_10AttributesE
.LVL51:
	.loc 2 303 29 view .LVU94
	jmp	.L22
.L11:
	.loc 2 310 32 view .LVU95
	movq	8(%rbx), %rax
	movzbl	(%rax), %esi
	movzbl	%dil, %edi
	call	_ZN6Kernel7Console7putCharEhNS0_10AttributesE
.LVL52:
	.loc 2 311 25 view .LVU96
	movq	(%rbx), %rax
	addq	$1, (%rax)
	.loc 2 206 28 is_stmt 1 view .LVU97
	movq	(%rbx), %rdx
	movq	(%rdx), %rax
	movzbl	(%rax), %edi
	testb	%dil, %dil
	je	.L9
.L33:
	.loc 2 208 21 is_stmt 0 view .LVU98
	cmpb	$37, %dil
	jne	.L11
	.loc 2 208 37 discriminator 1 view .LVU99
	cmpb	$0, 1(%rax)
	je	.L11
	.loc 2 210 25 view .LVU100
	leaq	1(%rax), %rcx
	movq	%rcx, (%rdx)
	movzbl	1(%rax), %eax
	cmpb	$37, %al
	je	.L12
	leal	-98(%rax), %edx
	cmpb	$22, %dl
	ja	.L13
	ja	.L13
	movzbl	%dl, %eax
	jmp	*.L15(,%rax,8)
	.section	.rodata._ZZN6Kernel7Console9printImplIJRPNS_14HeapLinkedList5BlockEEEEvPKcNS0_10AttributesEDpOT_ENKUlOT_E_clIS5_EEDaSD_,"aG",@progbits,_ZZN6Kernel7Console9printImplIJRPNS_14HeapLinkedList5BlockEEEEvPKcNS0_10AttributesEDpOT_ENKUlOT_E_clIS5_EEDaSD_,comdat
	.align 8
	.align 4
.L15:
	.quad	.L21
	.quad	.L20
	.quad	.L19
	.quad	.L13
	.quad	.L13
	.quad	.L13
	.quad	.L13
	.quad	.L13
	.quad	.L13
	.quad	.L13
	.quad	.L13
	.quad	.L13
	.quad	.L13
	.quad	.L13
	.quad	.L18
	.quad	.L13
	.quad	.L13
	.quad	.L17
	.quad	.L13
	.quad	.L13
	.quad	.L16
	.quad	.L13
	.quad	.L14
	.section	.text._ZZN6Kernel7Console9printImplIJRPNS_14HeapLinkedList5BlockEEEEvPKcNS0_10AttributesEDpOT_ENKUlOT_E_clIS5_EEDaSD_,"axG",@progbits,_ZZN6Kernel7Console9printImplIJRPNS_14HeapLinkedList5BlockEEEEvPKcNS0_10AttributesEDpOT_ENKUlOT_E_clIS5_EEDaSD_,comdat
.LVL53:
.L42:
.LBB71:
.LBB65:
	.loc 2 172 20 view .LVU101
	movl	$0, %r13d
.LVL54:
	.loc 2 180 22 is_stmt 1 discriminator 1 view .LVU102
	jmp	.L27
.LVL55:
.L43:
	.loc 2 180 22 is_stmt 0 discriminator 1 view .LVU103
.LBE65:
.LBE71:
.LBB72:
.LBB70:
	.loc 2 172 20 view .LVU104
	movl	$0, %r13d
.LVL56:
	.loc 2 180 22 is_stmt 1 discriminator 1 view .LVU105
	jmp	.L32
.LBE70:
.LBE72:
.LBE73:
	.cfi_endproc
.LFE136:
	.size	_ZZN6Kernel7Console9printImplIJRPNS_14HeapLinkedList5BlockEEEEvPKcNS0_10AttributesEDpOT_ENKUlOT_E_clIS5_EEDaSD_, .-_ZZN6Kernel7Console9printImplIJRPNS_14HeapLinkedList5BlockEEEEvPKcNS0_10AttributesEDpOT_ENKUlOT_E_clIS5_EEDaSD_
	.section	.rodata._ZZN6Kernel7Console9printImplIJRmEEEvPKcNS0_10AttributesEDpOT_ENKUlOT_E_clIS2_EEDaSA_.str1.1,"aMS",@progbits,1
.LC2:
	.string	"0b"
	.section	.text._ZZN6Kernel7Console9printImplIJRmEEEvPKcNS0_10AttributesEDpOT_ENKUlOT_E_clIS2_EEDaSA_,"axG",@progbits,_ZZN6Kernel7Console9printImplIJRmEEEvPKcNS0_10AttributesEDpOT_ENKUlOT_E_clIS2_EEDaSA_,comdat
	.align 2
	.weak	_ZZN6Kernel7Console9printImplIJRmEEEvPKcNS0_10AttributesEDpOT_ENKUlOT_E_clIS2_EEDaSA_
	.type	_ZZN6Kernel7Console9printImplIJRmEEEvPKcNS0_10AttributesEDpOT_ENKUlOT_E_clIS2_EEDaSA_, @function
_ZZN6Kernel7Console9printImplIJRmEEEvPKcNS0_10AttributesEDpOT_ENKUlOT_E_clIS2_EEDaSA_:
.LVL57:
.LFB139:
	.loc 2 203 14 view -0
	.cfi_startproc
	.loc 2 203 14 is_stmt 0 view .LVU107
	pushq	%rbp
	.cfi_def_cfa_offset 16
	.cfi_offset 6, -16
	movq	%rsp, %rbp
	.cfi_def_cfa_register 6
	pushq	%r14
	pushq	%r13
	pushq	%r12
	pushq	%rbx
	subq	$32, %rsp
	.cfi_offset 14, -24
	.cfi_offset 13, -32
	.cfi_offset 12, -40
	.cfi_offset 3, -48
	movq	%rdi, %rbx
	movq	%rsi, %r12
.LBB91:
	.loc 2 206 28 is_stmt 1 view .LVU108
	movq	(%rdi), %rdx
	movq	(%rdx), %rax
	movzbl	(%rax), %edi
.LVL58:
	.loc 2 206 28 is_stmt 0 view .LVU109
	testb	%dil, %dil
	jne	.L74
	jmp	.L44
.LVL59:
.L54:
	.loc 2 215 42 view .LVU110
	movq	8(%rbx), %rax
	movzbl	(%rax), %r13d
	movq	(%r12), %rcx
.LVL60:
.LBB92:
.LBI92:
	.loc 2 137 21 is_stmt 1 view .LVU111
.LBB93:
	.loc 2 154 20 is_stmt 0 view .LVU112
	movl	$0, %esi
	.loc 2 158 41 view .LVU113
	movabsq	$-3689348814741910323, %r8
	.loc 2 140 13 view .LVU114
	testq	%rcx, %rcx
	je	.L91
.LVL61:
.L57:
	.loc 2 158 41 view .LVU115
	movq	%rcx, %rax
	mulq	%r8
	shrq	$3, %rdx
	leaq	(%rdx,%rdx,4), %rdi
	addq	%rdi, %rdi
	movq	%rcx, %rax
	subq	%rdi, %rax
	.loc 2 158 35 view .LVU116
	addl	$48, %eax
	movb	%al, -64(%rbp,%rsi)
	movq	%rcx, %rax
	.loc 2 159 21 view .LVU117
	movq	%rdx, %rcx
.LVL62:
	.loc 2 159 21 view .LVU118
	movq	%rsi, %r12
	.loc 2 160 17 view .LVU119
	addq	$1, %rsi
.LVL63:
	.loc 2 156 24 is_stmt 1 view .LVU120
	cmpq	$9, %rax
	ja	.L57
.LVL64:
.LBB94:
	.loc 2 163 34 discriminator 1 view .LVU121
	testq	%rsi, %rsi
	je	.L58
	.loc 2 163 34 is_stmt 0 discriminator 1 view .LVU122
	leaq	-64(%rbp), %r14
	addq	%r14, %r12
.LVL65:
.L60:
	.loc 2 164 24 view .LVU123
	movzbl	(%r12), %edi
	movl	%r13d, %esi
	call	_ZN6Kernel7Console7putCharEhNS0_10AttributesE
.LVL66:
	.loc 2 163 13 is_stmt 1 discriminator 3 view .LVU124
	.loc 2 163 34 discriminator 1 view .LVU125
	movq	%r12, %rax
	subq	$1, %r12
	cmpq	%r14, %rax
	jne	.L60
	jmp	.L58
.LVL67:
.L91:
	.loc 2 163 34 is_stmt 0 discriminator 1 view .LVU126
.LBE94:
	.loc 2 142 24 view .LVU127
	movl	%r13d, %esi
	movl	$48, %edi
	call	_ZN6Kernel7Console7putCharEhNS0_10AttributesE
.LVL68:
	.loc 2 142 24 view .LVU128
	jmp	.L58
.LVL69:
.L56:
	.loc 2 142 24 view .LVU129
.LBE93:
.LBE92:
	.loc 2 226 42 view .LVU130
	movq	8(%rbx), %rax
	movzbl	(%rax), %r14d
	movq	(%r12), %r12
.LVL70:
.LBB95:
.LBI95:
	.loc 2 117 21 is_stmt 1 view .LVU131
.LBB96:
.LBB97:
.LBI97:
	.loc 2 108 21 view .LVU132
.LBB98:
	.loc 2 110 39 discriminator 1 view .LVU133
	movq	$.LC2+1, %r13
	.loc 2 110 35 is_stmt 0 discriminator 1 view .LVU134
	movl	$48, %edi
.LVL71:
.L61:
	.loc 2 112 24 view .LVU135
	movzbl	%dil, %edi
	movl	%r14d, %esi
	call	_ZN6Kernel7Console7putCharEhNS0_10AttributesE
.LVL72:
	.loc 2 110 13 is_stmt 1 discriminator 3 view .LVU136
	.loc 2 110 39 discriminator 1 view .LVU137
	addq	$1, %r13
.LVL73:
	.loc 2 110 35 is_stmt 0 discriminator 1 view .LVU138
	movzbl	-1(%r13), %edi
	.loc 2 110 39 discriminator 1 view .LVU139
	testb	%dil, %dil
	jne	.L61
.LVL74:
	.loc 2 110 39 discriminator 1 view .LVU140
.LBE98:
.LBE97:
	.loc 2 123 22 is_stmt 1 discriminator 1 view .LVU141
	.loc 2 125 17 is_stmt 0 view .LVU142
	testq	%r12, %r12
	js	.L76
	.loc 2 121 20 view .LVU143
	movl	$0, %r13d
.LVL75:
.L63:
	.loc 2 127 21 view .LVU144
	addq	%r12, %r12
.LVL76:
	.loc 2 123 13 is_stmt 1 view .LVU145
	addq	$1, %r13
.LVL77:
	.loc 2 123 22 discriminator 1 view .LVU146
	cmpq	$64, %r13
	je	.L58
	.loc 2 125 17 is_stmt 0 view .LVU147
	testq	%r12, %r12
	jns	.L63
.L65:
	.loc 2 131 36 view .LVU148
	movq	%r12, %rax
	shrq	$63, %rax
	.loc 2 131 24 view .LVU149
	leal	48(%rax), %edi
	movl	%r14d, %esi
	call	_ZN6Kernel7Console7putCharEhNS0_10AttributesE
.LVL78:
	.loc 2 132 21 view .LVU150
	addq	%r12, %r12
.LVL79:
	.loc 2 129 13 is_stmt 1 discriminator 2 view .LVU151
	addq	$1, %r13
.LVL80:
	.loc 2 129 22 discriminator 1 view .LVU152
	cmpq	$64, %r13
	jne	.L65
	jmp	.L58
.LVL81:
.L49:
	.loc 2 129 22 is_stmt 0 discriminator 1 view .LVU153
.LBE96:
.LBE95:
	.loc 2 237 42 view .LVU154
	movq	8(%rbx), %rax
	movzbl	(%rax), %r14d
	movq	(%r12), %r12
.LVL82:
.LBB100:
.LBI100:
	.loc 2 168 21 is_stmt 1 view .LVU155
.LBB101:
.LBB102:
.LBI102:
	.loc 2 108 21 view .LVU156
.LBB103:
	.loc 2 110 39 discriminator 1 view .LVU157
	movq	$.LC0+1, %r13
	.loc 2 110 35 is_stmt 0 discriminator 1 view .LVU158
	movl	$48, %edi
.LVL83:
.L66:
	.loc 2 112 24 view .LVU159
	movzbl	%dil, %edi
	movl	%r14d, %esi
	call	_ZN6Kernel7Console7putCharEhNS0_10AttributesE
.LVL84:
	.loc 2 110 13 is_stmt 1 discriminator 3 view .LVU160
	.loc 2 110 39 discriminator 1 view .LVU161
	addq	$1, %r13
.LVL85:
	.loc 2 110 35 is_stmt 0 discriminator 1 view .LVU162
	movzbl	-1(%r13), %edi
	.loc 2 110 39 discriminator 1 view .LVU163
	testb	%dil, %dil
	jne	.L66
.LVL86:
	.loc 2 110 39 discriminator 1 view .LVU164
.LBE103:
.LBE102:
	.loc 2 174 22 is_stmt 1 discriminator 1 view .LVU165
	.loc 2 176 17 is_stmt 0 view .LVU166
	movq	%r12, %r13
	shrq	$60, %r13
	jne	.L92
.LVL87:
.L68:
	.loc 2 178 21 view .LVU167
	salq	$4, %r12
.LVL88:
	.loc 2 174 13 is_stmt 1 view .LVU168
	addq	$1, %r13
.LVL89:
	.loc 2 174 22 discriminator 1 view .LVU169
	cmpq	$16, %r13
	je	.L58
	.loc 2 176 17 is_stmt 0 view .LVU170
	movq	%r12, %rax
	shrq	$60, %rax
	je	.L68
.L70:
	.loc 2 182 49 view .LVU171
	movq	%r12, %rax
	shrq	$60, %rax
	.loc 2 182 24 view .LVU172
	movzbl	.LC1(%rax), %edi
	movl	%r14d, %esi
	call	_ZN6Kernel7Console7putCharEhNS0_10AttributesE
.LVL90:
	.loc 2 183 21 view .LVU173
	salq	$4, %r12
.LVL91:
	.loc 2 180 13 is_stmt 1 discriminator 2 view .LVU174
	addq	$1, %r13
.LVL92:
	.loc 2 180 22 discriminator 1 view .LVU175
	cmpq	$16, %r13
	jne	.L70
	jmp	.L58
.LVL93:
.L55:
	.loc 2 180 22 is_stmt 0 discriminator 1 view .LVU176
.LBE101:
.LBE100:
	.loc 2 252 40 view .LVU177
	movq	8(%rbx), %rax
	movzbl	(%rax), %esi
	movl	$37, %edi
	call	_ZN6Kernel7Console7putCharEhNS0_10AttributesE
.LVL94:
	.loc 2 253 40 view .LVU178
	movq	8(%rbx), %rax
	movzbl	(%rax), %esi
	movq	(%rbx), %rax
	movq	(%rax), %rax
	movzbl	(%rax), %edi
	call	_ZN6Kernel7Console7putCharEhNS0_10AttributesE
.LVL95:
.L58:
	.loc 2 305 25 view .LVU179
	movq	(%rbx), %rax
	addq	$1, (%rax)
.L44:
	.loc 2 305 25 view .LVU180
.LBE91:
	.loc 2 203 14 view .LVU181
	addq	$32, %rsp
	popq	%rbx
	.cfi_remember_state
	.cfi_restore 3
.LVL96:
	.loc 2 203 14 view .LVU182
	popq	%r12
	.cfi_restore 12
	popq	%r13
	.cfi_restore 13
	popq	%r14
	.cfi_restore 14
	popq	%rbp
	.cfi_restore 6
	.cfi_def_cfa 7, 8
	ret
.LVL97:
.L53:
	.cfi_restore_state
.LBB110:
	.loc 2 263 40 view .LVU183
	movq	8(%rbx), %rax
	movzbl	(%rax), %esi
	movl	$37, %edi
	call	_ZN6Kernel7Console7putCharEhNS0_10AttributesE
.LVL98:
	.loc 2 264 40 view .LVU184
	movq	8(%rbx), %rax
	movzbl	(%rax), %esi
	movq	(%rbx), %rax
	movq	(%rax), %rax
	movzbl	(%rax), %edi
	call	_ZN6Kernel7Console7putCharEhNS0_10AttributesE
.LVL99:
	.loc 2 266 29 view .LVU185
	jmp	.L58
.L52:
	.loc 2 274 40 view .LVU186
	movq	8(%rbx), %rax
	movzbl	(%rax), %esi
	movl	$37, %edi
	call	_ZN6Kernel7Console7putCharEhNS0_10AttributesE
.LVL100:
	.loc 2 275 40 view .LVU187
	movq	8(%rbx), %rax
	movzbl	(%rax), %esi
	movq	(%rbx), %rax
	movq	(%rax), %rax
	movzbl	(%rax), %edi
	call	_ZN6Kernel7Console7putCharEhNS0_10AttributesE
.LVL101:
	.loc 2 277 29 view .LVU188
	jmp	.L58
.L51:
	.loc 2 283 42 view .LVU189
	movq	8(%rbx), %rax
	movzbl	(%rax), %r13d
	movq	(%r12), %rcx
.LVL102:
.LBB105:
.LBI105:
	.loc 2 137 21 is_stmt 1 view .LVU190
.LBB106:
	.loc 2 154 20 is_stmt 0 view .LVU191
	movl	$0, %esi
	.loc 2 158 41 view .LVU192
	movabsq	$-3689348814741910323, %r8
	.loc 2 140 13 view .LVU193
	testq	%rcx, %rcx
	je	.L93
.LVL103:
.L71:
	.loc 2 158 41 view .LVU194
	movq	%rcx, %rax
	mulq	%r8
	shrq	$3, %rdx
	leaq	(%rdx,%rdx,4), %rdi
	addq	%rdi, %rdi
	movq	%rcx, %rax
	subq	%rdi, %rax
	.loc 2 158 35 view .LVU195
	addl	$48, %eax
	movb	%al, -64(%rbp,%rsi)
	movq	%rcx, %rax
	.loc 2 159 21 view .LVU196
	movq	%rdx, %rcx
.LVL104:
	.loc 2 159 21 view .LVU197
	movq	%rsi, %r12
	.loc 2 160 17 view .LVU198
	addq	$1, %rsi
.LVL105:
	.loc 2 156 24 is_stmt 1 view .LVU199
	cmpq	$9, %rax
	ja	.L71
.LVL106:
.LBB107:
	.loc 2 163 34 discriminator 1 view .LVU200
	testq	%rsi, %rsi
	je	.L58
	.loc 2 163 34 is_stmt 0 discriminator 1 view .LVU201
	leaq	-64(%rbp), %r14
	addq	%r14, %r12
.LVL107:
.L73:
	.loc 2 164 24 view .LVU202
	movzbl	(%r12), %edi
	movl	%r13d, %esi
	call	_ZN6Kernel7Console7putCharEhNS0_10AttributesE
.LVL108:
	.loc 2 163 13 is_stmt 1 discriminator 3 view .LVU203
	.loc 2 163 34 discriminator 1 view .LVU204
	movq	%r12, %rax
	subq	$1, %r12
	.loc 2 163 34 is_stmt 0 discriminator 1 view .LVU205
	cmpq	%r14, %rax
	jne	.L73
	jmp	.L58
.LVL109:
.L93:
	.loc 2 163 34 discriminator 1 view .LVU206
.LBE107:
	.loc 2 142 24 view .LVU207
	movl	%r13d, %esi
	movl	$48, %edi
	call	_ZN6Kernel7Console7putCharEhNS0_10AttributesE
.LVL110:
	.loc 2 142 24 view .LVU208
	jmp	.L58
.LVL111:
.L47:
	.loc 2 142 24 view .LVU209
.LBE106:
.LBE105:
	.loc 2 298 36 view .LVU210
	movq	8(%rbx), %rax
	movzbl	(%rax), %esi
	movl	$37, %edi
	call	_ZN6Kernel7Console7putCharEhNS0_10AttributesE
.LVL112:
	.loc 2 299 29 view .LVU211
	jmp	.L58
.L48:
	.loc 2 301 36 view .LVU212
	movq	8(%rbx), %rax
	movzbl	(%rax), %esi
	movl	$37, %edi
	call	_ZN6Kernel7Console7putCharEhNS0_10AttributesE
.LVL113:
	.loc 2 302 36 view .LVU213
	movq	8(%rbx), %rax
	movzbl	(%rax), %esi
	movq	(%rbx), %rax
	movq	(%rax), %rax
	movzbl	(%rax), %edi
	call	_ZN6Kernel7Console7putCharEhNS0_10AttributesE
.LVL114:
	.loc 2 303 29 view .LVU214
	jmp	.L58
.L46:
	.loc 2 310 32 view .LVU215
	movq	8(%rbx), %rax
	movzbl	(%rax), %esi
	movzbl	%dil, %edi
	call	_ZN6Kernel7Console7putCharEhNS0_10AttributesE
.LVL115:
	.loc 2 311 25 view .LVU216
	movq	(%rbx), %rax
	addq	$1, (%rax)
	.loc 2 206 28 is_stmt 1 view .LVU217
	movq	(%rbx), %rdx
	movq	(%rdx), %rax
	movzbl	(%rax), %edi
	testb	%dil, %dil
	je	.L44
.L74:
	.loc 2 208 21 is_stmt 0 view .LVU218
	cmpb	$37, %dil
	jne	.L46
	.loc 2 208 37 discriminator 1 view .LVU219
	cmpb	$0, 1(%rax)
	je	.L46
	.loc 2 210 25 view .LVU220
	leaq	1(%rax), %rcx
	movq	%rcx, (%rdx)
	movzbl	1(%rax), %eax
	cmpb	$37, %al
	je	.L47
	leal	-98(%rax), %edx
	cmpb	$22, %dl
	ja	.L48
	ja	.L48
	movzbl	%dl, %eax
	jmp	*.L50(,%rax,8)
	.section	.rodata._ZZN6Kernel7Console9printImplIJRmEEEvPKcNS0_10AttributesEDpOT_ENKUlOT_E_clIS2_EEDaSA_,"aG",@progbits,_ZZN6Kernel7Console9printImplIJRmEEEvPKcNS0_10AttributesEDpOT_ENKUlOT_E_clIS2_EEDaSA_,comdat
	.align 8
	.align 4
.L50:
	.quad	.L56
	.quad	.L55
	.quad	.L54
	.quad	.L48
	.quad	.L48
	.quad	.L48
	.quad	.L48
	.quad	.L48
	.quad	.L48
	.quad	.L48
	.quad	.L48
	.quad	.L48
	.quad	.L48
	.quad	.L48
	.quad	.L53
	.quad	.L48
	.quad	.L48
	.quad	.L52
	.quad	.L48
	.quad	.L48
	.quad	.L51
	.quad	.L48
	.quad	.L49
	.section	.text._ZZN6Kernel7Console9printImplIJRmEEEvPKcNS0_10AttributesEDpOT_ENKUlOT_E_clIS2_EEDaSA_,"axG",@progbits,_ZZN6Kernel7Console9printImplIJRmEEEvPKcNS0_10AttributesEDpOT_ENKUlOT_E_clIS2_EEDaSA_,comdat
.LVL116:
.L76:
.LBB108:
.LBB99:
	.loc 2 121 20 view .LVU221
	movl	$0, %r13d
.LVL117:
	.loc 2 129 22 is_stmt 1 discriminator 1 view .LVU222
	jmp	.L65
.LVL118:
.L92:
	.loc 2 129 22 is_stmt 0 discriminator 1 view .LVU223
.LBE99:
.LBE108:
.LBB109:
.LBB104:
	.loc 2 172 20 view .LVU224
	movl	$0, %r13d
.LVL119:
	.loc 2 180 22 is_stmt 1 discriminator 1 view .LVU225
	jmp	.L70
.LBE104:
.LBE109:
.LBE110:
	.cfi_endproc
.LFE139:
	.size	_ZZN6Kernel7Console9printImplIJRmEEEvPKcNS0_10AttributesEDpOT_ENKUlOT_E_clIS2_EEDaSA_, .-_ZZN6Kernel7Console9printImplIJRmEEEvPKcNS0_10AttributesEDpOT_ENKUlOT_E_clIS2_EEDaSA_
	.section	.rodata._ZNK6Kernel14HeapLinkedList11printBlocksEv.str1.1,"aMS",@progbits,1
.LC3:
	.string	"Block: %p\n"
.LC4:
	.string	" Size: %d\n"
.LC5:
	.string	" Used: "
.LC6:
	.string	"true\n"
.LC7:
	.string	"false\n"
	.section	.text._ZNK6Kernel14HeapLinkedList11printBlocksEv,"axG",@progbits,_ZNK6Kernel14HeapLinkedList11printBlocksEv,comdat
	.align 2
	.weak	_ZNK6Kernel14HeapLinkedList11printBlocksEv
	.type	_ZNK6Kernel14HeapLinkedList11printBlocksEv, @function
_ZNK6Kernel14HeapLinkedList11printBlocksEv:
.LVL120:
.LFB80:
	.file 3 "src/kernel/../../include/Heap.h"
	.loc 3 84 14 view -0
	.cfi_startproc
	.loc 3 84 14 is_stmt 0 view .LVU227
	pushq	%rbp
	.cfi_def_cfa_offset 16
	.cfi_offset 6, -16
	movq	%rsp, %rbp
	.cfi_def_cfa_register 6
	pushq	%r15
	pushq	%r14
	pushq	%r13
	pushq	%r12
	pushq	%rbx
	subq	$72, %rsp
	.cfi_offset 15, -24
	.cfi_offset 14, -32
	.cfi_offset 13, -40
	.cfi_offset 12, -48
	.cfi_offset 3, -56
	.loc 3 86 13 is_stmt 1 view .LVU228
	.loc 3 86 20 is_stmt 0 view .LVU229
	movq	(%rdi), %r13
.LVL121:
	.loc 3 87 13 is_stmt 1 view .LVU230
	.loc 3 87 20 view .LVU231
	testq	%r13, %r13
	je	.L94
.LBB145:
.LBB146:
.LBB147:
.LBB148:
	.loc 2 203 14 is_stmt 0 view .LVU232
	leaq	-88(%rbp), %r15
	leaq	-97(%rbp), %r14
	jmp	.L105
.LVL122:
.L113:
	.loc 2 203 14 view .LVU233
.LBE148:
.LBE147:
.LBE146:
.LBE145:
.LBB154:
.LBB155:
	.loc 2 329 33 view .LVU234
	call	_ZN6Kernel7Console20clampDisplayToCursorEv
.LVL123:
	.loc 2 330 25 view .LVU235
	call	_ZN6Kernel7Console12updateCursorEv
.LVL124:
	.loc 2 331 23 view .LVU236
	call	_ZN6Kernel7Console10flushToVgaEv
.LVL125:
.L103:
.LBE155:
.LBE154:
	.loc 3 96 17 is_stmt 1 view .LVU237
	.loc 3 96 23 is_stmt 0 view .LVU238
	movq	8(%r13), %r13
.LVL126:
	.loc 3 87 20 is_stmt 1 view .LVU239
	testq	%r13, %r13
	je	.L94
.L105:
	.loc 3 89 17 view .LVU240
.LVL127:
	.loc 3 89 17 is_stmt 0 view .LVU241
	movq	%r13, -96(%rbp)
.LVL128:
.LBB159:
.LBI145:
	.loc 2 319 21 is_stmt 1 view .LVU242
	movq	$.LC3, -88(%rbp)
.LVL129:
	.loc 2 319 21 is_stmt 0 view .LVU243
	movb	$15, -97(%rbp)
.LVL130:
.LBB153:
.LBB152:
.LBI147:
	.loc 2 201 21 is_stmt 1 view .LVU244
.LBB151:
	.loc 2 203 14 is_stmt 0 view .LVU245
	movq	%r15, -80(%rbp)
	movq	%r14, -72(%rbp)
	.loc 2 313 20 view .LVU246
	leaq	-96(%rbp), %rsi
.LVL131:
	.loc 2 313 20 view .LVU247
	leaq	-80(%rbp), %rdi
	call	_ZZN6Kernel7Console9printImplIJRPNS_14HeapLinkedList5BlockEEEEvPKcNS0_10AttributesEDpOT_ENKUlOT_E_clIS5_EEDaSD_
.LVL132:
	.loc 2 314 22 view .LVU248
	movzbl	-97(%rbp), %r12d
	movq	-88(%rbp), %rbx
.LVL133:
.LBB149:
.LBI149:
	.loc 2 108 21 is_stmt 1 view .LVU249
.LBB150:
	.loc 2 110 39 discriminator 1 view .LVU250
	.loc 2 110 35 is_stmt 0 discriminator 1 view .LVU251
	movzbl	(%rbx), %edi
	.loc 2 110 39 discriminator 1 view .LVU252
	testb	%dil, %dil
	je	.L96
	.loc 2 110 39 discriminator 1 view .LVU253
	addq	$1, %rbx
.LVL134:
.L97:
	.loc 2 112 24 view .LVU254
	movzbl	%dil, %edi
	movl	%r12d, %esi
	call	_ZN6Kernel7Console7putCharEhNS0_10AttributesE
.LVL135:
	.loc 2 110 13 is_stmt 1 discriminator 3 view .LVU255
	.loc 2 110 39 discriminator 1 view .LVU256
	addq	$1, %rbx
	.loc 2 110 35 is_stmt 0 discriminator 1 view .LVU257
	movzbl	-1(%rbx), %edi
	.loc 2 110 39 discriminator 1 view .LVU258
	testb	%dil, %dil
	jne	.L97
.LVL136:
.L96:
	.loc 2 110 39 discriminator 1 view .LVU259
.LBE150:
.LBE149:
.LBE151:
.LBE152:
	.loc 2 329 33 view .LVU260
	call	_ZN6Kernel7Console20clampDisplayToCursorEv
.LVL137:
	.loc 2 330 25 view .LVU261
	call	_ZN6Kernel7Console12updateCursorEv
.LVL138:
	.loc 2 331 23 view .LVU262
	call	_ZN6Kernel7Console10flushToVgaEv
.LVL139:
	.loc 2 331 23 view .LVU263
.LBE153:
.LBE159:
	.loc 3 90 17 is_stmt 1 view .LVU264
.LBB160:
.LBI160:
	.loc 3 38 20 view .LVU265
.LBB161:
	.loc 3 40 17 view .LVU266
	.loc 3 40 58 is_stmt 0 view .LVU267
	movq	8(%r13), %rax
	subq	%r13, %rax
	.loc 3 40 108 view .LVU268
	subq	$32, %rax
	movq	%rax, -96(%rbp)
.LVL140:
	.loc 3 40 108 view .LVU269
.LBE161:
.LBE160:
.LBB162:
.LBI162:
	.loc 2 319 21 is_stmt 1 view .LVU270
	movq	$.LC4, -88(%rbp)
.LVL141:
	.loc 2 319 21 is_stmt 0 view .LVU271
	movb	$15, -97(%rbp)
.LVL142:
.LBB163:
.LBB164:
.LBI164:
	.loc 2 201 21 is_stmt 1 view .LVU272
.LBB165:
	.loc 2 203 14 is_stmt 0 view .LVU273
	movq	%r15, -64(%rbp)
	movq	%r14, -56(%rbp)
	.loc 2 313 20 view .LVU274
	leaq	-96(%rbp), %rsi
.LVL143:
	.loc 2 313 20 view .LVU275
	leaq	-64(%rbp), %rdi
	call	_ZZN6Kernel7Console9printImplIJRmEEEvPKcNS0_10AttributesEDpOT_ENKUlOT_E_clIS2_EEDaSA_
.LVL144:
	.loc 2 314 22 view .LVU276
	movzbl	-97(%rbp), %r12d
	movq	-88(%rbp), %rbx
.LVL145:
.LBB166:
.LBI166:
	.loc 2 108 21 is_stmt 1 view .LVU277
.LBB167:
	.loc 2 110 39 discriminator 1 view .LVU278
	.loc 2 110 35 is_stmt 0 discriminator 1 view .LVU279
	movzbl	(%rbx), %edi
	.loc 2 110 39 discriminator 1 view .LVU280
	testb	%dil, %dil
	je	.L98
	addq	$1, %rbx
.LVL146:
.L99:
	.loc 2 112 24 view .LVU281
	movzbl	%dil, %edi
	movl	%r12d, %esi
	call	_ZN6Kernel7Console7putCharEhNS0_10AttributesE
.LVL147:
	.loc 2 110 13 is_stmt 1 discriminator 3 view .LVU282
	.loc 2 110 39 discriminator 1 view .LVU283
	addq	$1, %rbx
	.loc 2 110 35 is_stmt 0 discriminator 1 view .LVU284
	movzbl	-1(%rbx), %edi
	.loc 2 110 39 discriminator 1 view .LVU285
	testb	%dil, %dil
	jne	.L99
.LVL148:
.L98:
	.loc 2 110 39 discriminator 1 view .LVU286
.LBE167:
.LBE166:
.LBE165:
.LBE164:
	.loc 2 329 33 view .LVU287
	call	_ZN6Kernel7Console20clampDisplayToCursorEv
.LVL149:
	.loc 2 330 25 view .LVU288
	call	_ZN6Kernel7Console12updateCursorEv
.LVL150:
	.loc 2 331 23 view .LVU289
	call	_ZN6Kernel7Console10flushToVgaEv
.LVL151:
	.loc 2 331 23 view .LVU290
.LBE163:
.LBE162:
	.loc 3 91 17 is_stmt 1 view .LVU291
.LBB168:
.LBI168:
	.loc 2 319 21 view .LVU292
.LBB169:
.LBB170:
.LBI170:
	.loc 2 108 21 view .LVU293
.LBB171:
	.loc 2 110 39 discriminator 1 view .LVU294
	movq	$.LC5+1, %rbx
	.loc 2 110 35 is_stmt 0 discriminator 1 view .LVU295
	movl	$32, %edi
.LVL152:
.L100:
	.loc 2 112 24 view .LVU296
	movzbl	%dil, %edi
	movl	$15, %esi
	call	_ZN6Kernel7Console7putCharEhNS0_10AttributesE
.LVL153:
	.loc 2 110 13 is_stmt 1 discriminator 3 view .LVU297
	.loc 2 110 39 discriminator 1 view .LVU298
	addq	$1, %rbx
.LVL154:
	.loc 2 110 35 is_stmt 0 discriminator 1 view .LVU299
	movzbl	-1(%rbx), %edi
	.loc 2 110 39 discriminator 1 view .LVU300
	testb	%dil, %dil
	jne	.L100
.LVL155:
	.loc 2 110 39 discriminator 1 view .LVU301
.LBE171:
.LBE170:
	.loc 2 329 33 view .LVU302
	call	_ZN6Kernel7Console20clampDisplayToCursorEv
.LVL156:
	.loc 2 330 25 view .LVU303
	call	_ZN6Kernel7Console12updateCursorEv
.LVL157:
	.loc 2 331 23 view .LVU304
	call	_ZN6Kernel7Console10flushToVgaEv
.LVL158:
	.loc 2 331 23 view .LVU305
.LBE169:
.LBE168:
	.loc 3 92 17 is_stmt 1 view .LVU306
.LBB172:
.LBI172:
	.loc 3 28 18 view .LVU307
	.loc 3 28 35 view .LVU308
.LBB173:
.LBI173:
	.file 4 "src/kernel/../../include/Utils.h"
	.loc 4 51 14 view .LVU309
	.loc 4 51 14 is_stmt 0 view .LVU310
.LBE173:
.LBE172:
	.loc 3 92 17 discriminator 1 view .LVU311
	testb	$1, 16(%r13)
	je	.L101
	movq	$.LC6+1, %rbx
.LBB174:
.LBB158:
.LBB156:
.LBB157:
	.loc 2 110 35 discriminator 1 view .LVU312
	movl	$116, %edi
.L102:
.LVL159:
	.loc 2 112 24 view .LVU313
	movzbl	%dil, %edi
	movl	$15, %esi
	call	_ZN6Kernel7Console7putCharEhNS0_10AttributesE
.LVL160:
	.loc 2 110 13 is_stmt 1 discriminator 3 view .LVU314
	.loc 2 110 39 discriminator 1 view .LVU315
	addq	$1, %rbx
.LVL161:
	.loc 2 110 35 is_stmt 0 discriminator 1 view .LVU316
	movzbl	-1(%rbx), %edi
	.loc 2 110 39 discriminator 1 view .LVU317
	testb	%dil, %dil
	jne	.L102
	jmp	.L113
.LVL162:
.L101:
	.loc 2 110 39 discriminator 1 view .LVU318
	movq	$.LC7+1, %rbx
.LBE157:
.LBE156:
.LBE158:
.LBE174:
.LBB175:
.LBB176:
.LBB177:
.LBB178:
	.loc 2 110 35 discriminator 1 view .LVU319
	movl	$102, %edi
.L104:
.LVL163:
	.loc 2 112 24 view .LVU320
	movzbl	%dil, %edi
	movl	$15, %esi
	call	_ZN6Kernel7Console7putCharEhNS0_10AttributesE
.LVL164:
	.loc 2 110 13 is_stmt 1 discriminator 3 view .LVU321
	.loc 2 110 39 discriminator 1 view .LVU322
	addq	$1, %rbx
.LVL165:
	.loc 2 110 35 is_stmt 0 discriminator 1 view .LVU323
	movzbl	-1(%rbx), %edi
	.loc 2 110 39 discriminator 1 view .LVU324
	testb	%dil, %dil
	jne	.L104
.LVL166:
	.loc 2 110 39 discriminator 1 view .LVU325
.LBE178:
.LBE177:
	.loc 2 329 33 view .LVU326
	call	_ZN6Kernel7Console20clampDisplayToCursorEv
.LVL167:
	.loc 2 330 25 view .LVU327
	call	_ZN6Kernel7Console12updateCursorEv
.LVL168:
	.loc 2 331 23 view .LVU328
	call	_ZN6Kernel7Console10flushToVgaEv
.LVL169:
	.loc 2 332 9 view .LVU329
	jmp	.L103
.L94:
	.loc 2 332 9 view .LVU330
.LBE176:
.LBE175:
	.loc 3 98 9 view .LVU331
	addq	$72, %rsp
	popq	%rbx
	.cfi_restore 3
	popq	%r12
	.cfi_restore 12
	popq	%r13
	.cfi_restore 13
.LVL170:
	.loc 3 98 9 view .LVU332
	popq	%r14
	.cfi_restore 14
	popq	%r15
	.cfi_restore 15
	popq	%rbp
	.cfi_restore 6
	.cfi_def_cfa 7, 8
	ret
	.cfi_endproc
.LFE80:
	.size	_ZNK6Kernel14HeapLinkedList11printBlocksEv, .-_ZNK6Kernel14HeapLinkedList11printBlocksEv
	.section	.text._ZZN6Kernel7Console9printImplIJRPvEEEvPKcNS0_10AttributesEDpOT_ENKUlOT_E_clIS3_EEDaSB_,"axG",@progbits,_ZZN6Kernel7Console9printImplIJRPvEEEvPKcNS0_10AttributesEDpOT_ENKUlOT_E_clIS3_EEDaSB_,comdat
	.align 2
	.weak	_ZZN6Kernel7Console9printImplIJRPvEEEvPKcNS0_10AttributesEDpOT_ENKUlOT_E_clIS3_EEDaSB_
	.type	_ZZN6Kernel7Console9printImplIJRPvEEEvPKcNS0_10AttributesEDpOT_ENKUlOT_E_clIS3_EEDaSB_, @function
_ZZN6Kernel7Console9printImplIJRPvEEEvPKcNS0_10AttributesEDpOT_ENKUlOT_E_clIS3_EEDaSB_:
.LVL171:
.LFB143:
	.loc 2 203 14 is_stmt 1 view -0
	.cfi_startproc
	.loc 2 203 14 is_stmt 0 view .LVU334
	pushq	%rbp
	.cfi_def_cfa_offset 16
	.cfi_offset 6, -16
	movq	%rsp, %rbp
	.cfi_def_cfa_register 6
	pushq	%r14
	pushq	%r13
	pushq	%r12
	pushq	%rbx
	.cfi_offset 14, -24
	.cfi_offset 13, -32
	.cfi_offset 12, -40
	.cfi_offset 3, -48
	movq	%rdi, %rbx
	movq	%rsi, %r12
.LBB190:
	.loc 2 206 28 is_stmt 1 view .LVU335
	movq	(%rdi), %rdx
	movq	(%rdx), %rax
	movzbl	(%rax), %edi
.LVL172:
	.loc 2 206 28 is_stmt 0 view .LVU336
	testb	%dil, %dil
	jne	.L138
	jmp	.L114
.LVL173:
.L124:
	.loc 2 219 40 view .LVU337
	movq	8(%rbx), %rax
	movzbl	(%rax), %esi
	movl	$37, %edi
	call	_ZN6Kernel7Console7putCharEhNS0_10AttributesE
.LVL174:
	.loc 2 220 40 view .LVU338
	movq	8(%rbx), %rax
	movzbl	(%rax), %esi
	movq	(%rbx), %rax
	movq	(%rax), %rax
	movzbl	(%rax), %edi
	call	_ZN6Kernel7Console7putCharEhNS0_10AttributesE
.LVL175:
.L127:
	.loc 2 305 25 view .LVU339
	movq	(%rbx), %rax
	addq	$1, (%rax)
.L114:
	.loc 2 305 25 view .LVU340
.LBE190:
	.loc 2 203 14 view .LVU341
	popq	%rbx
	.cfi_remember_state
	.cfi_restore 3
.LVL176:
	.loc 2 203 14 view .LVU342
	popq	%r12
	.cfi_restore 12
	popq	%r13
	.cfi_restore 13
	popq	%r14
	.cfi_restore 14
	popq	%rbp
	.cfi_restore 6
	.cfi_def_cfa 7, 8
	ret
.LVL177:
.L126:
	.cfi_restore_state
.LBB203:
	.loc 2 230 40 view .LVU343
	movq	8(%rbx), %rax
	movzbl	(%rax), %esi
	movl	$37, %edi
	call	_ZN6Kernel7Console7putCharEhNS0_10AttributesE
.LVL178:
	.loc 2 231 40 view .LVU344
	movq	8(%rbx), %rax
	movzbl	(%rax), %esi
	movq	(%rbx), %rax
	movq	(%rax), %rax
	movzbl	(%rax), %edi
	call	_ZN6Kernel7Console7putCharEhNS0_10AttributesE
.LVL179:
	.loc 2 233 29 view .LVU345
	jmp	.L127
.L119:
	.loc 2 241 40 view .LVU346
	movq	8(%rbx), %rax
	movzbl	(%rax), %esi
	movl	$37, %edi
	call	_ZN6Kernel7Console7putCharEhNS0_10AttributesE
.LVL180:
	.loc 2 242 40 view .LVU347
	movq	8(%rbx), %rax
	movzbl	(%rax), %esi
	movq	(%rbx), %rax
	movq	(%rax), %rax
	movzbl	(%rax), %edi
	call	_ZN6Kernel7Console7putCharEhNS0_10AttributesE
.LVL181:
	.loc 2 244 29 view .LVU348
	jmp	.L127
.L125:
	.loc 2 252 40 view .LVU349
	movq	8(%rbx), %rax
	movzbl	(%rax), %esi
	movl	$37, %edi
	call	_ZN6Kernel7Console7putCharEhNS0_10AttributesE
.LVL182:
	.loc 2 253 40 view .LVU350
	movq	8(%rbx), %rax
	movzbl	(%rax), %esi
	movq	(%rbx), %rax
	movq	(%rax), %rax
	movzbl	(%rax), %edi
	call	_ZN6Kernel7Console7putCharEhNS0_10AttributesE
.LVL183:
	.loc 2 255 29 view .LVU351
	jmp	.L127
.L123:
	.loc 2 259 42 view .LVU352
	movq	8(%rbx), %rax
	movzbl	(%rax), %r14d
	movq	(%r12), %r12
.LVL184:
.LBB191:
.LBI191:
	.loc 2 168 21 is_stmt 1 view .LVU353
.LBB192:
.LBB193:
.LBI193:
	.loc 2 108 21 view .LVU354
.LBB194:
	.loc 2 110 39 discriminator 1 view .LVU355
	movq	$.LC0+1, %r13
	.loc 2 110 35 is_stmt 0 discriminator 1 view .LVU356
	movl	$48, %edi
.LVL185:
.L128:
	.loc 2 112 24 view .LVU357
	movzbl	%dil, %edi
	movl	%r14d, %esi
	call	_ZN6Kernel7Console7putCharEhNS0_10AttributesE
.LVL186:
	.loc 2 110 13 is_stmt 1 discriminator 3 view .LVU358
	.loc 2 110 39 discriminator 1 view .LVU359
	addq	$1, %r13
.LVL187:
	.loc 2 110 35 is_stmt 0 discriminator 1 view .LVU360
	movzbl	-1(%r13), %edi
	.loc 2 110 39 discriminator 1 view .LVU361
	testb	%dil, %dil
	jne	.L128
.LVL188:
	.loc 2 110 39 discriminator 1 view .LVU362
.LBE194:
.LBE193:
	.loc 2 174 22 is_stmt 1 discriminator 1 view .LVU363
	.loc 2 176 17 is_stmt 0 view .LVU364
	movq	%r12, %r13
	shrq	$60, %r13
	jne	.L147
.LVL189:
.L130:
	.loc 2 178 21 view .LVU365
	salq	$4, %r12
.LVL190:
	.loc 2 174 13 is_stmt 1 view .LVU366
	addq	$1, %r13
.LVL191:
	.loc 2 174 22 discriminator 1 view .LVU367
	cmpq	$16, %r13
	je	.L127
	.loc 2 176 17 is_stmt 0 view .LVU368
	movq	%r12, %rax
	shrq	$60, %rax
	je	.L130
.L132:
	.loc 2 182 49 view .LVU369
	movq	%r12, %rax
	shrq	$60, %rax
	.loc 2 182 24 view .LVU370
	movzbl	.LC1(%rax), %edi
	movl	%r14d, %esi
	call	_ZN6Kernel7Console7putCharEhNS0_10AttributesE
.LVL192:
	.loc 2 183 21 view .LVU371
	salq	$4, %r12
.LVL193:
	.loc 2 180 13 is_stmt 1 discriminator 2 view .LVU372
	addq	$1, %r13
.LVL194:
	.loc 2 180 22 discriminator 1 view .LVU373
	cmpq	$16, %r13
	jne	.L132
	jmp	.L127
.LVL195:
.L122:
	.loc 2 180 22 is_stmt 0 discriminator 1 view .LVU374
.LBE192:
.LBE191:
	.loc 2 274 40 view .LVU375
	movq	8(%rbx), %rax
	movzbl	(%rax), %esi
	movl	$37, %edi
	call	_ZN6Kernel7Console7putCharEhNS0_10AttributesE
.LVL196:
	.loc 2 275 40 view .LVU376
	movq	8(%rbx), %rax
	movzbl	(%rax), %esi
	movq	(%rbx), %rax
	movq	(%rax), %rax
	movzbl	(%rax), %edi
	call	_ZN6Kernel7Console7putCharEhNS0_10AttributesE
.LVL197:
	.loc 2 277 29 view .LVU377
	jmp	.L127
.L121:
	.loc 2 289 42 view .LVU378
	movq	8(%rbx), %rax
	movzbl	(%rax), %r14d
	movq	(%r12), %r12
.LVL198:
.LBB196:
.LBI196:
	.loc 2 168 21 is_stmt 1 view .LVU379
.LBB197:
.LBB198:
.LBI198:
	.loc 2 108 21 view .LVU380
.LBB199:
	.loc 2 110 39 discriminator 1 view .LVU381
	movq	$.LC0+1, %r13
	.loc 2 110 35 is_stmt 0 discriminator 1 view .LVU382
	movl	$48, %edi
.LVL199:
.L133:
	.loc 2 112 24 view .LVU383
	movzbl	%dil, %edi
	movl	%r14d, %esi
	call	_ZN6Kernel7Console7putCharEhNS0_10AttributesE
.LVL200:
	.loc 2 110 13 is_stmt 1 discriminator 3 view .LVU384
	.loc 2 110 39 discriminator 1 view .LVU385
	addq	$1, %r13
.LVL201:
	.loc 2 110 35 is_stmt 0 discriminator 1 view .LVU386
	movzbl	-1(%r13), %edi
	.loc 2 110 39 discriminator 1 view .LVU387
	testb	%dil, %dil
	jne	.L133
.LVL202:
	.loc 2 110 39 discriminator 1 view .LVU388
.LBE199:
.LBE198:
	.loc 2 174 22 is_stmt 1 discriminator 1 view .LVU389
	.loc 2 176 17 is_stmt 0 view .LVU390
	movq	%r12, %r13
	shrq	$60, %r13
	jne	.L148
.LVL203:
.L135:
	.loc 2 178 21 view .LVU391
	salq	$4, %r12
.LVL204:
	.loc 2 174 13 is_stmt 1 view .LVU392
	addq	$1, %r13
.LVL205:
	.loc 2 174 22 discriminator 1 view .LVU393
	cmpq	$16, %r13
	je	.L127
	.loc 2 176 17 is_stmt 0 view .LVU394
	movq	%r12, %rax
	shrq	$60, %rax
	je	.L135
.L137:
	.loc 2 182 49 view .LVU395
	movq	%r12, %rax
	shrq	$60, %rax
	.loc 2 182 24 view .LVU396
	movzbl	.LC1(%rax), %edi
	movl	%r14d, %esi
	call	_ZN6Kernel7Console7putCharEhNS0_10AttributesE
.LVL206:
	.loc 2 183 21 view .LVU397
	salq	$4, %r12
.LVL207:
	.loc 2 180 13 is_stmt 1 discriminator 2 view .LVU398
	addq	$1, %r13
.LVL208:
	.loc 2 180 22 discriminator 1 view .LVU399
	cmpq	$16, %r13
	jne	.L137
	jmp	.L127
.LVL209:
.L117:
	.loc 2 180 22 is_stmt 0 discriminator 1 view .LVU400
.LBE197:
.LBE196:
	.loc 2 298 36 view .LVU401
	movq	8(%rbx), %rax
	movzbl	(%rax), %esi
	movl	$37, %edi
	call	_ZN6Kernel7Console7putCharEhNS0_10AttributesE
.LVL210:
	.loc 2 299 29 view .LVU402
	jmp	.L127
.L118:
	.loc 2 301 36 view .LVU403
	movq	8(%rbx), %rax
	movzbl	(%rax), %esi
	movl	$37, %edi
	call	_ZN6Kernel7Console7putCharEhNS0_10AttributesE
.LVL211:
	.loc 2 302 36 view .LVU404
	movq	8(%rbx), %rax
	movzbl	(%rax), %esi
	movq	(%rbx), %rax
	movq	(%rax), %rax
	movzbl	(%rax), %edi
	call	_ZN6Kernel7Console7putCharEhNS0_10AttributesE
.LVL212:
	.loc 2 303 29 view .LVU405
	jmp	.L127
.L116:
	.loc 2 310 32 view .LVU406
	movq	8(%rbx), %rax
	movzbl	(%rax), %esi
	movzbl	%dil, %edi
	call	_ZN6Kernel7Console7putCharEhNS0_10AttributesE
.LVL213:
	.loc 2 311 25 view .LVU407
	movq	(%rbx), %rax
	addq	$1, (%rax)
	.loc 2 206 28 is_stmt 1 view .LVU408
	movq	(%rbx), %rdx
	movq	(%rdx), %rax
	movzbl	(%rax), %edi
	testb	%dil, %dil
	je	.L114
.L138:
	.loc 2 208 21 is_stmt 0 view .LVU409
	cmpb	$37, %dil
	jne	.L116
	.loc 2 208 37 discriminator 1 view .LVU410
	cmpb	$0, 1(%rax)
	je	.L116
	.loc 2 210 25 view .LVU411
	leaq	1(%rax), %rcx
	movq	%rcx, (%rdx)
	movzbl	1(%rax), %eax
	cmpb	$37, %al
	je	.L117
	leal	-98(%rax), %edx
	cmpb	$22, %dl
	ja	.L118
	ja	.L118
	movzbl	%dl, %eax
	jmp	*.L120(,%rax,8)
	.section	.rodata._ZZN6Kernel7Console9printImplIJRPvEEEvPKcNS0_10AttributesEDpOT_ENKUlOT_E_clIS3_EEDaSB_,"aG",@progbits,_ZZN6Kernel7Console9printImplIJRPvEEEvPKcNS0_10AttributesEDpOT_ENKUlOT_E_clIS3_EEDaSB_,comdat
	.align 8
	.align 4
.L120:
	.quad	.L126
	.quad	.L125
	.quad	.L124
	.quad	.L118
	.quad	.L118
	.quad	.L118
	.quad	.L118
	.quad	.L118
	.quad	.L118
	.quad	.L118
	.quad	.L118
	.quad	.L118
	.quad	.L118
	.quad	.L118
	.quad	.L123
	.quad	.L118
	.quad	.L118
	.quad	.L122
	.quad	.L118
	.quad	.L118
	.quad	.L121
	.quad	.L118
	.quad	.L119
	.section	.text._ZZN6Kernel7Console9printImplIJRPvEEEvPKcNS0_10AttributesEDpOT_ENKUlOT_E_clIS3_EEDaSB_,"axG",@progbits,_ZZN6Kernel7Console9printImplIJRPvEEEvPKcNS0_10AttributesEDpOT_ENKUlOT_E_clIS3_EEDaSB_,comdat
.LVL214:
.L147:
.LBB201:
.LBB195:
	.loc 2 172 20 view .LVU412
	movl	$0, %r13d
.LVL215:
	.loc 2 180 22 is_stmt 1 discriminator 1 view .LVU413
	jmp	.L132
.LVL216:
.L148:
	.loc 2 180 22 is_stmt 0 discriminator 1 view .LVU414
.LBE195:
.LBE201:
.LBB202:
.LBB200:
	.loc 2 172 20 view .LVU415
	movl	$0, %r13d
.LVL217:
	.loc 2 180 22 is_stmt 1 discriminator 1 view .LVU416
	jmp	.L137
.LBE200:
.LBE202:
.LBE203:
	.cfi_endproc
.LFE143:
	.size	_ZZN6Kernel7Console9printImplIJRPvEEEvPKcNS0_10AttributesEDpOT_ENKUlOT_E_clIS3_EEDaSB_, .-_ZZN6Kernel7Console9printImplIJRPvEEEvPKcNS0_10AttributesEDpOT_ENKUlOT_E_clIS3_EEDaSB_
	.section	.text._ZN6Kernel7Console5printIJPvEEEvPKcDpT_,"axG",@progbits,_ZN6Kernel7Console5printIJPvEEEvPKcDpT_,comdat
	.weak	_ZN6Kernel7Console5printIJPvEEEvPKcDpT_
	.type	_ZN6Kernel7Console5printIJPvEEEvPKcDpT_, @function
_ZN6Kernel7Console5printIJPvEEEvPKcDpT_:
.LVL218:
.LFB123:
	.loc 2 319 21 view -0
	.cfi_startproc
	.loc 2 319 21 is_stmt 0 view .LVU418
	pushq	%rbp
	.cfi_def_cfa_offset 16
	.cfi_offset 6, -16
	movq	%rsp, %rbp
	.cfi_def_cfa_register 6
	pushq	%r12
	pushq	%rbx
	subq	$48, %rsp
	.cfi_offset 12, -24
	.cfi_offset 3, -32
	movq	%rsi, -56(%rbp)
	movq	%rdi, -40(%rbp)
.LVL219:
	.loc 2 319 21 view .LVU419
	movb	$15, -41(%rbp)
.LVL220:
.LBB209:
.LBI209:
	.loc 2 201 21 is_stmt 1 view .LVU420
.LBB210:
	.loc 2 203 14 is_stmt 0 view .LVU421
	leaq	-40(%rbp), %rax
	movq	%rax, -32(%rbp)
	leaq	-41(%rbp), %rax
.LVL221:
	.loc 2 203 14 view .LVU422
	movq	%rax, -24(%rbp)
	.loc 2 313 20 view .LVU423
	leaq	-56(%rbp), %rsi
.LVL222:
	.loc 2 313 20 view .LVU424
	leaq	-32(%rbp), %rdi
.LVL223:
	.loc 2 313 20 view .LVU425
	call	_ZZN6Kernel7Console9printImplIJRPvEEEvPKcNS0_10AttributesEDpOT_ENKUlOT_E_clIS3_EEDaSB_
.LVL224:
	.loc 2 314 22 view .LVU426
	movzbl	-41(%rbp), %r12d
	movq	-40(%rbp), %rbx
.LVL225:
.LBB211:
.LBI211:
	.loc 2 108 21 is_stmt 1 view .LVU427
.LBB212:
	.loc 2 110 39 discriminator 1 view .LVU428
	.loc 2 110 35 is_stmt 0 discriminator 1 view .LVU429
	movzbl	(%rbx), %edi
	.loc 2 110 39 discriminator 1 view .LVU430
	testb	%dil, %dil
	je	.L150
	addq	$1, %rbx
.LVL226:
.L151:
	.loc 2 112 24 view .LVU431
	movzbl	%dil, %edi
	movl	%r12d, %esi
	call	_ZN6Kernel7Console7putCharEhNS0_10AttributesE
.LVL227:
	.loc 2 110 13 is_stmt 1 discriminator 3 view .LVU432
	.loc 2 110 39 discriminator 1 view .LVU433
	addq	$1, %rbx
	.loc 2 110 35 is_stmt 0 discriminator 1 view .LVU434
	movzbl	-1(%rbx), %edi
	.loc 2 110 39 discriminator 1 view .LVU435
	testb	%dil, %dil
	jne	.L151
.LVL228:
.L150:
	.loc 2 110 39 discriminator 1 view .LVU436
.LBE212:
.LBE211:
.LBE210:
.LBE209:
	.loc 2 329 33 view .LVU437
	call	_ZN6Kernel7Console20clampDisplayToCursorEv
.LVL229:
	.loc 2 330 25 view .LVU438
	call	_ZN6Kernel7Console12updateCursorEv
.LVL230:
	.loc 2 331 23 view .LVU439
	call	_ZN6Kernel7Console10flushToVgaEv
.LVL231:
	.loc 2 332 9 view .LVU440
	addq	$48, %rsp
	popq	%rbx
	.cfi_restore 3
	popq	%r12
	.cfi_restore 12
	popq	%rbp
	.cfi_restore 6
	.cfi_def_cfa 7, 8
	ret
	.cfi_endproc
.LFE123:
	.size	_ZN6Kernel7Console5printIJPvEEEvPKcDpT_, .-_ZN6Kernel7Console5printIJPvEEEvPKcDpT_
	.section	.text._ZZN6Kernel7Console9printImplIJRPhEEEvPKcNS0_10AttributesEDpOT_ENKUlOT_E_clIS3_EEDaSB_,"axG",@progbits,_ZZN6Kernel7Console9printImplIJRPhEEEvPKcNS0_10AttributesEDpOT_ENKUlOT_E_clIS3_EEDaSB_,comdat
	.align 2
	.weak	_ZZN6Kernel7Console9printImplIJRPhEEEvPKcNS0_10AttributesEDpOT_ENKUlOT_E_clIS3_EEDaSB_
	.type	_ZZN6Kernel7Console9printImplIJRPhEEEvPKcNS0_10AttributesEDpOT_ENKUlOT_E_clIS3_EEDaSB_, @function
_ZZN6Kernel7Console9printImplIJRPhEEEvPKcNS0_10AttributesEDpOT_ENKUlOT_E_clIS3_EEDaSB_:
.LVL232:
.LFB146:
	.loc 2 203 14 is_stmt 1 view -0
	.cfi_startproc
	.loc 2 203 14 is_stmt 0 view .LVU442
	pushq	%rbp
	.cfi_def_cfa_offset 16
	.cfi_offset 6, -16
	movq	%rsp, %rbp
	.cfi_def_cfa_register 6
	pushq	%r14
	pushq	%r13
	pushq	%r12
	pushq	%rbx
	.cfi_offset 14, -24
	.cfi_offset 13, -32
	.cfi_offset 12, -40
	.cfi_offset 3, -48
	movq	%rdi, %rbx
	movq	%rsi, %r12
.LBB225:
	.loc 2 206 28 is_stmt 1 view .LVU443
	movq	(%rdi), %rdx
	movq	(%rdx), %rax
	movzbl	(%rax), %edi
.LVL233:
	.loc 2 206 28 is_stmt 0 view .LVU444
	testb	%dil, %dil
	jne	.L175
	jmp	.L154
.LVL234:
.L164:
	.loc 2 219 40 view .LVU445
	movq	8(%rbx), %rax
	movzbl	(%rax), %esi
	movl	$37, %edi
	call	_ZN6Kernel7Console7putCharEhNS0_10AttributesE
.LVL235:
	.loc 2 220 40 view .LVU446
	movq	8(%rbx), %rax
	movzbl	(%rax), %esi
	movq	(%rbx), %rax
	movq	(%rax), %rax
	movzbl	(%rax), %edi
	call	_ZN6Kernel7Console7putCharEhNS0_10AttributesE
.LVL236:
.L167:
	.loc 2 305 25 view .LVU447
	movq	(%rbx), %rax
	addq	$1, (%rax)
.L154:
	.loc 2 305 25 view .LVU448
.LBE225:
	.loc 2 203 14 view .LVU449
	popq	%rbx
	.cfi_remember_state
	.cfi_restore 3
.LVL237:
	.loc 2 203 14 view .LVU450
	popq	%r12
	.cfi_restore 12
	popq	%r13
	.cfi_restore 13
	popq	%r14
	.cfi_restore 14
	popq	%rbp
	.cfi_restore 6
	.cfi_def_cfa 7, 8
	ret
.LVL238:
.L166:
	.cfi_restore_state
.LBB236:
	.loc 2 230 40 view .LVU451
	movq	8(%rbx), %rax
	movzbl	(%rax), %esi
	movl	$37, %edi
	call	_ZN6Kernel7Console7putCharEhNS0_10AttributesE
.LVL239:
	.loc 2 231 40 view .LVU452
	movq	8(%rbx), %rax
	movzbl	(%rax), %esi
	movq	(%rbx), %rax
	movq	(%rax), %rax
	movzbl	(%rax), %edi
	call	_ZN6Kernel7Console7putCharEhNS0_10AttributesE
.LVL240:
	.loc 2 233 29 view .LVU453
	jmp	.L167
.L159:
	.loc 2 241 40 view .LVU454
	movq	8(%rbx), %rax
	movzbl	(%rax), %esi
	movl	$37, %edi
	call	_ZN6Kernel7Console7putCharEhNS0_10AttributesE
.LVL241:
	.loc 2 242 40 view .LVU455
	movq	8(%rbx), %rax
	movzbl	(%rax), %esi
	movq	(%rbx), %rax
	movq	(%rax), %rax
	movzbl	(%rax), %edi
	call	_ZN6Kernel7Console7putCharEhNS0_10AttributesE
.LVL242:
	.loc 2 244 29 view .LVU456
	jmp	.L167
.L165:
	.loc 2 252 40 view .LVU457
	movq	8(%rbx), %rax
	movzbl	(%rax), %esi
	movl	$37, %edi
	call	_ZN6Kernel7Console7putCharEhNS0_10AttributesE
.LVL243:
	.loc 2 253 40 view .LVU458
	movq	8(%rbx), %rax
	movzbl	(%rax), %esi
	movq	(%rbx), %rax
	movq	(%rax), %rax
	movzbl	(%rax), %edi
	call	_ZN6Kernel7Console7putCharEhNS0_10AttributesE
.LVL244:
	.loc 2 255 29 view .LVU459
	jmp	.L167
.L163:
	.loc 2 259 42 view .LVU460
	movq	8(%rbx), %rax
	movzbl	(%rax), %r14d
	movq	(%r12), %r12
.LVL245:
.LBB226:
.LBI226:
	.loc 2 168 21 is_stmt 1 view .LVU461
.LBB227:
.LBB228:
.LBI228:
	.loc 2 108 21 view .LVU462
.LBB229:
	.loc 2 110 39 discriminator 1 view .LVU463
	movq	$.LC0+1, %r13
	.loc 2 110 35 is_stmt 0 discriminator 1 view .LVU464
	movl	$48, %edi
.LVL246:
.L168:
	.loc 2 112 24 view .LVU465
	movzbl	%dil, %edi
	movl	%r14d, %esi
	call	_ZN6Kernel7Console7putCharEhNS0_10AttributesE
.LVL247:
	.loc 2 110 13 is_stmt 1 discriminator 3 view .LVU466
	.loc 2 110 39 discriminator 1 view .LVU467
	addq	$1, %r13
.LVL248:
	.loc 2 110 35 is_stmt 0 discriminator 1 view .LVU468
	movzbl	-1(%r13), %edi
	.loc 2 110 39 discriminator 1 view .LVU469
	testb	%dil, %dil
	jne	.L168
.LVL249:
	.loc 2 110 39 discriminator 1 view .LVU470
.LBE229:
.LBE228:
	.loc 2 174 22 is_stmt 1 discriminator 1 view .LVU471
	.loc 2 176 17 is_stmt 0 view .LVU472
	movq	%r12, %r13
	shrq	$60, %r13
	jne	.L183
.LVL250:
.L170:
	.loc 2 178 21 view .LVU473
	salq	$4, %r12
.LVL251:
	.loc 2 174 13 is_stmt 1 view .LVU474
	addq	$1, %r13
.LVL252:
	.loc 2 174 22 discriminator 1 view .LVU475
	cmpq	$16, %r13
	je	.L167
	.loc 2 176 17 is_stmt 0 view .LVU476
	movq	%r12, %rax
	shrq	$60, %rax
	je	.L170
.L172:
	.loc 2 182 49 view .LVU477
	movq	%r12, %rax
	shrq	$60, %rax
	.loc 2 182 24 view .LVU478
	movzbl	.LC1(%rax), %edi
	movl	%r14d, %esi
	call	_ZN6Kernel7Console7putCharEhNS0_10AttributesE
.LVL253:
	.loc 2 183 21 view .LVU479
	salq	$4, %r12
.LVL254:
	.loc 2 180 13 is_stmt 1 discriminator 2 view .LVU480
	addq	$1, %r13
.LVL255:
	.loc 2 180 22 discriminator 1 view .LVU481
	cmpq	$16, %r13
	jne	.L172
	jmp	.L167
.LVL256:
.L162:
	.loc 2 180 22 is_stmt 0 discriminator 1 view .LVU482
.LBE227:
.LBE226:
	.loc 2 270 42 view .LVU483
	movq	8(%rbx), %rax
	movzbl	(%rax), %r13d
	movq	(%r12), %r12
.LVL257:
.LBB231:
.LBI231:
	.loc 2 108 21 is_stmt 1 view .LVU484
.LBB232:
	.loc 2 110 39 discriminator 1 view .LVU485
	.loc 2 110 35 is_stmt 0 discriminator 1 view .LVU486
	movzbl	(%r12), %edi
	.loc 2 110 39 discriminator 1 view .LVU487
	testb	%dil, %dil
	je	.L167
	addq	$1, %r12
.LVL258:
.L173:
	.loc 2 112 24 view .LVU488
	movzbl	%dil, %edi
	movl	%r13d, %esi
	call	_ZN6Kernel7Console7putCharEhNS0_10AttributesE
.LVL259:
	.loc 2 110 13 is_stmt 1 discriminator 3 view .LVU489
	.loc 2 110 39 discriminator 1 view .LVU490
	addq	$1, %r12
	.loc 2 110 35 is_stmt 0 discriminator 1 view .LVU491
	movzbl	-1(%r12), %edi
	.loc 2 110 39 discriminator 1 view .LVU492
	testb	%dil, %dil
	jne	.L173
	jmp	.L167
.LVL260:
.L161:
	.loc 2 110 39 discriminator 1 view .LVU493
.LBE232:
.LBE231:
	.loc 2 286 42 view .LVU494
	movq	8(%rbx), %rax
	movzbl	(%rax), %r13d
	movq	(%r12), %r12
.LVL261:
.LBB233:
.LBI233:
	.loc 2 108 21 is_stmt 1 view .LVU495
.LBB234:
	.loc 2 110 39 discriminator 1 view .LVU496
	.loc 2 110 35 is_stmt 0 discriminator 1 view .LVU497
	movzbl	(%r12), %edi
	.loc 2 110 39 discriminator 1 view .LVU498
	testb	%dil, %dil
	je	.L167
	addq	$1, %r12
.LVL262:
.L174:
	.loc 2 112 24 view .LVU499
	movzbl	%dil, %edi
	movl	%r13d, %esi
	call	_ZN6Kernel7Console7putCharEhNS0_10AttributesE
.LVL263:
	.loc 2 110 13 is_stmt 1 discriminator 3 view .LVU500
	.loc 2 110 39 discriminator 1 view .LVU501
	addq	$1, %r12
	.loc 2 110 35 is_stmt 0 discriminator 1 view .LVU502
	movzbl	-1(%r12), %edi
	.loc 2 110 39 discriminator 1 view .LVU503
	testb	%dil, %dil
	jne	.L174
	jmp	.L167
.LVL264:
.L157:
	.loc 2 110 39 discriminator 1 view .LVU504
.LBE234:
.LBE233:
	.loc 2 298 36 view .LVU505
	movq	8(%rbx), %rax
	movzbl	(%rax), %esi
	movl	$37, %edi
	call	_ZN6Kernel7Console7putCharEhNS0_10AttributesE
.LVL265:
	.loc 2 299 29 view .LVU506
	jmp	.L167
.L158:
	.loc 2 301 36 view .LVU507
	movq	8(%rbx), %rax
	movzbl	(%rax), %esi
	movl	$37, %edi
	call	_ZN6Kernel7Console7putCharEhNS0_10AttributesE
.LVL266:
	.loc 2 302 36 view .LVU508
	movq	8(%rbx), %rax
	movzbl	(%rax), %esi
	movq	(%rbx), %rax
	movq	(%rax), %rax
	movzbl	(%rax), %edi
	call	_ZN6Kernel7Console7putCharEhNS0_10AttributesE
.LVL267:
	.loc 2 303 29 view .LVU509
	jmp	.L167
.L156:
	.loc 2 310 32 view .LVU510
	movq	8(%rbx), %rax
	movzbl	(%rax), %esi
	movzbl	%dil, %edi
	call	_ZN6Kernel7Console7putCharEhNS0_10AttributesE
.LVL268:
	.loc 2 311 25 view .LVU511
	movq	(%rbx), %rax
	addq	$1, (%rax)
	.loc 2 206 28 is_stmt 1 view .LVU512
	movq	(%rbx), %rdx
	movq	(%rdx), %rax
	movzbl	(%rax), %edi
	testb	%dil, %dil
	je	.L154
.L175:
	.loc 2 208 21 is_stmt 0 view .LVU513
	cmpb	$37, %dil
	jne	.L156
	.loc 2 208 37 discriminator 1 view .LVU514
	cmpb	$0, 1(%rax)
	je	.L156
	.loc 2 210 25 view .LVU515
	leaq	1(%rax), %rcx
	movq	%rcx, (%rdx)
	movzbl	1(%rax), %eax
	cmpb	$37, %al
	je	.L157
	leal	-98(%rax), %edx
	cmpb	$22, %dl
	ja	.L158
	ja	.L158
	movzbl	%dl, %eax
	jmp	*.L160(,%rax,8)
	.section	.rodata._ZZN6Kernel7Console9printImplIJRPhEEEvPKcNS0_10AttributesEDpOT_ENKUlOT_E_clIS3_EEDaSB_,"aG",@progbits,_ZZN6Kernel7Console9printImplIJRPhEEEvPKcNS0_10AttributesEDpOT_ENKUlOT_E_clIS3_EEDaSB_,comdat
	.align 8
	.align 4
.L160:
	.quad	.L166
	.quad	.L165
	.quad	.L164
	.quad	.L158
	.quad	.L158
	.quad	.L158
	.quad	.L158
	.quad	.L158
	.quad	.L158
	.quad	.L158
	.quad	.L158
	.quad	.L158
	.quad	.L158
	.quad	.L158
	.quad	.L163
	.quad	.L158
	.quad	.L158
	.quad	.L162
	.quad	.L158
	.quad	.L158
	.quad	.L161
	.quad	.L158
	.quad	.L159
	.section	.text._ZZN6Kernel7Console9printImplIJRPhEEEvPKcNS0_10AttributesEDpOT_ENKUlOT_E_clIS3_EEDaSB_,"axG",@progbits,_ZZN6Kernel7Console9printImplIJRPhEEEvPKcNS0_10AttributesEDpOT_ENKUlOT_E_clIS3_EEDaSB_,comdat
.LVL269:
.L183:
.LBB235:
.LBB230:
	.loc 2 172 20 view .LVU516
	movl	$0, %r13d
.LVL270:
	.loc 2 180 22 is_stmt 1 discriminator 1 view .LVU517
	jmp	.L172
.LBE230:
.LBE235:
.LBE236:
	.cfi_endproc
.LFE146:
	.size	_ZZN6Kernel7Console9printImplIJRPhEEEvPKcNS0_10AttributesEDpOT_ENKUlOT_E_clIS3_EEDaSB_, .-_ZZN6Kernel7Console9printImplIJRPhEEEvPKcNS0_10AttributesEDpOT_ENKUlOT_E_clIS3_EEDaSB_
	.section	.text._ZN6Kernel7Console5printIJPhEEEvPKcDpT_,"axG",@progbits,_ZN6Kernel7Console5printIJPhEEEvPKcDpT_,comdat
	.weak	_ZN6Kernel7Console5printIJPhEEEvPKcDpT_
	.type	_ZN6Kernel7Console5printIJPhEEEvPKcDpT_, @function
_ZN6Kernel7Console5printIJPhEEEvPKcDpT_:
.LVL271:
.LFB124:
	.loc 2 319 21 view -0
	.cfi_startproc
	.loc 2 319 21 is_stmt 0 view .LVU519
	pushq	%rbp
	.cfi_def_cfa_offset 16
	.cfi_offset 6, -16
	movq	%rsp, %rbp
	.cfi_def_cfa_register 6
	pushq	%r12
	pushq	%rbx
	subq	$48, %rsp
	.cfi_offset 12, -24
	.cfi_offset 3, -32
	movq	%rsi, -56(%rbp)
	movq	%rdi, -40(%rbp)
.LVL272:
	.loc 2 319 21 view .LVU520
	movb	$15, -41(%rbp)
.LVL273:
.LBB242:
.LBI242:
	.loc 2 201 21 is_stmt 1 view .LVU521
.LBB243:
	.loc 2 203 14 is_stmt 0 view .LVU522
	leaq	-40(%rbp), %rax
	movq	%rax, -32(%rbp)
	leaq	-41(%rbp), %rax
.LVL274:
	.loc 2 203 14 view .LVU523
	movq	%rax, -24(%rbp)
	.loc 2 313 20 view .LVU524
	leaq	-56(%rbp), %rsi
.LVL275:
	.loc 2 313 20 view .LVU525
	leaq	-32(%rbp), %rdi
.LVL276:
	.loc 2 313 20 view .LVU526
	call	_ZZN6Kernel7Console9printImplIJRPhEEEvPKcNS0_10AttributesEDpOT_ENKUlOT_E_clIS3_EEDaSB_
.LVL277:
	.loc 2 314 22 view .LVU527
	movzbl	-41(%rbp), %r12d
	movq	-40(%rbp), %rbx
.LVL278:
.LBB244:
.LBI244:
	.loc 2 108 21 is_stmt 1 view .LVU528
.LBB245:
	.loc 2 110 39 discriminator 1 view .LVU529
	.loc 2 110 35 is_stmt 0 discriminator 1 view .LVU530
	movzbl	(%rbx), %edi
	.loc 2 110 39 discriminator 1 view .LVU531
	testb	%dil, %dil
	je	.L185
	addq	$1, %rbx
.LVL279:
.L186:
	.loc 2 112 24 view .LVU532
	movzbl	%dil, %edi
	movl	%r12d, %esi
	call	_ZN6Kernel7Console7putCharEhNS0_10AttributesE
.LVL280:
	.loc 2 110 13 is_stmt 1 discriminator 3 view .LVU533
	.loc 2 110 39 discriminator 1 view .LVU534
	addq	$1, %rbx
	.loc 2 110 35 is_stmt 0 discriminator 1 view .LVU535
	movzbl	-1(%rbx), %edi
	.loc 2 110 39 discriminator 1 view .LVU536
	testb	%dil, %dil
	jne	.L186
.LVL281:
.L185:
	.loc 2 110 39 discriminator 1 view .LVU537
.LBE245:
.LBE244:
.LBE243:
.LBE242:
	.loc 2 329 33 view .LVU538
	call	_ZN6Kernel7Console20clampDisplayToCursorEv
.LVL282:
	.loc 2 330 25 view .LVU539
	call	_ZN6Kernel7Console12updateCursorEv
.LVL283:
	.loc 2 331 23 view .LVU540
	call	_ZN6Kernel7Console10flushToVgaEv
.LVL284:
	.loc 2 332 9 view .LVU541
	addq	$48, %rsp
	popq	%rbx
	.cfi_restore 3
	popq	%r12
	.cfi_restore 12
	popq	%rbp
	.cfi_restore 6
	.cfi_def_cfa 7, 8
	ret
	.cfi_endproc
.LFE124:
	.size	_ZN6Kernel7Console5printIJPhEEEvPKcDpT_, .-_ZN6Kernel7Console5printIJPhEEEvPKcDpT_
	.section	.text._ZZN6Kernel7Console9printImplIJRyEEEvPKcNS0_10AttributesEDpOT_ENKUlOT_E_clIS2_EEDaSA_,"axG",@progbits,_ZZN6Kernel7Console9printImplIJRyEEEvPKcNS0_10AttributesEDpOT_ENKUlOT_E_clIS2_EEDaSA_,comdat
	.align 2
	.weak	_ZZN6Kernel7Console9printImplIJRyEEEvPKcNS0_10AttributesEDpOT_ENKUlOT_E_clIS2_EEDaSA_
	.type	_ZZN6Kernel7Console9printImplIJRyEEEvPKcNS0_10AttributesEDpOT_ENKUlOT_E_clIS2_EEDaSA_, @function
_ZZN6Kernel7Console9printImplIJRyEEEvPKcNS0_10AttributesEDpOT_ENKUlOT_E_clIS2_EEDaSA_:
.LVL285:
.LFB149:
	.loc 2 203 14 is_stmt 1 view -0
	.cfi_startproc
	.loc 2 203 14 is_stmt 0 view .LVU543
	pushq	%rbp
	.cfi_def_cfa_offset 16
	.cfi_offset 6, -16
	movq	%rsp, %rbp
	.cfi_def_cfa_register 6
	pushq	%r14
	pushq	%r13
	pushq	%r12
	pushq	%rbx
	subq	$32, %rsp
	.cfi_offset 14, -24
	.cfi_offset 13, -32
	.cfi_offset 12, -40
	.cfi_offset 3, -48
	movq	%rdi, %rbx
	movq	%rsi, %r12
.LBB263:
	.loc 2 206 28 is_stmt 1 view .LVU544
	movq	(%rdi), %rdx
	movq	(%rdx), %rax
	movzbl	(%rax), %edi
.LVL286:
	.loc 2 206 28 is_stmt 0 view .LVU545
	testb	%dil, %dil
	jne	.L219
	jmp	.L189
.LVL287:
.L199:
	.loc 2 215 42 view .LVU546
	movq	8(%rbx), %rax
	movzbl	(%rax), %r13d
	movq	(%r12), %rcx
.LVL288:
.LBB264:
.LBI264:
	.loc 2 137 21 is_stmt 1 view .LVU547
.LBB265:
	.loc 2 154 20 is_stmt 0 view .LVU548
	movl	$0, %esi
	.loc 2 158 41 view .LVU549
	movabsq	$-3689348814741910323, %r8
	.loc 2 140 13 view .LVU550
	testq	%rcx, %rcx
	je	.L236
.LVL289:
.L202:
	.loc 2 158 41 view .LVU551
	movq	%rcx, %rax
	mulq	%r8
	shrq	$3, %rdx
	leaq	(%rdx,%rdx,4), %rdi
	addq	%rdi, %rdi
	movq	%rcx, %rax
	subq	%rdi, %rax
	.loc 2 158 35 view .LVU552
	addl	$48, %eax
	movb	%al, -64(%rbp,%rsi)
	movq	%rcx, %rax
	.loc 2 159 21 view .LVU553
	movq	%rdx, %rcx
.LVL290:
	.loc 2 159 21 view .LVU554
	movq	%rsi, %r12
	.loc 2 160 17 view .LVU555
	addq	$1, %rsi
.LVL291:
	.loc 2 156 24 is_stmt 1 view .LVU556
	cmpq	$9, %rax
	ja	.L202
.LVL292:
.LBB266:
	.loc 2 163 34 discriminator 1 view .LVU557
	testq	%rsi, %rsi
	je	.L203
	.loc 2 163 34 is_stmt 0 discriminator 1 view .LVU558
	leaq	-64(%rbp), %r14
	addq	%r14, %r12
.LVL293:
.L205:
	.loc 2 164 24 view .LVU559
	movzbl	(%r12), %edi
	movl	%r13d, %esi
	call	_ZN6Kernel7Console7putCharEhNS0_10AttributesE
.LVL294:
	.loc 2 163 13 is_stmt 1 discriminator 3 view .LVU560
	.loc 2 163 34 discriminator 1 view .LVU561
	movq	%r12, %rax
	subq	$1, %r12
	cmpq	%r14, %rax
	jne	.L205
	jmp	.L203
.LVL295:
.L236:
	.loc 2 163 34 is_stmt 0 discriminator 1 view .LVU562
.LBE266:
	.loc 2 142 24 view .LVU563
	movl	%r13d, %esi
	movl	$48, %edi
	call	_ZN6Kernel7Console7putCharEhNS0_10AttributesE
.LVL296:
	.loc 2 142 24 view .LVU564
	jmp	.L203
.LVL297:
.L201:
	.loc 2 142 24 view .LVU565
.LBE265:
.LBE264:
	.loc 2 226 42 view .LVU566
	movq	8(%rbx), %rax
	movzbl	(%rax), %r14d
	movq	(%r12), %r12
.LVL298:
.LBB267:
.LBI267:
	.loc 2 117 21 is_stmt 1 view .LVU567
.LBB268:
.LBB269:
.LBI269:
	.loc 2 108 21 view .LVU568
.LBB270:
	.loc 2 110 39 discriminator 1 view .LVU569
	movq	$.LC2+1, %r13
	.loc 2 110 35 is_stmt 0 discriminator 1 view .LVU570
	movl	$48, %edi
.LVL299:
.L206:
	.loc 2 112 24 view .LVU571
	movzbl	%dil, %edi
	movl	%r14d, %esi
	call	_ZN6Kernel7Console7putCharEhNS0_10AttributesE
.LVL300:
	.loc 2 110 13 is_stmt 1 discriminator 3 view .LVU572
	.loc 2 110 39 discriminator 1 view .LVU573
	addq	$1, %r13
.LVL301:
	.loc 2 110 35 is_stmt 0 discriminator 1 view .LVU574
	movzbl	-1(%r13), %edi
	.loc 2 110 39 discriminator 1 view .LVU575
	testb	%dil, %dil
	jne	.L206
.LVL302:
	.loc 2 110 39 discriminator 1 view .LVU576
.LBE270:
.LBE269:
	.loc 2 123 22 is_stmt 1 discriminator 1 view .LVU577
	.loc 2 125 17 is_stmt 0 view .LVU578
	testq	%r12, %r12
	js	.L221
	.loc 2 121 20 view .LVU579
	movl	$0, %r13d
.LVL303:
.L208:
	.loc 2 127 21 view .LVU580
	addq	%r12, %r12
.LVL304:
	.loc 2 123 13 is_stmt 1 view .LVU581
	addq	$1, %r13
.LVL305:
	.loc 2 123 22 discriminator 1 view .LVU582
	cmpq	$64, %r13
	je	.L203
	.loc 2 125 17 is_stmt 0 view .LVU583
	testq	%r12, %r12
	jns	.L208
.L210:
	.loc 2 131 36 view .LVU584
	movq	%r12, %rax
	shrq	$63, %rax
	.loc 2 131 24 view .LVU585
	leal	48(%rax), %edi
	movl	%r14d, %esi
	call	_ZN6Kernel7Console7putCharEhNS0_10AttributesE
.LVL306:
	.loc 2 132 21 view .LVU586
	addq	%r12, %r12
.LVL307:
	.loc 2 129 13 is_stmt 1 discriminator 2 view .LVU587
	addq	$1, %r13
.LVL308:
	.loc 2 129 22 discriminator 1 view .LVU588
	cmpq	$64, %r13
	jne	.L210
	jmp	.L203
.LVL309:
.L194:
	.loc 2 129 22 is_stmt 0 discriminator 1 view .LVU589
.LBE268:
.LBE267:
	.loc 2 237 42 view .LVU590
	movq	8(%rbx), %rax
	movzbl	(%rax), %r14d
	movq	(%r12), %r12
.LVL310:
.LBB272:
.LBI272:
	.loc 2 168 21 is_stmt 1 view .LVU591
.LBB273:
.LBB274:
.LBI274:
	.loc 2 108 21 view .LVU592
.LBB275:
	.loc 2 110 39 discriminator 1 view .LVU593
	movq	$.LC0+1, %r13
	.loc 2 110 35 is_stmt 0 discriminator 1 view .LVU594
	movl	$48, %edi
.LVL311:
.L211:
	.loc 2 112 24 view .LVU595
	movzbl	%dil, %edi
	movl	%r14d, %esi
	call	_ZN6Kernel7Console7putCharEhNS0_10AttributesE
.LVL312:
	.loc 2 110 13 is_stmt 1 discriminator 3 view .LVU596
	.loc 2 110 39 discriminator 1 view .LVU597
	addq	$1, %r13
.LVL313:
	.loc 2 110 35 is_stmt 0 discriminator 1 view .LVU598
	movzbl	-1(%r13), %edi
	.loc 2 110 39 discriminator 1 view .LVU599
	testb	%dil, %dil
	jne	.L211
.LVL314:
	.loc 2 110 39 discriminator 1 view .LVU600
.LBE275:
.LBE274:
	.loc 2 174 22 is_stmt 1 discriminator 1 view .LVU601
	.loc 2 176 17 is_stmt 0 view .LVU602
	movq	%r12, %r13
	shrq	$60, %r13
	jne	.L237
.LVL315:
.L213:
	.loc 2 178 21 view .LVU603
	salq	$4, %r12
.LVL316:
	.loc 2 174 13 is_stmt 1 view .LVU604
	addq	$1, %r13
.LVL317:
	.loc 2 174 22 discriminator 1 view .LVU605
	cmpq	$16, %r13
	je	.L203
	.loc 2 176 17 is_stmt 0 view .LVU606
	movq	%r12, %rax
	shrq	$60, %rax
	je	.L213
.L215:
	.loc 2 182 49 view .LVU607
	movq	%r12, %rax
	shrq	$60, %rax
	.loc 2 182 24 view .LVU608
	movzbl	.LC1(%rax), %edi
	movl	%r14d, %esi
	call	_ZN6Kernel7Console7putCharEhNS0_10AttributesE
.LVL318:
	.loc 2 183 21 view .LVU609
	salq	$4, %r12
.LVL319:
	.loc 2 180 13 is_stmt 1 discriminator 2 view .LVU610
	addq	$1, %r13
.LVL320:
	.loc 2 180 22 discriminator 1 view .LVU611
	cmpq	$16, %r13
	jne	.L215
	jmp	.L203
.LVL321:
.L200:
	.loc 2 180 22 is_stmt 0 discriminator 1 view .LVU612
.LBE273:
.LBE272:
	.loc 2 252 40 view .LVU613
	movq	8(%rbx), %rax
	movzbl	(%rax), %esi
	movl	$37, %edi
	call	_ZN6Kernel7Console7putCharEhNS0_10AttributesE
.LVL322:
	.loc 2 253 40 view .LVU614
	movq	8(%rbx), %rax
	movzbl	(%rax), %esi
	movq	(%rbx), %rax
	movq	(%rax), %rax
	movzbl	(%rax), %edi
	call	_ZN6Kernel7Console7putCharEhNS0_10AttributesE
.LVL323:
.L203:
	.loc 2 305 25 view .LVU615
	movq	(%rbx), %rax
	addq	$1, (%rax)
.L189:
	.loc 2 305 25 view .LVU616
.LBE263:
	.loc 2 203 14 view .LVU617
	addq	$32, %rsp
	popq	%rbx
	.cfi_remember_state
	.cfi_restore 3
.LVL324:
	.loc 2 203 14 view .LVU618
	popq	%r12
	.cfi_restore 12
	popq	%r13
	.cfi_restore 13
	popq	%r14
	.cfi_restore 14
	popq	%rbp
	.cfi_restore 6
	.cfi_def_cfa 7, 8
	ret
.LVL325:
.L198:
	.cfi_restore_state
.LBB282:
	.loc 2 263 40 view .LVU619
	movq	8(%rbx), %rax
	movzbl	(%rax), %esi
	movl	$37, %edi
	call	_ZN6Kernel7Console7putCharEhNS0_10AttributesE
.LVL326:
	.loc 2 264 40 view .LVU620
	movq	8(%rbx), %rax
	movzbl	(%rax), %esi
	movq	(%rbx), %rax
	movq	(%rax), %rax
	movzbl	(%rax), %edi
	call	_ZN6Kernel7Console7putCharEhNS0_10AttributesE
.LVL327:
	.loc 2 266 29 view .LVU621
	jmp	.L203
.L197:
	.loc 2 274 40 view .LVU622
	movq	8(%rbx), %rax
	movzbl	(%rax), %esi
	movl	$37, %edi
	call	_ZN6Kernel7Console7putCharEhNS0_10AttributesE
.LVL328:
	.loc 2 275 40 view .LVU623
	movq	8(%rbx), %rax
	movzbl	(%rax), %esi
	movq	(%rbx), %rax
	movq	(%rax), %rax
	movzbl	(%rax), %edi
	call	_ZN6Kernel7Console7putCharEhNS0_10AttributesE
.LVL329:
	.loc 2 277 29 view .LVU624
	jmp	.L203
.L196:
	.loc 2 283 42 view .LVU625
	movq	8(%rbx), %rax
	movzbl	(%rax), %r13d
	movq	(%r12), %rcx
.LVL330:
.LBB277:
.LBI277:
	.loc 2 137 21 is_stmt 1 view .LVU626
.LBB278:
	.loc 2 154 20 is_stmt 0 view .LVU627
	movl	$0, %esi
	.loc 2 158 41 view .LVU628
	movabsq	$-3689348814741910323, %r8
	.loc 2 140 13 view .LVU629
	testq	%rcx, %rcx
	je	.L238
.LVL331:
.L216:
	.loc 2 158 41 view .LVU630
	movq	%rcx, %rax
	mulq	%r8
	shrq	$3, %rdx
	leaq	(%rdx,%rdx,4), %rdi
	addq	%rdi, %rdi
	movq	%rcx, %rax
	subq	%rdi, %rax
	.loc 2 158 35 view .LVU631
	addl	$48, %eax
	movb	%al, -64(%rbp,%rsi)
	movq	%rcx, %rax
	.loc 2 159 21 view .LVU632
	movq	%rdx, %rcx
.LVL332:
	.loc 2 159 21 view .LVU633
	movq	%rsi, %r12
	.loc 2 160 17 view .LVU634
	addq	$1, %rsi
.LVL333:
	.loc 2 156 24 is_stmt 1 view .LVU635
	cmpq	$9, %rax
	ja	.L216
.LVL334:
.LBB279:
	.loc 2 163 34 discriminator 1 view .LVU636
	testq	%rsi, %rsi
	je	.L203
	.loc 2 163 34 is_stmt 0 discriminator 1 view .LVU637
	leaq	-64(%rbp), %r14
	addq	%r14, %r12
.LVL335:
.L218:
	.loc 2 164 24 view .LVU638
	movzbl	(%r12), %edi
	movl	%r13d, %esi
	call	_ZN6Kernel7Console7putCharEhNS0_10AttributesE
.LVL336:
	.loc 2 163 13 is_stmt 1 discriminator 3 view .LVU639
	.loc 2 163 34 discriminator 1 view .LVU640
	movq	%r12, %rax
	subq	$1, %r12
	.loc 2 163 34 is_stmt 0 discriminator 1 view .LVU641
	cmpq	%r14, %rax
	jne	.L218
	jmp	.L203
.LVL337:
.L238:
	.loc 2 163 34 discriminator 1 view .LVU642
.LBE279:
	.loc 2 142 24 view .LVU643
	movl	%r13d, %esi
	movl	$48, %edi
	call	_ZN6Kernel7Console7putCharEhNS0_10AttributesE
.LVL338:
	.loc 2 142 24 view .LVU644
	jmp	.L203
.LVL339:
.L192:
	.loc 2 142 24 view .LVU645
.LBE278:
.LBE277:
	.loc 2 298 36 view .LVU646
	movq	8(%rbx), %rax
	movzbl	(%rax), %esi
	movl	$37, %edi
	call	_ZN6Kernel7Console7putCharEhNS0_10AttributesE
.LVL340:
	.loc 2 299 29 view .LVU647
	jmp	.L203
.L193:
	.loc 2 301 36 view .LVU648
	movq	8(%rbx), %rax
	movzbl	(%rax), %esi
	movl	$37, %edi
	call	_ZN6Kernel7Console7putCharEhNS0_10AttributesE
.LVL341:
	.loc 2 302 36 view .LVU649
	movq	8(%rbx), %rax
	movzbl	(%rax), %esi
	movq	(%rbx), %rax
	movq	(%rax), %rax
	movzbl	(%rax), %edi
	call	_ZN6Kernel7Console7putCharEhNS0_10AttributesE
.LVL342:
	.loc 2 303 29 view .LVU650
	jmp	.L203
.L191:
	.loc 2 310 32 view .LVU651
	movq	8(%rbx), %rax
	movzbl	(%rax), %esi
	movzbl	%dil, %edi
	call	_ZN6Kernel7Console7putCharEhNS0_10AttributesE
.LVL343:
	.loc 2 311 25 view .LVU652
	movq	(%rbx), %rax
	addq	$1, (%rax)
	.loc 2 206 28 is_stmt 1 view .LVU653
	movq	(%rbx), %rdx
	movq	(%rdx), %rax
	movzbl	(%rax), %edi
	testb	%dil, %dil
	je	.L189
.L219:
	.loc 2 208 21 is_stmt 0 view .LVU654
	cmpb	$37, %dil
	jne	.L191
	.loc 2 208 37 discriminator 1 view .LVU655
	cmpb	$0, 1(%rax)
	je	.L191
	.loc 2 210 25 view .LVU656
	leaq	1(%rax), %rcx
	movq	%rcx, (%rdx)
	movzbl	1(%rax), %eax
	cmpb	$37, %al
	je	.L192
	leal	-98(%rax), %edx
	cmpb	$22, %dl
	ja	.L193
	ja	.L193
	movzbl	%dl, %eax
	jmp	*.L195(,%rax,8)
	.section	.rodata._ZZN6Kernel7Console9printImplIJRyEEEvPKcNS0_10AttributesEDpOT_ENKUlOT_E_clIS2_EEDaSA_,"aG",@progbits,_ZZN6Kernel7Console9printImplIJRyEEEvPKcNS0_10AttributesEDpOT_ENKUlOT_E_clIS2_EEDaSA_,comdat
	.align 8
	.align 4
.L195:
	.quad	.L201
	.quad	.L200
	.quad	.L199
	.quad	.L193
	.quad	.L193
	.quad	.L193
	.quad	.L193
	.quad	.L193
	.quad	.L193
	.quad	.L193
	.quad	.L193
	.quad	.L193
	.quad	.L193
	.quad	.L193
	.quad	.L198
	.quad	.L193
	.quad	.L193
	.quad	.L197
	.quad	.L193
	.quad	.L193
	.quad	.L196
	.quad	.L193
	.quad	.L194
	.section	.text._ZZN6Kernel7Console9printImplIJRyEEEvPKcNS0_10AttributesEDpOT_ENKUlOT_E_clIS2_EEDaSA_,"axG",@progbits,_ZZN6Kernel7Console9printImplIJRyEEEvPKcNS0_10AttributesEDpOT_ENKUlOT_E_clIS2_EEDaSA_,comdat
.LVL344:
.L221:
.LBB280:
.LBB271:
	.loc 2 121 20 view .LVU657
	movl	$0, %r13d
.LVL345:
	.loc 2 129 22 is_stmt 1 discriminator 1 view .LVU658
	jmp	.L210
.LVL346:
.L237:
	.loc 2 129 22 is_stmt 0 discriminator 1 view .LVU659
.LBE271:
.LBE280:
.LBB281:
.LBB276:
	.loc 2 172 20 view .LVU660
	movl	$0, %r13d
.LVL347:
	.loc 2 180 22 is_stmt 1 discriminator 1 view .LVU661
	jmp	.L215
.LBE276:
.LBE281:
.LBE282:
	.cfi_endproc
.LFE149:
	.size	_ZZN6Kernel7Console9printImplIJRyEEEvPKcNS0_10AttributesEDpOT_ENKUlOT_E_clIS2_EEDaSA_, .-_ZZN6Kernel7Console9printImplIJRyEEEvPKcNS0_10AttributesEDpOT_ENKUlOT_E_clIS2_EEDaSA_
	.section	.text._ZZN6Kernel7Console9printImplIJRPPmEEEvPKcNS0_10AttributesEDpOT_ENKUlOT_E_clIS4_EEDaSC_,"axG",@progbits,_ZZN6Kernel7Console9printImplIJRPPmEEEvPKcNS0_10AttributesEDpOT_ENKUlOT_E_clIS4_EEDaSC_,comdat
	.align 2
	.weak	_ZZN6Kernel7Console9printImplIJRPPmEEEvPKcNS0_10AttributesEDpOT_ENKUlOT_E_clIS4_EEDaSC_
	.type	_ZZN6Kernel7Console9printImplIJRPPmEEEvPKcNS0_10AttributesEDpOT_ENKUlOT_E_clIS4_EEDaSC_, @function
_ZZN6Kernel7Console9printImplIJRPPmEEEvPKcNS0_10AttributesEDpOT_ENKUlOT_E_clIS4_EEDaSC_:
.LVL348:
.LFB152:
	.loc 2 203 14 view -0
	.cfi_startproc
	.loc 2 203 14 is_stmt 0 view .LVU663
	pushq	%rbp
	.cfi_def_cfa_offset 16
	.cfi_offset 6, -16
	movq	%rsp, %rbp
	.cfi_def_cfa_register 6
	pushq	%r14
	pushq	%r13
	pushq	%r12
	pushq	%rbx
	.cfi_offset 14, -24
	.cfi_offset 13, -32
	.cfi_offset 12, -40
	.cfi_offset 3, -48
	movq	%rdi, %rbx
	movq	%rsi, %r12
.LBB294:
	.loc 2 206 28 is_stmt 1 view .LVU664
	movq	(%rdi), %rdx
	movq	(%rdx), %rax
	movzbl	(%rax), %edi
.LVL349:
	.loc 2 206 28 is_stmt 0 view .LVU665
	testb	%dil, %dil
	jne	.L263
	jmp	.L239
.LVL350:
.L249:
	.loc 2 219 40 view .LVU666
	movq	8(%rbx), %rax
	movzbl	(%rax), %esi
	movl	$37, %edi
	call	_ZN6Kernel7Console7putCharEhNS0_10AttributesE
.LVL351:
	.loc 2 220 40 view .LVU667
	movq	8(%rbx), %rax
	movzbl	(%rax), %esi
	movq	(%rbx), %rax
	movq	(%rax), %rax
	movzbl	(%rax), %edi
	call	_ZN6Kernel7Console7putCharEhNS0_10AttributesE
.LVL352:
.L252:
	.loc 2 305 25 view .LVU668
	movq	(%rbx), %rax
	addq	$1, (%rax)
.L239:
	.loc 2 305 25 view .LVU669
.LBE294:
	.loc 2 203 14 view .LVU670
	popq	%rbx
	.cfi_remember_state
	.cfi_restore 3
.LVL353:
	.loc 2 203 14 view .LVU671
	popq	%r12
	.cfi_restore 12
	popq	%r13
	.cfi_restore 13
	popq	%r14
	.cfi_restore 14
	popq	%rbp
	.cfi_restore 6
	.cfi_def_cfa 7, 8
	ret
.LVL354:
.L251:
	.cfi_restore_state
.LBB307:
	.loc 2 230 40 view .LVU672
	movq	8(%rbx), %rax
	movzbl	(%rax), %esi
	movl	$37, %edi
	call	_ZN6Kernel7Console7putCharEhNS0_10AttributesE
.LVL355:
	.loc 2 231 40 view .LVU673
	movq	8(%rbx), %rax
	movzbl	(%rax), %esi
	movq	(%rbx), %rax
	movq	(%rax), %rax
	movzbl	(%rax), %edi
	call	_ZN6Kernel7Console7putCharEhNS0_10AttributesE
.LVL356:
	.loc 2 233 29 view .LVU674
	jmp	.L252
.L244:
	.loc 2 241 40 view .LVU675
	movq	8(%rbx), %rax
	movzbl	(%rax), %esi
	movl	$37, %edi
	call	_ZN6Kernel7Console7putCharEhNS0_10AttributesE
.LVL357:
	.loc 2 242 40 view .LVU676
	movq	8(%rbx), %rax
	movzbl	(%rax), %esi
	movq	(%rbx), %rax
	movq	(%rax), %rax
	movzbl	(%rax), %edi
	call	_ZN6Kernel7Console7putCharEhNS0_10AttributesE
.LVL358:
	.loc 2 244 29 view .LVU677
	jmp	.L252
.L250:
	.loc 2 252 40 view .LVU678
	movq	8(%rbx), %rax
	movzbl	(%rax), %esi
	movl	$37, %edi
	call	_ZN6Kernel7Console7putCharEhNS0_10AttributesE
.LVL359:
	.loc 2 253 40 view .LVU679
	movq	8(%rbx), %rax
	movzbl	(%rax), %esi
	movq	(%rbx), %rax
	movq	(%rax), %rax
	movzbl	(%rax), %edi
	call	_ZN6Kernel7Console7putCharEhNS0_10AttributesE
.LVL360:
	.loc 2 255 29 view .LVU680
	jmp	.L252
.L248:
	.loc 2 259 42 view .LVU681
	movq	8(%rbx), %rax
	movzbl	(%rax), %r14d
	movq	(%r12), %r12
.LVL361:
.LBB295:
.LBI295:
	.loc 2 168 21 is_stmt 1 view .LVU682
.LBB296:
.LBB297:
.LBI297:
	.loc 2 108 21 view .LVU683
.LBB298:
	.loc 2 110 39 discriminator 1 view .LVU684
	movq	$.LC0+1, %r13
	.loc 2 110 35 is_stmt 0 discriminator 1 view .LVU685
	movl	$48, %edi
.LVL362:
.L253:
	.loc 2 112 24 view .LVU686
	movzbl	%dil, %edi
	movl	%r14d, %esi
	call	_ZN6Kernel7Console7putCharEhNS0_10AttributesE
.LVL363:
	.loc 2 110 13 is_stmt 1 discriminator 3 view .LVU687
	.loc 2 110 39 discriminator 1 view .LVU688
	addq	$1, %r13
.LVL364:
	.loc 2 110 35 is_stmt 0 discriminator 1 view .LVU689
	movzbl	-1(%r13), %edi
	.loc 2 110 39 discriminator 1 view .LVU690
	testb	%dil, %dil
	jne	.L253
.LVL365:
	.loc 2 110 39 discriminator 1 view .LVU691
.LBE298:
.LBE297:
	.loc 2 174 22 is_stmt 1 discriminator 1 view .LVU692
	.loc 2 176 17 is_stmt 0 view .LVU693
	movq	%r12, %r13
	shrq	$60, %r13
	jne	.L272
.LVL366:
.L255:
	.loc 2 178 21 view .LVU694
	salq	$4, %r12
.LVL367:
	.loc 2 174 13 is_stmt 1 view .LVU695
	addq	$1, %r13
.LVL368:
	.loc 2 174 22 discriminator 1 view .LVU696
	cmpq	$16, %r13
	je	.L252
	.loc 2 176 17 is_stmt 0 view .LVU697
	movq	%r12, %rax
	shrq	$60, %rax
	je	.L255
.L257:
	.loc 2 182 49 view .LVU698
	movq	%r12, %rax
	shrq	$60, %rax
	.loc 2 182 24 view .LVU699
	movzbl	.LC1(%rax), %edi
	movl	%r14d, %esi
	call	_ZN6Kernel7Console7putCharEhNS0_10AttributesE
.LVL369:
	.loc 2 183 21 view .LVU700
	salq	$4, %r12
.LVL370:
	.loc 2 180 13 is_stmt 1 discriminator 2 view .LVU701
	addq	$1, %r13
.LVL371:
	.loc 2 180 22 discriminator 1 view .LVU702
	cmpq	$16, %r13
	jne	.L257
	jmp	.L252
.LVL372:
.L247:
	.loc 2 180 22 is_stmt 0 discriminator 1 view .LVU703
.LBE296:
.LBE295:
	.loc 2 274 40 view .LVU704
	movq	8(%rbx), %rax
	movzbl	(%rax), %esi
	movl	$37, %edi
	call	_ZN6Kernel7Console7putCharEhNS0_10AttributesE
.LVL373:
	.loc 2 275 40 view .LVU705
	movq	8(%rbx), %rax
	movzbl	(%rax), %esi
	movq	(%rbx), %rax
	movq	(%rax), %rax
	movzbl	(%rax), %edi
	call	_ZN6Kernel7Console7putCharEhNS0_10AttributesE
.LVL374:
	.loc 2 277 29 view .LVU706
	jmp	.L252
.L246:
	.loc 2 289 42 view .LVU707
	movq	8(%rbx), %rax
	movzbl	(%rax), %r14d
	movq	(%r12), %r12
.LVL375:
.LBB300:
.LBI300:
	.loc 2 168 21 is_stmt 1 view .LVU708
.LBB301:
.LBB302:
.LBI302:
	.loc 2 108 21 view .LVU709
.LBB303:
	.loc 2 110 39 discriminator 1 view .LVU710
	movq	$.LC0+1, %r13
	.loc 2 110 35 is_stmt 0 discriminator 1 view .LVU711
	movl	$48, %edi
.LVL376:
.L258:
	.loc 2 112 24 view .LVU712
	movzbl	%dil, %edi
	movl	%r14d, %esi
	call	_ZN6Kernel7Console7putCharEhNS0_10AttributesE
.LVL377:
	.loc 2 110 13 is_stmt 1 discriminator 3 view .LVU713
	.loc 2 110 39 discriminator 1 view .LVU714
	addq	$1, %r13
.LVL378:
	.loc 2 110 35 is_stmt 0 discriminator 1 view .LVU715
	movzbl	-1(%r13), %edi
	.loc 2 110 39 discriminator 1 view .LVU716
	testb	%dil, %dil
	jne	.L258
.LVL379:
	.loc 2 110 39 discriminator 1 view .LVU717
.LBE303:
.LBE302:
	.loc 2 174 22 is_stmt 1 discriminator 1 view .LVU718
	.loc 2 176 17 is_stmt 0 view .LVU719
	movq	%r12, %r13
	shrq	$60, %r13
	jne	.L273
.LVL380:
.L260:
	.loc 2 178 21 view .LVU720
	salq	$4, %r12
.LVL381:
	.loc 2 174 13 is_stmt 1 view .LVU721
	addq	$1, %r13
.LVL382:
	.loc 2 174 22 discriminator 1 view .LVU722
	cmpq	$16, %r13
	je	.L252
	.loc 2 176 17 is_stmt 0 view .LVU723
	movq	%r12, %rax
	shrq	$60, %rax
	je	.L260
.L262:
	.loc 2 182 49 view .LVU724
	movq	%r12, %rax
	shrq	$60, %rax
	.loc 2 182 24 view .LVU725
	movzbl	.LC1(%rax), %edi
	movl	%r14d, %esi
	call	_ZN6Kernel7Console7putCharEhNS0_10AttributesE
.LVL383:
	.loc 2 183 21 view .LVU726
	salq	$4, %r12
.LVL384:
	.loc 2 180 13 is_stmt 1 discriminator 2 view .LVU727
	addq	$1, %r13
.LVL385:
	.loc 2 180 22 discriminator 1 view .LVU728
	cmpq	$16, %r13
	jne	.L262
	jmp	.L252
.LVL386:
.L242:
	.loc 2 180 22 is_stmt 0 discriminator 1 view .LVU729
.LBE301:
.LBE300:
	.loc 2 298 36 view .LVU730
	movq	8(%rbx), %rax
	movzbl	(%rax), %esi
	movl	$37, %edi
	call	_ZN6Kernel7Console7putCharEhNS0_10AttributesE
.LVL387:
	.loc 2 299 29 view .LVU731
	jmp	.L252
.L243:
	.loc 2 301 36 view .LVU732
	movq	8(%rbx), %rax
	movzbl	(%rax), %esi
	movl	$37, %edi
	call	_ZN6Kernel7Console7putCharEhNS0_10AttributesE
.LVL388:
	.loc 2 302 36 view .LVU733
	movq	8(%rbx), %rax
	movzbl	(%rax), %esi
	movq	(%rbx), %rax
	movq	(%rax), %rax
	movzbl	(%rax), %edi
	call	_ZN6Kernel7Console7putCharEhNS0_10AttributesE
.LVL389:
	.loc 2 303 29 view .LVU734
	jmp	.L252
.L241:
	.loc 2 310 32 view .LVU735
	movq	8(%rbx), %rax
	movzbl	(%rax), %esi
	movzbl	%dil, %edi
	call	_ZN6Kernel7Console7putCharEhNS0_10AttributesE
.LVL390:
	.loc 2 311 25 view .LVU736
	movq	(%rbx), %rax
	addq	$1, (%rax)
	.loc 2 206 28 is_stmt 1 view .LVU737
	movq	(%rbx), %rdx
	movq	(%rdx), %rax
	movzbl	(%rax), %edi
	testb	%dil, %dil
	je	.L239
.L263:
	.loc 2 208 21 is_stmt 0 view .LVU738
	cmpb	$37, %dil
	jne	.L241
	.loc 2 208 37 discriminator 1 view .LVU739
	cmpb	$0, 1(%rax)
	je	.L241
	.loc 2 210 25 view .LVU740
	leaq	1(%rax), %rcx
	movq	%rcx, (%rdx)
	movzbl	1(%rax), %eax
	cmpb	$37, %al
	je	.L242
	leal	-98(%rax), %edx
	cmpb	$22, %dl
	ja	.L243
	ja	.L243
	movzbl	%dl, %eax
	jmp	*.L245(,%rax,8)
	.section	.rodata._ZZN6Kernel7Console9printImplIJRPPmEEEvPKcNS0_10AttributesEDpOT_ENKUlOT_E_clIS4_EEDaSC_,"aG",@progbits,_ZZN6Kernel7Console9printImplIJRPPmEEEvPKcNS0_10AttributesEDpOT_ENKUlOT_E_clIS4_EEDaSC_,comdat
	.align 8
	.align 4
.L245:
	.quad	.L251
	.quad	.L250
	.quad	.L249
	.quad	.L243
	.quad	.L243
	.quad	.L243
	.quad	.L243
	.quad	.L243
	.quad	.L243
	.quad	.L243
	.quad	.L243
	.quad	.L243
	.quad	.L243
	.quad	.L243
	.quad	.L248
	.quad	.L243
	.quad	.L243
	.quad	.L247
	.quad	.L243
	.quad	.L243
	.quad	.L246
	.quad	.L243
	.quad	.L244
	.section	.text._ZZN6Kernel7Console9printImplIJRPPmEEEvPKcNS0_10AttributesEDpOT_ENKUlOT_E_clIS4_EEDaSC_,"axG",@progbits,_ZZN6Kernel7Console9printImplIJRPPmEEEvPKcNS0_10AttributesEDpOT_ENKUlOT_E_clIS4_EEDaSC_,comdat
.LVL391:
.L272:
.LBB305:
.LBB299:
	.loc 2 172 20 view .LVU741
	movl	$0, %r13d
.LVL392:
	.loc 2 180 22 is_stmt 1 discriminator 1 view .LVU742
	jmp	.L257
.LVL393:
.L273:
	.loc 2 180 22 is_stmt 0 discriminator 1 view .LVU743
.LBE299:
.LBE305:
.LBB306:
.LBB304:
	.loc 2 172 20 view .LVU744
	movl	$0, %r13d
.LVL394:
	.loc 2 180 22 is_stmt 1 discriminator 1 view .LVU745
	jmp	.L262
.LBE304:
.LBE306:
.LBE307:
	.cfi_endproc
.LFE152:
	.size	_ZZN6Kernel7Console9printImplIJRPPmEEEvPKcNS0_10AttributesEDpOT_ENKUlOT_E_clIS4_EEDaSC_, .-_ZZN6Kernel7Console9printImplIJRPPmEEEvPKcNS0_10AttributesEDpOT_ENKUlOT_E_clIS4_EEDaSC_
	.section	.rodata.str1.1,"aMS",@progbits,1
.LC8:
	.string	"Kernel start address: %p\n"
.LC9:
	.string	"Start address: %p\n"
.LC10:
	.string	"Stack bottom: %p\n"
.LC11:
	.string	"Stack top: %p\n"
.LC12:
	.string	"Stack size: %x\n"
	.section	.rodata.str1.8,"aMS",@progbits,1
	.align 8
.LC13:
	.string	"64-bit Kernel Booted Successfully!\n"
	.section	.rodata.str1.1
.LC14:
	.string	"Allocated memory: %p\n"
.LC15:
	.string	"Failed to allocate memory\n"
.LC16:
	.string	"\n"
	.text
	.globl	kernel_main
	.type	kernel_main, @function
kernel_main:
.LVL395:
.LFB106:
	.loc 1 32 1 view -0
	.cfi_startproc
	.loc 1 32 1 is_stmt 0 view .LVU747
	pushq	%rbp
	.cfi_def_cfa_offset 16
	.cfi_offset 6, -16
	movq	%rsp, %rbp
	.cfi_def_cfa_register 6
	pushq	%r14
	pushq	%r13
	pushq	%r12
	pushq	%rbx
	subq	$112, %rsp
	.cfi_offset 14, -24
	.cfi_offset 13, -32
	.cfi_offset 12, -40
	.cfi_offset 3, -48
	movq	%rdi, %r13
	.loc 1 33 5 is_stmt 1 view .LVU748
	.loc 1 35 5 view .LVU749
	.loc 1 35 19 is_stmt 0 view .LVU750
	movl	$0, %esi
	movl	$0, %edi
.LVL396:
	.loc 1 35 19 view .LVU751
	call	_ZN6Kernel7Console5clearEhNS0_10AttributesE
.LVL397:
	.loc 1 37 5 is_stmt 1 view .LVU752
	.loc 1 37 19 is_stmt 0 view .LVU753
	movq	$__kernel_start, %rsi
	movq	$.LC8, %rdi
	call	_ZN6Kernel7Console5printIJPvEEEvPKcDpT_
.LVL398:
	.loc 1 38 5 is_stmt 1 view .LVU754
	.loc 1 38 19 is_stmt 0 view .LVU755
	movq	$start, %rsi
	movq	$.LC9, %rdi
	call	_ZN6Kernel7Console5printIJPvEEEvPKcDpT_
.LVL399:
	.loc 1 40 5 is_stmt 1 view .LVU756
	.loc 1 40 19 is_stmt 0 view .LVU757
	movq	$stack_bottom, %rsi
	movq	$.LC10, %rdi
	call	_ZN6Kernel7Console5printIJPhEEEvPKcDpT_
.LVL400:
	.loc 1 41 5 is_stmt 1 view .LVU758
	.loc 1 41 19 is_stmt 0 view .LVU759
	movq	$stack_top, %rsi
	movq	$.LC11, %rdi
	call	_ZN6Kernel7Console5printIJPhEEEvPKcDpT_
.LVL401:
	.loc 1 42 5 is_stmt 1 view .LVU760
	.loc 1 42 102 is_stmt 0 view .LVU761
	movq	$stack_top, %rax
	subq	$stack_bottom, %rax
	movq	%rax, -128(%rbp)
.LVL402:
.LBB346:
.LBI346:
	.loc 2 319 21 is_stmt 1 view .LVU762
	movq	$.LC12, -120(%rbp)
.LVL403:
	.loc 2 319 21 is_stmt 0 view .LVU763
	movb	$15, -129(%rbp)
.LVL404:
.LBB347:
.LBB348:
.LBI348:
	.loc 2 201 21 is_stmt 1 view .LVU764
.LBB349:
	.loc 2 203 14 is_stmt 0 view .LVU765
	leaq	-120(%rbp), %rax
.LVL405:
	.loc 2 203 14 view .LVU766
	movq	%rax, -64(%rbp)
	leaq	-129(%rbp), %rax
.LVL406:
	.loc 2 203 14 view .LVU767
	movq	%rax, -56(%rbp)
	.loc 2 313 20 view .LVU768
	leaq	-128(%rbp), %rsi
.LVL407:
	.loc 2 313 20 view .LVU769
	leaq	-64(%rbp), %rdi
.LVL408:
	.loc 2 313 20 view .LVU770
	call	_ZZN6Kernel7Console9printImplIJRyEEEvPKcNS0_10AttributesEDpOT_ENKUlOT_E_clIS2_EEDaSA_
.LVL409:
	.loc 2 314 22 view .LVU771
	movzbl	-129(%rbp), %r12d
	movq	-120(%rbp), %rbx
.LVL410:
.LBB350:
.LBI350:
	.loc 2 108 21 is_stmt 1 view .LVU772
.LBB351:
	.loc 2 110 39 discriminator 1 view .LVU773
	.loc 2 110 35 is_stmt 0 discriminator 1 view .LVU774
	movzbl	(%rbx), %eax
	.loc 2 110 39 discriminator 1 view .LVU775
	testb	%al, %al
	je	.L275
	addq	$1, %rbx
.LVL411:
.L276:
	.loc 2 112 24 view .LVU776
	movzbl	%al, %edi
	movl	%r12d, %esi
	call	_ZN6Kernel7Console7putCharEhNS0_10AttributesE
.LVL412:
	.loc 2 110 13 is_stmt 1 discriminator 3 view .LVU777
	.loc 2 110 39 discriminator 1 view .LVU778
	addq	$1, %rbx
	.loc 2 110 35 is_stmt 0 discriminator 1 view .LVU779
	movzbl	-1(%rbx), %eax
	.loc 2 110 39 discriminator 1 view .LVU780
	testb	%al, %al
	jne	.L276
.LVL413:
.L275:
	.loc 2 110 39 discriminator 1 view .LVU781
.LBE351:
.LBE350:
.LBE349:
.LBE348:
	.loc 2 329 33 view .LVU782
	call	_ZN6Kernel7Console20clampDisplayToCursorEv
.LVL414:
	.loc 2 330 25 view .LVU783
	call	_ZN6Kernel7Console12updateCursorEv
.LVL415:
	.loc 2 331 23 view .LVU784
	call	_ZN6Kernel7Console10flushToVgaEv
.LVL416:
	.loc 2 331 23 view .LVU785
.LBE347:
.LBE346:
	.loc 1 44 5 is_stmt 1 view .LVU786
	.loc 1 44 33 is_stmt 0 view .LVU787
	call	_ZN6Kernel16InterruptManager10initializeEv
.LVL417:
	.loc 1 45 5 is_stmt 1 view .LVU788
	.loc 1 45 25 is_stmt 0 view .LVU789
	call	_ZN6Kernel8Keyboard10initialiseEv
.LVL418:
	.loc 1 46 5 is_stmt 1 view .LVU790
	.loc 1 46 22 is_stmt 0 view .LVU791
	call	_ZN6Kernel5Timer10initialiseEv
.LVL419:
	.loc 1 48 5 is_stmt 1 view .LVU792
	.loc 1 48 48 is_stmt 0 view .LVU793
	movq	$_Z20handleTimerInterruptRN6Kernel14InterruptFrameE, %rsi
	movl	$32, %edi
	call	_ZN6Kernel16InterruptManager25registerInterruptCallbackENS0_15InterruptVectorEPFvRNS_14InterruptFrameEE
.LVL420:
	.loc 1 52 5 is_stmt 1 view .LVU794
	.loc 1 53 5 view .LVU795
	.loc 1 53 26 is_stmt 0 view .LVU796
	leaq	-112(%rbp), %rsi
	movq	%r13, %rdi
	call	_ZN6Kernel9MemoryMap10initialiseEyRNS_14HeapLinkedListE
.LVL421:
	.loc 1 55 5 is_stmt 1 view .LVU797
	.loc 1 55 19 is_stmt 0 view .LVU798
	movq	$.LC13, %rdi
	call	_ZN6Kernel7Console5printIJEEEvPKcDpT_
.LVL422:
	.loc 1 57 5 is_stmt 1 view .LVU799
.LBB352:
.LBI352:
	.loc 3 61 12 view .LVU800
.LBB353:
	.loc 3 64 50 is_stmt 0 view .LVU801
	movl	$96, %esi
	leaq	-112(%rbp), %rdi
.LVL423:
	.loc 3 64 50 view .LVU802
	call	_ZN6Kernel14HeapLinkedList8allocateEm
.LVL424:
	.loc 3 64 50 view .LVU803
	movq	%rax, %r14
.LVL425:
	.loc 3 64 50 view .LVU804
.LBE353:
.LBE352:
	.loc 1 59 5 is_stmt 1 view .LVU805
	.loc 1 59 5 is_stmt 0 view .LVU806
	movq	%rax, -128(%rbp)
.LVL426:
.LBB354:
.LBI354:
	.loc 2 319 21 is_stmt 1 view .LVU807
	movq	$.LC14, -120(%rbp)
.LVL427:
	.loc 2 319 21 is_stmt 0 view .LVU808
	movb	$15, -129(%rbp)
.LVL428:
.LBB355:
.LBB356:
.LBI356:
	.loc 2 201 21 is_stmt 1 view .LVU809
.LBB357:
	.loc 2 203 14 is_stmt 0 view .LVU810
	leaq	-120(%rbp), %rax
.LVL429:
	.loc 2 203 14 view .LVU811
	movq	%rax, -48(%rbp)
	leaq	-129(%rbp), %rax
.LVL430:
	.loc 2 203 14 view .LVU812
	movq	%rax, -40(%rbp)
	.loc 2 313 20 view .LVU813
	leaq	-128(%rbp), %rsi
.LVL431:
	.loc 2 313 20 view .LVU814
	leaq	-48(%rbp), %rdi
.LVL432:
	.loc 2 313 20 view .LVU815
	call	_ZZN6Kernel7Console9printImplIJRPPmEEEvPKcNS0_10AttributesEDpOT_ENKUlOT_E_clIS4_EEDaSC_
.LVL433:
	.loc 2 314 22 view .LVU816
	movzbl	-129(%rbp), %r12d
	movq	-120(%rbp), %rbx
.LVL434:
.LBB358:
.LBI358:
	.loc 2 108 21 is_stmt 1 view .LVU817
.LBB359:
	.loc 2 110 39 discriminator 1 view .LVU818
	.loc 2 110 35 is_stmt 0 discriminator 1 view .LVU819
	movzbl	(%rbx), %eax
	.loc 2 110 39 discriminator 1 view .LVU820
	testb	%al, %al
	je	.L277
	addq	$1, %rbx
.LVL435:
.L278:
	.loc 2 112 24 view .LVU821
	movzbl	%al, %edi
	movl	%r12d, %esi
	call	_ZN6Kernel7Console7putCharEhNS0_10AttributesE
.LVL436:
	.loc 2 110 13 is_stmt 1 discriminator 3 view .LVU822
	.loc 2 110 39 discriminator 1 view .LVU823
	addq	$1, %rbx
	.loc 2 110 35 is_stmt 0 discriminator 1 view .LVU824
	movzbl	-1(%rbx), %eax
	.loc 2 110 39 discriminator 1 view .LVU825
	testb	%al, %al
	jne	.L278
.LVL437:
.L277:
	.loc 2 110 39 discriminator 1 view .LVU826
.LBE359:
.LBE358:
.LBE357:
.LBE356:
	.loc 2 329 33 view .LVU827
	call	_ZN6Kernel7Console20clampDisplayToCursorEv
.LVL438:
	.loc 2 330 25 view .LVU828
	call	_ZN6Kernel7Console12updateCursorEv
.LVL439:
	.loc 2 331 23 view .LVU829
	call	_ZN6Kernel7Console10flushToVgaEv
.LVL440:
	.loc 2 331 23 view .LVU830
.LBE355:
.LBE354:
	.loc 1 61 5 is_stmt 1 view .LVU831
	testq	%r14, %r14
	je	.L295
	movq	%r14, %r12
	movq	%r14, %r13
.LVL441:
.LBB360:
	.loc 1 67 17 is_stmt 0 view .LVU832
	movl	$0, %ebx
.LVL442:
.L282:
.LBB361:
	.loc 1 69 9 is_stmt 1 view .LVU833
.LBB362:
.LBI362:
	.loc 3 61 12 view .LVU834
.LBB363:
	.loc 3 64 50 is_stmt 0 view .LVU835
	movl	$800, %esi
	leaq	-112(%rbp), %rdi
.LVL443:
	.loc 3 64 50 view .LVU836
	call	_ZN6Kernel14HeapLinkedList8allocateEm
.LVL444:
	.loc 3 64 50 view .LVU837
	movq	%r13, %rcx
.LBE363:
.LBE362:
	.loc 1 69 25 discriminator 1 view .LVU838
	movq	%rax, 0(%r13)
	.loc 1 70 9 is_stmt 1 view .LVU839
.LVL445:
.LBB364:
	.loc 1 70 30 discriminator 1 view .LVU840
.LBE364:
	.loc 1 69 25 is_stmt 0 discriminator 1 view .LVU841
	movl	$0, %eax
.LVL446:
.L281:
.LBB365:
	.loc 1 71 13 is_stmt 1 view .LVU842
	.loc 1 71 32 is_stmt 0 view .LVU843
	movq	(%rcx), %rdx
	movq	%rbx, (%rdx,%rax)
	.loc 1 70 9 is_stmt 1 discriminator 3 view .LVU844
	.loc 1 70 30 discriminator 1 view .LVU845
	addq	$8, %rax
	cmpq	$800, %rax
	jne	.L281
	.loc 1 70 30 is_stmt 0 discriminator 1 view .LVU846
.LBE365:
.LBE361:
	.loc 1 67 5 is_stmt 1 discriminator 2 view .LVU847
	addq	$1, %rbx
.LVL447:
	.loc 1 67 26 discriminator 1 view .LVU848
	addq	$8, %r13
	cmpq	$12, %rbx
	jne	.L282
.LBE360:
	.loc 1 73 5 view .LVU849
	.loc 1 73 27 is_stmt 0 view .LVU850
	leaq	-112(%rbp), %rdi
	call	_ZNK6Kernel14HeapLinkedList11printBlocksEv
.LVL448:
	.loc 1 74 5 is_stmt 1 view .LVU851
.LBB366:
	.loc 1 74 26 discriminator 1 view .LVU852
	leaq	96(%r14), %rbx
.LVL449:
.L283:
	.loc 1 76 9 view .LVU853
.LBB367:
.LBI367:
	.loc 3 74 14 view .LVU854
.LBB368:
	.loc 3 77 17 is_stmt 0 view .LVU855
	movq	(%r12), %rsi
	leaq	-112(%rbp), %rdi
.LVL450:
	.loc 3 77 17 view .LVU856
	call	_ZN6Kernel14HeapLinkedList4freeEPv
.LVL451:
	.loc 3 77 17 view .LVU857
.LBE368:
.LBE367:
	.loc 1 74 5 is_stmt 1 discriminator 3 view .LVU858
	.loc 1 74 26 discriminator 1 view .LVU859
	addq	$8, %r12
	cmpq	%rbx, %r12
	jne	.L283
.LBE366:
	.loc 1 78 5 view .LVU860
.LVL452:
.LBB369:
.LBI369:
	.loc 3 74 14 view .LVU861
.LBB370:
	.loc 3 77 17 is_stmt 0 view .LVU862
	movq	%r14, %rsi
	leaq	-112(%rbp), %rdi
.LVL453:
	.loc 3 77 17 view .LVU863
	call	_ZN6Kernel14HeapLinkedList4freeEPv
.LVL454:
	.loc 3 77 17 view .LVU864
.LBE370:
.LBE369:
	.loc 1 80 5 is_stmt 1 view .LVU865
	.loc 1 80 19 is_stmt 0 view .LVU866
	movq	$.LC16, %rdi
	call	_ZN6Kernel7Console5printIJEEEvPKcDpT_
.LVL455:
	.loc 1 81 5 is_stmt 1 view .LVU867
	.loc 1 81 27 is_stmt 0 view .LVU868
	leaq	-112(%rbp), %rdi
	call	_ZNK6Kernel14HeapLinkedList11printBlocksEv
.LVL456:
	.loc 1 83 5 is_stmt 1 view .LVU869
.LBB371:
.LBI371:
	.file 5 "src/kernel/../../include/Keyboard.h"
	.loc 5 383 13 view .LVU870
.LBB372:
.LBB373:
.LBI373:
	.loc 4 34 9 view .LVU871
	.loc 4 34 9 is_stmt 0 view .LVU872
.LBE373:
.LBE372:
.LBE371:
.LBB375:
.LBB376:
.LBB377:
.LBB378:
	.file 6 "src/kernel/../../include/RollingWindow.h"
	.loc 6 116 26 view .LVU873
	movq	$_ZN6Kernel8Keyboard11s_keyBufferE, %rbx
.LBE378:
.LBE377:
.LBE376:
.LBE375:
.LBB384:
.LBB374:
	.loc 5 383 13 view .LVU874
	jmp	.L284
.LVL457:
.L295:
	.loc 5 383 13 view .LVU875
.LBE374:
.LBE384:
	.loc 1 63 9 is_stmt 1 view .LVU876
	.loc 1 63 23 is_stmt 0 view .LVU877
	movq	$.LC15, %rdi
	call	_ZN6Kernel7Console5printIJEEEvPKcDpT_
.LVL458:
.L280:
	.loc 1 64 9 is_stmt 1 view .LVU878
	.loc 1 64 9 view .LVU879
	jmp	.L280
.LVL459:
.L296:
	.loc 1 91 17 view .LVU880
	.loc 1 91 34 is_stmt 0 view .LVU881
	movl	$1, %edi
	call	_ZN6Kernel7Console8scrollUpEm
.LVL460:
.L284:
	.loc 1 87 34 is_stmt 1 view .LVU882
.LBB385:
.LBI375:
	.loc 5 442 21 view .LVU883
.LBB383:
	.loc 5 444 13 view .LVU884
.LBB380:
.LBI377:
	.loc 6 114 10 view .LVU885
.LBB379:
	.loc 6 116 26 is_stmt 0 view .LVU886
	movq	1024(%rbx), %rax
.LVL461:
	.loc 6 116 26 view .LVU887
.LBE379:
.LBE380:
	.loc 5 444 13 discriminator 1 view .LVU888
	cmpq	%rax, 1032(%rbx)
	je	.L284
	.loc 5 446 13 is_stmt 1 view .LVU889
	.loc 5 446 19 is_stmt 0 discriminator 1 view .LVU890
	movzbl	1(%rbx,%rax,4), %edx
.LVL462:
	.loc 5 447 13 is_stmt 1 view .LVU891
.LBB381:
.LBI381:
	.loc 6 67 10 view .LVU892
.LBB382:
	.loc 6 71 26 is_stmt 0 view .LVU893
	addq	$1, %rax
	.loc 6 71 31 view .LVU894
	andl	$255, %eax
	movq	%rax, 1024(%rbx)
.LVL463:
	.loc 6 71 31 view .LVU895
.LBE382:
.LBE381:
.LBE383:
.LBE385:
	.loc 1 89 13 is_stmt 1 view .LVU896
	.loc 1 89 13 is_stmt 0 discriminator 1 view .LVU897
	cmpb	$92, %dl
	je	.L296
	.loc 1 93 18 is_stmt 1 view .LVU898
	.loc 1 93 18 is_stmt 0 discriminator 1 view .LVU899
	cmpb	$97, %dl
	jne	.L284
	.loc 1 95 17 is_stmt 1 view .LVU900
	.loc 1 95 36 is_stmt 0 view .LVU901
	movl	$1, %edi
	call	_ZN6Kernel7Console10scrollDownEm
.LVL464:
	.loc 1 95 36 view .LVU902
	jmp	.L284
	.cfi_endproc
.LFE106:
	.size	kernel_main, .-kernel_main
	.type	_GLOBAL__sub_I___cxa_pure_virtual, @function
_GLOBAL__sub_I___cxa_pure_virtual:
.LFB161:
	.loc 1 99 1 is_stmt 1 view -0
	.cfi_startproc
.LBB391:
.LBI391:
	.loc 1 99 1 view .LVU904
.LBB392:
	.loc 2 72 95 is_stmt 0 view .LVU905
	cmpb	$0, _ZGVN6Kernel7Console12s_charBufferE(%rip)
	jne	.L297
	.loc 2 72 95 discriminator 1 view .LVU906
	movb	$1, _ZGVN6Kernel7Console12s_charBufferE(%rip)
.LVL465:
.LBB393:
.LBI393:
	.loc 6 14 5 is_stmt 1 view .LVU907
.LBB394:
.LBB395:
	.loc 6 15 5 discriminator 1 view .LVU908
.LBE395:
	.loc 6 14 5 is_stmt 0 view .LVU909
	movl	$2048, %eax
.L299:
.LBB396:
	.loc 6 15 5 is_stmt 1 discriminator 1 view .LVU910
	subq	$1, %rax
	jne	.L299
	.loc 6 15 5 is_stmt 0 discriminator 4 view .LVU911
	movq	$0, _ZN6Kernel7Console12s_charBufferE+327680(%rip)
	movq	$0, _ZN6Kernel7Console12s_charBufferE+327688(%rip)
.LVL466:
.L297:
	.loc 6 15 5 discriminator 4 view .LVU912
.LBE396:
.LBE394:
.LBE393:
.LBE392:
.LBE391:
	.loc 1 99 1 view .LVU913
	ret
	.cfi_endproc
.LFE161:
	.size	_GLOBAL__sub_I___cxa_pure_virtual, .-_GLOBAL__sub_I___cxa_pure_virtual
	.section	.ctors,"aw",@progbits
	.align 8
	.quad	_GLOBAL__sub_I___cxa_pure_virtual
	.weak	_ZGVN6Kernel7Console12s_charBufferE
	.section	.bss._ZGVN6Kernel7Console12s_charBufferE,"awG",@nobits,_ZGVN6Kernel7Console12s_charBufferE,comdat
	.align 8
	.type	_ZGVN6Kernel7Console12s_charBufferE, @object
	.size	_ZGVN6Kernel7Console12s_charBufferE, 8
_ZGVN6Kernel7Console12s_charBufferE:
	.zero	8
	.globl	counter
	.section	.bss
	.type	counter, @object
	.size	counter, 1
counter:
	.zero	1
	.weak	_ZN6Kernel5Timer10s_systicksE
	.section	.bss._ZN6Kernel5Timer10s_systicksE,"awG",@nobits,_ZN6Kernel5Timer10s_systicksE,comdat
	.align 8
	.type	_ZN6Kernel5Timer10s_systicksE, @object
	.size	_ZN6Kernel5Timer10s_systicksE, 8
_ZN6Kernel5Timer10s_systicksE:
	.zero	8
	.weak	_ZN6Kernel7Console13s_shouldFlushE
	.section	.bss._ZN6Kernel7Console13s_shouldFlushE,"awG",@nobits,_ZN6Kernel7Console13s_shouldFlushE,comdat
	.type	_ZN6Kernel7Console13s_shouldFlushE, @object
	.size	_ZN6Kernel7Console13s_shouldFlushE, 1
_ZN6Kernel7Console13s_shouldFlushE:
	.zero	1
	.weak	_ZN6Kernel7Console15s_cursorEnabledE
	.section	.bss._ZN6Kernel7Console15s_cursorEnabledE,"awG",@nobits,_ZN6Kernel7Console15s_cursorEnabledE,comdat
	.type	_ZN6Kernel7Console15s_cursorEnabledE, @object
	.size	_ZN6Kernel7Console15s_cursorEnabledE, 1
_ZN6Kernel7Console15s_cursorEnabledE:
	.zero	1
	.weak	_ZN6Kernel7Console13s_displayLineE
	.section	.bss._ZN6Kernel7Console13s_displayLineE,"awG",@nobits,_ZN6Kernel7Console13s_displayLineE,comdat
	.align 8
	.type	_ZN6Kernel7Console13s_displayLineE, @object
	.size	_ZN6Kernel7Console13s_displayLineE, 8
_ZN6Kernel7Console13s_displayLineE:
	.zero	8
	.weak	_ZN6Kernel7Console11s_cursorPosE
	.section	.bss._ZN6Kernel7Console11s_cursorPosE,"awG",@nobits,_ZN6Kernel7Console11s_cursorPosE,comdat
	.align 16
	.type	_ZN6Kernel7Console11s_cursorPosE, @object
	.size	_ZN6Kernel7Console11s_cursorPosE, 16
_ZN6Kernel7Console11s_cursorPosE:
	.zero	16
	.weak	_ZN6Kernel7Console12s_charBufferE
	.section	.bss._ZN6Kernel7Console12s_charBufferE,"awG",@nobits,_ZN6Kernel7Console12s_charBufferE,comdat
	.align 32
	.type	_ZN6Kernel7Console12s_charBufferE, @object
	.size	_ZN6Kernel7Console12s_charBufferE, 327696
_ZN6Kernel7Console12s_charBufferE:
	.zero	327696
	.text
.Letext0:
	.file 7 "src/kernel/../../include/Types.h"
	.file 8 "src/kernel/../../include/InterruptManager.h"
	.file 9 "src/kernel/../../include/MemoryMap.h"
	.file 10 "src/kernel/../../include/Timer.h"
	.file 11 "src/kernel/../../include/Array.h"