	.file	"Keyboard.cpp"
	.text
.Ltext0:
	.file 0 "/mnt/a/myOsX64" "src/kernel/Keyboard.cpp"
	.align 2
	.globl	_ZN6Kernel8Keyboard13scancodeToKeyEh
	.type	_ZN6Kernel8Keyboard13scancodeToKeyEh, @function
_ZN6Kernel8Keyboard13scancodeToKeyEh:
.LVL0:
.LFB97:
	.file 1 "src/kernel/Keyboard.cpp"
	.loc 1 66 5 view -0
	.cfi_startproc
	.loc 1 66 5 is_stmt 0 view .LVU1
	movl	%edi, %eax
	.loc 1 67 9 is_stmt 1 view .LVU2
	.loc 1 68 5 is_stmt 0 view .LVU3
	ret
	.cfi_endproc
.LFE97:
	.size	_ZN6Kernel8Keyboard13scancodeToKeyEh, .-_ZN6Kernel8Keyboard13scancodeToKeyEh
	.align 2
	.globl	_ZN6Kernel8Keyboard20extededScancodeToKeyEh
	.type	_ZN6Kernel8Keyboard20extededScancodeToKeyEh, @function
_ZN6Kernel8Keyboard20extededScancodeToKeyEh:
.LVL1:
.LFB98:
	.loc 1 71 5 is_stmt 1 view -0
	.cfi_startproc
	.loc 1 72 9 view .LVU5
	subl	$28, %edi
.LVL2:
	.loc 1 72 9 is_stmt 0 view .LVU6
	cmpb	$65, %dil
	ja	.L3
	movzbl	%dil, %edi
.LVL3:
	.loc 1 72 9 view .LVU7
	jmp	*.L5(,%rdi,8)
	.section	.rodata
	.align 8
	.align 4
.L5:
	.quad	.L23
	.quad	.L24
	.quad	.L3
	.quad	.L3
	.quad	.L3
	.quad	.L3
	.quad	.L3
	.quad	.L3
	.quad	.L3
	.quad	.L3
	.quad	.L3
	.quad	.L3
	.quad	.L3
	.quad	.L3
	.quad	.L3
	.quad	.L3
	.quad	.L3
	.quad	.L3
	.quad	.L3
	.quad	.L3
	.quad	.L3
	.quad	.L3
	.quad	.L3
	.quad	.L3
	.quad	.L3
	.quad	.L21
	.quad	.L3
	.quad	.L20
	.quad	.L19
	.quad	.L3
	.quad	.L3
	.quad	.L3
	.quad	.L3
	.quad	.L3
	.quad	.L3
	.quad	.L3
	.quad	.L3
	.quad	.L3
	.quad	.L3
	.quad	.L3
	.quad	.L3
	.quad	.L18
	.quad	.L3
	.quad	.L17
	.quad	.L16
	.quad	.L15
	.quad	.L3
	.quad	.L14
	.quad	.L3
	.quad	.L13
	.quad	.L3
	.quad	.L12
	.quad	.L11
	.quad	.L10
	.quad	.L9
	.quad	.L8
	.quad	.L3
	.quad	.L3
	.quad	.L3
	.quad	.L3
	.quad	.L3
	.quad	.L3
	.quad	.L3
	.quad	.L7
	.quad	.L6
	.quad	.L4
	.text
.L23:
	.loc 1 75 25 view .LVU8
	movl	$85, %eax
	ret
.L21:
	.loc 1 78 9 is_stmt 1 view .LVU9
	.loc 1 79 13 view .LVU10
	.loc 1 79 25 is_stmt 0 view .LVU11
	movl	$87, %eax
	ret
.L20:
	.loc 1 80 9 is_stmt 1 view .LVU12
	.loc 1 81 13 view .LVU13
	.loc 1 81 25 is_stmt 0 view .LVU14
	movl	$88, %eax
	ret
.L19:
	.loc 1 82 9 is_stmt 1 view .LVU15
	.loc 1 83 13 view .LVU16
	.loc 1 83 25 is_stmt 0 view .LVU17
	movl	$89, %eax
	ret
.L18:
	.loc 1 84 9 is_stmt 1 view .LVU18
	.loc 1 85 13 view .LVU19
	.loc 1 85 25 is_stmt 0 view .LVU20
	movl	$90, %eax
	ret
.L17:
	.loc 1 86 9 is_stmt 1 view .LVU21
	.loc 1 87 13 view .LVU22
	.loc 1 87 25 is_stmt 0 view .LVU23
	movl	$91, %eax
	ret
.L16:
	.loc 1 88 9 is_stmt 1 view .LVU24
	.loc 1 89 13 view .LVU25
	.loc 1 89 25 is_stmt 0 view .LVU26
	movl	$92, %eax
	ret
.L15:
	.loc 1 90 9 is_stmt 1 view .LVU27
	.loc 1 91 13 view .LVU28
	.loc 1 91 25 is_stmt 0 view .LVU29
	movl	$93, %eax
	ret
.L14:
	.loc 1 92 9 is_stmt 1 view .LVU30
	.loc 1 93 13 view .LVU31
	.loc 1 93 25 is_stmt 0 view .LVU32
	movl	$94, %eax
	ret
.L13:
	.loc 1 94 9 is_stmt 1 view .LVU33
	.loc 1 95 13 view .LVU34
	.loc 1 95 25 is_stmt 0 view .LVU35
	movl	$95, %eax
	ret
.L12:
	.loc 1 96 9 is_stmt 1 view .LVU36
	.loc 1 97 13 view .LVU37
	.loc 1 97 25 is_stmt 0 view .LVU38
	movl	$96, %eax
	ret
.L11:
	.loc 1 98 9 is_stmt 1 view .LVU39
	.loc 1 99 13 view .LVU40
	.loc 1 99 25 is_stmt 0 view .LVU41
	movl	$97, %eax
	ret
.L10:
	.loc 1 100 9 is_stmt 1 view .LVU42
	.loc 1 101 13 view .LVU43
	.loc 1 101 25 is_stmt 0 view .LVU44
	movl	$98, %eax
	ret
.L9:
	.loc 1 102 9 is_stmt 1 view .LVU45
	.loc 1 103 13 view .LVU46
	.loc 1 103 25 is_stmt 0 view .LVU47
	movl	$99, %eax
	ret
.L8:
	.loc 1 104 9 is_stmt 1 view .LVU48
	.loc 1 105 13 view .LVU49
	.loc 1 105 25 is_stmt 0 view .LVU50
	movl	$100, %eax
	ret
.L7:
	.loc 1 106 9 is_stmt 1 view .LVU51
	.loc 1 107 13 view .LVU52
	.loc 1 107 25 is_stmt 0 view .LVU53
	movl	$101, %eax
	ret
.L6:
	.loc 1 108 9 is_stmt 1 view .LVU54
	.loc 1 109 13 view .LVU55
	.loc 1 109 25 is_stmt 0 view .LVU56
	movl	$102, %eax
	ret
.L4:
	.loc 1 110 9 is_stmt 1 view .LVU57
	.loc 1 111 13 view .LVU58
	.loc 1 111 25 is_stmt 0 view .LVU59
	movl	$103, %eax
	ret
.L3:
	.loc 1 112 9 is_stmt 1 view .LVU60
	.loc 1 113 13 view .LVU61
	.loc 1 113 25 is_stmt 0 view .LVU62
	movl	$104, %eax
	ret
.L24:
	.loc 1 72 9 view .LVU63
	movl	$86, %eax
	.loc 1 116 5 view .LVU64
	ret
	.cfi_endproc
.LFE98:
	.size	_ZN6Kernel8Keyboard20extededScancodeToKeyEh, .-_ZN6Kernel8Keyboard20extededScancodeToKeyEh
	.align 2
	.globl	_ZN6Kernel8Keyboard16interruptHandlerERNS_14InterruptFrameE
	.type	_ZN6Kernel8Keyboard16interruptHandlerERNS_14InterruptFrameE, @function
_ZN6Kernel8Keyboard16interruptHandlerERNS_14InterruptFrameE:
.LVL4:
.LFB93:
	.loc 1 9 5 is_stmt 1 view -0
	.cfi_startproc
	.loc 1 9 5 is_stmt 0 view .LVU66
	pushq	%rbp
	.cfi_def_cfa_offset 16
	.cfi_offset 6, -16
	movq	%rsp, %rbp
	.cfi_def_cfa_register 6
	pushq	%r12
	pushq	%rbx
	.cfi_offset 12, -24
	.cfi_offset 3, -32
	.loc 1 10 9 is_stmt 1 view .LVU67
	.loc 1 10 38 is_stmt 0 view .LVU68
	movl	$96, %edi
.LVL5:
	.loc 1 10 38 view .LVU69
	call	port_in_byte
.LVL6:
	.loc 1 11 9 is_stmt 1 view .LVU70
	cmpb	$-32, %al
	je	.L39
	movq	%rax, %rbx
	.loc 1 17 9 view .LVU71
.LVL7:
.LBB169:
.LBI169:
	.file 2 "src/kernel/../../include/Keyboard.h"
	.loc 2 383 13 view .LVU72
.LBB170:
.LBI170:
	.file 3 "src/kernel/../../include/Utils.h"
	.loc 3 34 9 view .LVU73
	.loc 3 34 9 is_stmt 0 view .LVU74
.LBE170:
.LBE169:
	.loc 1 18 9 is_stmt 1 view .LVU75
	.loc 1 18 17 is_stmt 0 view .LVU76
	movl	%eax, %r12d
	andl	$127, %r12d
.LVL8:
	.loc 1 19 9 is_stmt 1 view .LVU77
.LBB173:
.LBI173:
	.loc 2 399 20 view .LVU78
	.loc 2 401 17 view .LVU79
	.loc 2 402 17 view .LVU80
	.loc 2 402 17 is_stmt 0 view .LVU81
.LBE173:
	.loc 1 21 9 is_stmt 1 view .LVU82
	.loc 1 21 13 is_stmt 0 view .LVU83
	movzbl	_ZN6Kernel8Keyboard14s_nextExtendedE(%rip), %eax
.LVL9:
	.loc 1 21 9 view .LVU84
	testb	%al, %al
	je	.L37
	.loc 1 23 13 is_stmt 1 view .LVU85
	.loc 1 23 28 is_stmt 0 view .LVU86
	movb	$0, _ZN6Kernel8Keyboard14s_nextExtendedE(%rip)
	.loc 1 24 13 is_stmt 1 view .LVU87
	.loc 1 24 25 is_stmt 0 view .LVU88
	movzbl	%r12b, %edi
	call	_ZN6Kernel8Keyboard20extededScancodeToKeyEh
.LVL10:
	movl	%eax, %ecx
.LVL11:
.LBB174:
.LBI174:
	.loc 2 404 20 is_stmt 1 view .LVU89
.LBB175:
	.loc 2 406 17 view .LVU90
	.loc 2 407 17 view .LVU91
	.loc 2 407 17 is_stmt 0 view .LVU92
.LBE175:
.LBE174:
	.loc 1 25 13 is_stmt 1 view .LVU93
.LBB176:
.LBI176:
	.loc 3 43 14 view .LVU94
.LBB177:
	.loc 3 45 21 is_stmt 0 view .LVU95
	movl	$2, %eax
.LVL12:
	.loc 3 46 9 view .LVU96
	jmp	.L28
.LVL13:
.L39:
	.loc 3 46 9 view .LVU97
.LBE177:
.LBE176:
	.loc 1 13 13 is_stmt 1 view .LVU98
	.loc 1 13 28 is_stmt 0 view .LVU99
	movb	$1, _ZN6Kernel8Keyboard14s_nextExtendedE(%rip)
	.loc 1 14 13 is_stmt 1 view .LVU100
	jmp	.L25
.LVL14:
.L37:
.LBB178:
.LBB179:
	.loc 2 406 23 is_stmt 0 view .LVU101
	movl	%r12d, %ecx
.LBE179:
.LBE178:
.LBB180:
.LBB172:
.LBB171:
	.loc 3 34 21 view .LVU102
	movl	$0, %eax
.LVL15:
.L28:
	.loc 3 34 21 view .LVU103
.LBE171:
.LBE172:
.LBE180:
	.loc 1 32 9 is_stmt 1 view .LVU104
.LBB181:
.LBI181:
	.file 4 "src/kernel/../../include/StateTracker.h"
	.loc 4 37 10 view .LVU105
.LBB182:
	.loc 4 41 24 is_stmt 0 view .LVU106
	movq	_ZN6Kernel8Keyboard11s_keyStatesE(%rip), %rdx
.LVL16:
	.loc 4 41 24 view .LVU107
.LBE182:
.LBE181:
	.loc 1 34 9 is_stmt 1 view .LVU108
.LBB183:
.LBI183:
	.loc 4 37 10 view .LVU109
.LBB184:
	.loc 4 41 24 is_stmt 0 view .LVU110
	movq	_ZN6Kernel8Keyboard11s_keyStatesE(%rip), %rdx
.LVL17:
	.loc 4 41 24 view .LVU111
.LBE184:
.LBE183:
	.loc 1 36 9 is_stmt 1 view .LVU112
.LBB185:
.LBI185:
	.loc 4 37 10 view .LVU113
.LBB186:
	.loc 4 41 24 is_stmt 0 view .LVU114
	movq	_ZN6Kernel8Keyboard11s_keyStatesE(%rip), %rdx
.LVL18:
	.loc 4 41 24 view .LVU115
.LBE186:
.LBE185:
	.loc 1 38 9 is_stmt 1 view .LVU116
.LBB187:
.LBI187:
	.loc 4 37 10 view .LVU117
.LBB188:
	.loc 4 41 24 is_stmt 0 view .LVU118
	movq	_ZN6Kernel8Keyboard11s_keyStatesE+8(%rip), %rsi
.LVL19:
	.loc 4 41 24 view .LVU119
.LBE188:
.LBE187:
.LBB189:
.LBB190:
	.loc 3 45 21 view .LVU120
	movl	%eax, %edx
	orl	$8, %edx
	testl	$33554432, %esi
	cmovne	%edx, %eax
.LVL20:
	.loc 3 45 21 view .LVU121
.LBE190:
.LBE189:
	.loc 1 40 9 is_stmt 1 view .LVU122
.LBB191:
.LBI191:
	.loc 4 37 10 view .LVU123
.LBB192:
	.loc 4 41 24 is_stmt 0 view .LVU124
	movq	_ZN6Kernel8Keyboard11s_keyStatesE(%rip), %rsi
.LVL21:
	.loc 4 41 24 view .LVU125
.LBE192:
.LBE191:
.LBB193:
.LBB194:
	.loc 3 45 21 view .LVU126
	movl	%eax, %edx
	orb	$1, %dh
	testl	$268435456, %esi
	cmovne	%edx, %eax
.LVL22:
	.loc 3 45 21 view .LVU127
.LBE194:
.LBE193:
	.loc 1 42 9 is_stmt 1 view .LVU128
.LBB195:
.LBI195:
	.loc 4 37 10 view .LVU129
.LBB196:
	.loc 4 41 24 is_stmt 0 view .LVU130
	movq	_ZN6Kernel8Keyboard11s_keyStatesE+8(%rip), %rsi
.LVL23:
	.loc 4 41 24 view .LVU131
.LBE196:
.LBE195:
.LBB197:
.LBB198:
	.loc 3 45 21 view .LVU132
	movl	%eax, %edx
	orl	$16, %edx
	testl	$4194304, %esi
	cmovne	%edx, %eax
.LVL24:
	.loc 3 45 21 view .LVU133
.LBE198:
.LBE197:
	.loc 1 44 9 is_stmt 1 view .LVU134
.LBB199:
.LBI199:
	.loc 4 37 10 view .LVU135
.LBB200:
	.loc 4 41 24 is_stmt 0 view .LVU136
	movq	_ZN6Kernel8Keyboard11s_keyStatesE+8(%rip), %rdx
.LVL25:
	.loc 4 41 24 view .LVU137
.LBE200:
.LBE199:
	.loc 1 46 9 is_stmt 1 view .LVU138
.LBB201:
.LBI201:
	.loc 4 37 10 view .LVU139
.LBB202:
	.loc 4 41 24 is_stmt 0 view .LVU140
	movq	_ZN6Kernel8Keyboard11s_keyStatesE+8(%rip), %rdx
.LVL26:
	.loc 4 41 24 view .LVU141
.LBE202:
.LBE201:
	.loc 1 48 9 is_stmt 1 view .LVU142
.LBB203:
.LBI203:
	.loc 4 37 10 view .LVU143
.LBB204:
	.loc 4 41 24 is_stmt 0 view .LVU144
	movq	_ZN6Kernel8Keyboard11s_keyStatesE(%rip), %rdx
.LVL27:
	.loc 4 41 24 view .LVU145
.LBE204:
.LBE203:
	.loc 1 50 9 is_stmt 1 view .LVU146
.LBB205:
.LBI205:
	.loc 4 37 10 view .LVU147
.LBB206:
	.loc 4 41 24 is_stmt 0 view .LVU148
	movq	_ZN6Kernel8Keyboard11s_keyStatesE+8(%rip), %rsi
.LVL28:
	.loc 4 41 24 view .LVU149
.LBE206:
.LBE205:
.LBB207:
.LBB208:
	.loc 3 45 21 view .LVU150
	movl	%eax, %edx
	orb	$8, %dh
	testb	$16, %sil
	cmovne	%edx, %eax
.LVL29:
	.loc 3 45 21 view .LVU151
.LBE208:
.LBE207:
	.loc 1 52 9 is_stmt 1 view .LVU152
.LBB209:
.LBI209:
	.loc 4 37 10 view .LVU153
.LBB210:
	.loc 4 41 24 is_stmt 0 view .LVU154
	movq	_ZN6Kernel8Keyboard11s_keyStatesE+8(%rip), %rsi
.LVL30:
	.loc 4 41 24 view .LVU155
.LBE210:
.LBE209:
.LBB211:
.LBB212:
	.loc 3 45 21 view .LVU156
	movl	%eax, %edx
	orb	$16, %dh
	testb	$32, %sil
	cmovne	%edx, %eax
.LVL31:
	.loc 3 45 21 view .LVU157
.LBE212:
.LBE211:
	.loc 1 55 9 is_stmt 1 view .LVU158
	testb	%bl, %bl
	js	.L34
	.loc 1 57 13 view .LVU159
.LVL32:
.LBB213:
.LBI213:
	.loc 3 43 14 view .LVU160
.LBB214:
	.loc 3 45 21 is_stmt 0 view .LVU161
	orl	$1, %eax
.LVL33:
	.loc 3 45 21 view .LVU162
.LBE214:
.LBE213:
	.loc 1 58 13 is_stmt 1 view .LVU163
.LBB215:
.LBI215:
	.loc 4 25 10 view .LVU164
.LBE215:
	.loc 1 58 28 is_stmt 0 discriminator 1 view .LVU165
	movzbl	%cl, %esi
.LVL34:
.LBB217:
.LBB216:
	.loc 4 27 16 view .LVU166
	shrq	$6, %rsi
.LVL35:
	.loc 4 29 17 view .LVU167
	movq	_ZN6Kernel8Keyboard11s_keyStatesE(,%rsi,8), %rdi
	.loc 4 29 40 view .LVU168
	movl	$1, %edx
	sall	%cl, %edx
	movslq	%edx, %rdx
	.loc 4 29 34 view .LVU169
	orq	%rdi, %rdx
	movq	%rdx, _ZN6Kernel8Keyboard11s_keyStatesE(,%rsi,8)
.LVL36:
.L35:
	.loc 4 29 34 view .LVU170
.LBE216:
.LBE217:
	.loc 1 62 9 is_stmt 1 view .LVU171
.LBB218:
.LBI218:
	.file 5 "src/kernel/../../include/RollingWindow.h"
	.loc 5 20 10 view .LVU172
.LBB219:
	.loc 5 22 16 is_stmt 0 view .LVU173
	movq	_ZN6Kernel8Keyboard11s_keyBufferE+1032(%rip), %rdx
	.loc 5 22 9 view .LVU174
	movb	%r12b, _ZN6Kernel8Keyboard11s_keyBufferE(,%rdx,4)
	leaq	_ZN6Kernel8Keyboard11s_keyBufferE(,%rdx,4), %rsi
	movb	%cl, 1(%rsi)
	movw	%ax, 2(%rsi)
	.loc 5 23 26 view .LVU175
	addq	$1, %rdx
	.loc 5 23 31 view .LVU176
	movzbl	%dl, %edx
	.loc 5 23 16 view .LVU177
	movq	%rdx, _ZN6Kernel8Keyboard11s_keyBufferE+1032(%rip)
	.loc 5 24 23 view .LVU178
	movq	_ZN6Kernel8Keyboard11s_keyBufferE+1024(%rip), %rax
.LVL37:
	.loc 5 24 9 view .LVU179
	cmpq	%rax, %rdx
	je	.L40
.LVL38:
.L25:
	.loc 5 24 9 view .LVU180
.LBE219:
.LBE218:
	.loc 1 63 5 view .LVU181
	popq	%rbx
	.cfi_remember_state
	.cfi_restore 3
	popq	%r12
	.cfi_restore 12
	popq	%rbp
	.cfi_restore 6
	.cfi_def_cfa 7, 8
	ret
.LVL39:
.L34:
	.cfi_restore_state
	.loc 1 61 13 is_stmt 1 view .LVU182
.LBB221:
.LBI221:
	.loc 4 31 10 view .LVU183
.LBE221:
	.loc 1 61 30 is_stmt 0 discriminator 1 view .LVU184
	movzbl	%cl, %esi
.LVL40:
.LBB223:
.LBB222:
	.loc 4 33 16 view .LVU185
	shrq	$6, %rsi
.LVL41:
	.loc 4 35 17 view .LVU186
	movq	_ZN6Kernel8Keyboard11s_keyStatesE(,%rsi,8), %rdi
	.loc 4 35 41 view .LVU187
	movl	$-2, %edx
	.loc 4 35 34 view .LVU188
	roll	%cl, %edx
	movslq	%edx, %rdx
	andq	%rdi, %rdx
	movq	%rdx, _ZN6Kernel8Keyboard11s_keyStatesE(,%rsi,8)
.LVL42:
	.loc 4 36 5 view .LVU189
	jmp	.L35
.LVL43:
.L40:
	.loc 4 36 5 view .LVU190
.LBE222:
.LBE223:
.LBB224:
.LBB220:
	.loc 5 26 30 view .LVU191
	addq	$1, %rax
	.loc 5 26 35 view .LVU192
	andl	$255, %eax
	movq	%rax, _ZN6Kernel8Keyboard11s_keyBufferE+1024(%rip)
.LVL44:
	.loc 5 26 35 view .LVU193
	jmp	.L25
.LBE220:
.LBE224:
	.cfi_endproc
.LFE93:
	.size	_ZN6Kernel8Keyboard16interruptHandlerERNS_14InterruptFrameE, .-_ZN6Kernel8Keyboard16interruptHandlerERNS_14InterruptFrameE
	.align 2
	.globl	_ZN6Kernel8Keyboard10initialiseEv
	.type	_ZN6Kernel8Keyboard10initialiseEv, @function
_ZN6Kernel8Keyboard10initialiseEv:
.LFB99:
	.loc 1 119 5 is_stmt 1 view -0
	.cfi_startproc
	pushq	%rbp
	.cfi_def_cfa_offset 16
	.cfi_offset 6, -16
	movq	%rsp, %rbp
	.cfi_def_cfa_register 6
	pushq	%rbx
	subq	$8, %rsp
	.cfi_offset 3, -24
	.loc 1 120 9 view .LVU195
	.loc 1 120 52 is_stmt 0 view .LVU196
	movq	$_ZN6Kernel8Keyboard16interruptHandlerERNS_14InterruptFrameE, %rsi
	movl	$33, %edi
	call	_ZN6Kernel16InterruptManager25registerInterruptCallbackENS0_15InterruptVectorEPFvRNS_14InterruptFrameEE
.LVL45:
	.loc 1 124 9 is_stmt 1 view .LVU197
	.loc 1 124 22 is_stmt 0 view .LVU198
	movl	$174, %esi
	movl	$100, %edi
	call	port_out_byte
.LVL46:
	.loc 1 127 9 is_stmt 1 view .LVU199
	.loc 1 127 22 is_stmt 0 view .LVU200
	movl	$32, %esi
	movl	$100, %edi
	call	port_out_byte
.LVL47:
	.loc 1 128 9 is_stmt 1 view .LVU201
	.loc 1 128 38 is_stmt 0 view .LVU202
	movl	$96, %edi
	call	port_in_byte
.LVL48:
	movq	%rax, %rbx
.LVL49:
	.loc 1 129 9 is_stmt 1 view .LVU203
	.loc 1 130 9 view .LVU204
	.loc 1 130 22 is_stmt 0 view .LVU205
	movl	$96, %esi
	movl	$100, %edi
	call	port_out_byte
.LVL50:
	.loc 1 131 9 is_stmt 1 view .LVU206
	.loc 1 129 16 is_stmt 0 view .LVU207
	orl	$1, %ebx
.LVL51:
	.loc 1 131 22 view .LVU208
	movzbl	%bl, %esi
	movl	$96, %edi
	call	port_out_byte
.LVL52:
	.loc 1 132 5 view .LVU209
	movq	-8(%rbp), %rbx
	leave
	.cfi_restore 6
	.cfi_restore 3
	.cfi_def_cfa 7, 8
	ret
	.cfi_endproc
.LFE99:
	.size	_ZN6Kernel8Keyboard10initialiseEv, .-_ZN6Kernel8Keyboard10initialiseEv
	.type	_GLOBAL__sub_I__ZN6Kernel8Keyboard11s_keyStatesE, @function
_GLOBAL__sub_I__ZN6Kernel8Keyboard11s_keyStatesE:
.LFB118:
	.loc 1 133 1 is_stmt 1 view -0
	.cfi_startproc
.LBB237:
.LBI237:
	.loc 1 133 1 view .LVU211
.LBB238:
	.file 6 "src/kernel/../../include/Console.h"
	.loc 6 72 95 is_stmt 0 view .LVU212
	cmpb	$0, _ZGVN6Kernel7Console12s_charBufferE(%rip)
	jne	.L44
	.loc 6 72 95 discriminator 1 view .LVU213
	movb	$1, _ZGVN6Kernel7Console12s_charBufferE(%rip)
.LVL53:
.LBB239:
.LBI239:
	.loc 5 14 5 is_stmt 1 view .LVU214
.LBB240:
.LBB241:
	.loc 5 15 5 discriminator 1 view .LVU215
.LBE241:
	.loc 5 14 5 is_stmt 0 view .LVU216
	movl	$2048, %eax
.L45:
.LBB242:
	.loc 5 15 5 is_stmt 1 discriminator 1 view .LVU217
	subq	$1, %rax
	jne	.L45
	.loc 5 15 5 is_stmt 0 discriminator 4 view .LVU218
	movq	$0, _ZN6Kernel7Console12s_charBufferE+327680(%rip)
	movq	$0, _ZN6Kernel7Console12s_charBufferE+327688(%rip)
.LVL54:
.L44:
	.loc 5 15 5 discriminator 4 view .LVU219
.LBE242:
.LBE240:
.LBE239:
.LBB243:
.LBI243:
	.loc 5 14 5 is_stmt 1 view .LVU220
.LBB244:
.LBB245:
	.loc 5 15 5 discriminator 2 view .LVU221
	movq	$_ZN6Kernel8Keyboard11s_keyBufferE, %rax
	movq	$_ZN6Kernel8Keyboard11s_keyBufferE+1024, %rdx
.L46:
.LVL55:
.LBB246:
.LBI246:
	.loc 2 383 13 view .LVU222
.LBB247:
.LBI247:
	.loc 3 34 9 view .LVU223
.LBB248:
	.loc 3 34 21 is_stmt 0 view .LVU224
	movw	$0, 2(%rax)
.LVL56:
	.loc 3 34 21 view .LVU225
.LBE248:
.LBE247:
.LBE246:
	.loc 5 15 5 is_stmt 1 discriminator 2 view .LVU226
	addq	$4, %rax
	cmpq	%rdx, %rax
	jne	.L46
	.loc 5 15 5 is_stmt 0 discriminator 4 view .LVU227
	movq	$0, _ZN6Kernel8Keyboard11s_keyBufferE+1024(%rip)
	movq	$0, _ZN6Kernel8Keyboard11s_keyBufferE+1032(%rip)
.LVL57:
	.loc 5 15 5 discriminator 4 view .LVU228
.LBE245:
.LBE244:
.LBE243:
.LBE238:
.LBE237:
	.loc 1 133 1 view .LVU229
	ret
	.cfi_endproc
.LFE118:
	.size	_GLOBAL__sub_I__ZN6Kernel8Keyboard11s_keyStatesE, .-_GLOBAL__sub_I__ZN6Kernel8Keyboard11s_keyStatesE
	.section	.ctors,"aw",@progbits
	.align 8
	.quad	_GLOBAL__sub_I__ZN6Kernel8Keyboard11s_keyStatesE
	.weak	_ZGVN6Kernel7Console12s_charBufferE
	.section	.bss._ZGVN6Kernel7Console12s_charBufferE,"awG",@nobits,_ZGVN6Kernel7Console12s_charBufferE,comdat
	.align 8
	.type	_ZGVN6Kernel7Console12s_charBufferE, @object
	.size	_ZGVN6Kernel7Console12s_charBufferE, 8
_ZGVN6Kernel7Console12s_charBufferE:
	.zero	8
	.globl	_ZN6Kernel8Keyboard14s_nextExtendedE
	.section	.bss
	.type	_ZN6Kernel8Keyboard14s_nextExtendedE, @object
	.size	_ZN6Kernel8Keyboard14s_nextExtendedE, 1
_ZN6Kernel8Keyboard14s_nextExtendedE:
	.zero	1
	.globl	_ZN6Kernel8Keyboard11s_keyBufferE
	.align 32
	.type	_ZN6Kernel8Keyboard11s_keyBufferE, @object
	.size	_ZN6Kernel8Keyboard11s_keyBufferE, 1040
_ZN6Kernel8Keyboard11s_keyBufferE:
	.zero	1040
	.globl	_ZN6Kernel8Keyboard11s_keyStatesE
	.align 16
	.type	_ZN6Kernel8Keyboard11s_keyStatesE, @object
	.size	_ZN6Kernel8Keyboard11s_keyStatesE, 16
_ZN6Kernel8Keyboard11s_keyStatesE:
	.zero	16
	.weak	_ZN6Kernel7Console13s_shouldFlushE
	.section	.bss._ZN6Kernel7Console13s_shouldFlushE,"awG",@nobits,_ZN6Kernel7Console13s_shouldFlushE,comdat
	.type	_ZN6Kernel7Console13s_shouldFlushE, @object
	.size	_ZN6Kernel7Console13s_shouldFlushE, 1
_ZN6Kernel7Console13s_shouldFlushE:
	.zero	1
	.weak	_ZN6Kernel7Console15s_cursorEnabledE
	.section	.bss._ZN6Kernel7Console15s_cursorEnabledE,"awG",@nobits,_ZN6Kernel7Console15s_cursorEnabledE,comdat
	.type	_ZN6Kernel7Console15s_cursorEnabledE, @object
	.size	_ZN6Kernel7Console15s_cursorEnabledE, 1
_ZN6Kernel7Console15s_cursorEnabledE:
	.zero	1
	.weak	_ZN6Kernel7Console13s_displayLineE
	.section	.bss._ZN6Kernel7Console13s_displayLineE,"awG",@nobits,_ZN6Kernel7Console13s_displayLineE,comdat
	.align 8
	.type	_ZN6Kernel7Console13s_displayLineE, @object
	.size	_ZN6Kernel7Console13s_displayLineE, 8
_ZN6Kernel7Console13s_displayLineE:
	.zero	8
	.weak	_ZN6Kernel7Console11s_cursorPosE
	.section	.bss._ZN6Kernel7Console11s_cursorPosE,"awG",@nobits,_ZN6Kernel7Console11s_cursorPosE,comdat
	.align 16
	.type	_ZN6Kernel7Console11s_cursorPosE, @object
	.size	_ZN6Kernel7Console11s_cursorPosE, 16
_ZN6Kernel7Console11s_cursorPosE:
	.zero	16
	.weak	_ZN6Kernel7Console12s_charBufferE
	.section	.bss._ZN6Kernel7Console12s_charBufferE,"awG",@nobits,_ZN6Kernel7Console12s_charBufferE,comdat
	.align 32
	.type	_ZN6Kernel7Console12s_charBufferE, @object
	.size	_ZN6Kernel7Console12s_charBufferE, 327696
_ZN6Kernel7Console12s_charBufferE:
	.zero	327696
	.text
.Letext0:
	.file 7 "src/kernel/../../include/Types.h"
	.file 8 "src/kernel/../../include/InterruptManager.h"
	.file 9 "src/kernel/../../include/Array.h"