	.file	"MemoryMap.cpp"
	.text
.Ltext0:
	.file 0 "/mnt/a/myOsX64" "src/kernel/MemoryMap.cpp"
	.section	.rodata._ZN6Kernel7Console9printImplIRyJEEEvPKcNS0_10AttributesEOT_DpOT0_.str1.1,"aMS",@progbits,1
.LC0:
	.string	"0b"
.LC1:
	.string	"0x"
.LC2:
	.string	"0123456789ABCDEF"
	.section	.text._ZN6Kernel7Console9printImplIRyJEEEvPKcNS0_10AttributesEOT_DpOT0_,"axG",@progbits,_ZN6Kernel7Console9printImplIRyJEEEvPKcNS0_10AttributesEOT_DpOT0_,comdat
	.weak	_ZN6Kernel7Console9printImplIRyJEEEvPKcNS0_10AttributesEOT_DpOT0_
	.type	_ZN6Kernel7Console9printImplIRyJEEEvPKcNS0_10AttributesEOT_DpOT0_, @function
_ZN6Kernel7Console9printImplIRyJEEEvPKcNS0_10AttributesEOT_DpOT0_:
.LVL0:
.LFB57:
	.file 1 "src/kernel/../../include/Console.h"
	.loc 1 197 21 view -0
	.cfi_startproc
	.loc 1 197 21 is_stmt 0 view .LVU1
	pushq	%rbp
	.cfi_def_cfa_offset 16
	.cfi_offset 6, -16
	movq	%rsp, %rbp
	.cfi_def_cfa_register 6
	pushq	%r15
	pushq	%r14
	pushq	%r13
	pushq	%r12
	pushq	%rbx
	subq	$40, %rsp
	.cfi_offset 15, -24
	.cfi_offset 14, -32
	.cfi_offset 13, -40
	.cfi_offset 12, -48
	.cfi_offset 3, -56
	movq	%rdi, %r12
	movq	%rdx, %r13
	movl	%esi, %ebx
	.loc 1 199 13 is_stmt 1 view .LVU2
	movzbl	(%rdi), %edi
.LVL1:
	.loc 1 199 13 is_stmt 0 view .LVU3
	testb	%dil, %dil
	jne	.L39
	jmp	.L1
.LVL2:
.L64:
	.loc 1 205 32 view .LVU4
	movl	%ebx, %esi
	movl	$37, %edi
	call	_ZN6Kernel7Console7putCharEhNS0_10AttributesE
.LVL3:
	.loc 1 206 25 view .LVU5
	addq	$2, %r12
.LVL4:
	.loc 1 207 25 view .LVU6
	jmp	.L5
.LVL5:
.L11:
	.loc 1 214 38 view .LVU7
	movq	0(%r13), %r14
.LVL6:
.LBB65:
.LBI65:
	.loc 1 131 21 is_stmt 1 view .LVU8
.LBB66:
	.loc 1 133 13 is_stmt 0 view .LVU9
	testq	%r14, %r14
	je	.L56
	.loc 1 138 38 view .LVU10
	movq	_ZN6Kernel7Console11s_cursorPosE+8(%rip), %rax
	.loc 1 138 71 view .LVU11
	movq	_ZN6Kernel7Console11s_cursorPosE(%rip), %rdx
	.loc 1 138 40 view .LVU12
	imulq	_ZN6Kernel7Console8s_extentE(%rip), %rax
	.loc 1 138 20 view .LVU13
	addq	%rdx, %rax
	movq	%rax, -56(%rbp)
.LVL7:
	.loc 1 147 24 is_stmt 1 view .LVU14
	.loc 1 145 20 is_stmt 0 view .LVU15
	movl	$0, %r15d
.LVL8:
.L16:
	.loc 1 149 50 view .LVU16
	movabsq	$-3689348814741910323, %rax
	mulq	%r14
	shrq	$3, %rdx
	movq	%rdx, %r13
	leaq	(%rdx,%rdx,4), %rax
	addq	%rax, %rax
	movq	%r14, %rsi
	subq	%rax, %rsi
	.loc 1 149 44 view .LVU17
	addl	$48, %esi
	.loc 1 149 26 view .LVU18
	movzbl	%sil, %esi
	movq	-56(%rbp), %rax
	leaq	(%rax,%r15), %rdi
	movl	%ebx, %edx
	call	_ZN6Kernel7Console9writeCharEmhNS0_10AttributesE
.LVL9:
	movq	%r14, %rax
	.loc 1 150 21 view .LVU19
	movq	%r13, %r14
.LVL10:
	.loc 1 151 17 view .LVU20
	addq	$1, %r15
.LVL11:
	.loc 1 147 24 is_stmt 1 view .LVU21
	cmpq	$9, %rax
	ja	.L16
.LVL12:
.LBB67:
	.loc 1 156 34 discriminator 1 view .LVU22
	.loc 1 156 42 is_stmt 0 discriminator 1 view .LVU23
	movq	%r15, %r9
	shrq	%r9
	.loc 1 156 34 discriminator 1 view .LVU24
	cmpq	$1, %r15
	jbe	.L17
	movq	-56(%rbp), %rcx
	leaq	(%rcx,%r15), %rax
	leaq	-2(%rax,%rax), %rdx
	addq	%rcx, %rax
	.loc 1 156 25 view .LVU25
	movl	$0, %edi
	.loc 1 160 83 view .LVU26
	leaq	-2(%rax,%rax), %r10
.LVL13:
.L18:
	.loc 1 158 68 view .LVU27
	movq	_ZN6Kernel7Console12s_vgaAddressE(%rip), %rcx
	leaq	(%rcx,%rdx), %rsi
	.loc 1 158 70 view .LVU28
	movzbl	(%rsi), %r11d
.LVL14:
	.loc 1 159 65 view .LVU29
	movzbl	1(%rsi), %r8d
.LVL15:
	.loc 1 160 83 view .LVU30
	movq	%r10, %rax
	subq	%rdx, %rax
	addq	%rax, %rcx
	.loc 1 160 85 view .LVU31
	movzbl	(%rcx), %ecx
	.loc 1 160 61 view .LVU32
	movb	%cl, (%rsi)
	.loc 1 161 78 view .LVU33
	movq	_ZN6Kernel7Console12s_vgaAddressE(%rip), %rcx
	leaq	(%rcx,%rax), %rsi
	.loc 1 161 49 view .LVU34
	addq	%rdx, %rcx
	.loc 1 161 80 view .LVU35
	movzbl	1(%rsi), %esi
	.loc 1 161 56 view .LVU36
	movb	%sil, 1(%rcx)
	.loc 1 162 37 view .LVU37
	movq	%rax, %rcx
	addq	_ZN6Kernel7Console12s_vgaAddressE(%rip), %rcx
	.loc 1 162 49 view .LVU38
	movb	%r11b, (%rcx)
	.loc 1 163 37 view .LVU39
	addq	_ZN6Kernel7Console12s_vgaAddressE(%rip), %rax
	.loc 1 163 44 view .LVU40
	movb	%r8b, 1(%rax)
	.loc 1 156 13 is_stmt 1 discriminator 3 view .LVU41
	addq	$1, %rdi
.LVL16:
	.loc 1 156 34 discriminator 1 view .LVU42
	subq	$2, %rdx
	cmpq	%r9, %rdi
	jb	.L18
.LVL17:
.L17:
	.loc 1 156 34 is_stmt 0 discriminator 1 view .LVU43
.LBE67:
	.loc 1 166 34 view .LVU44
	movq	-56(%rbp), %rax
	addq	%r15, %rax
	.loc 1 166 43 view .LVU45
	movl	$0, %edx
	divq	_ZN6Kernel7Console8s_extentE(%rip)
	.loc 1 166 27 view .LVU46
	movq	%rdx, _ZN6Kernel7Console11s_cursorPosE(%rip)
	.loc 1 167 27 view .LVU47
	movq	%rax, _ZN6Kernel7Console11s_cursorPosE+8(%rip)
	.loc 1 168 33 view .LVU48
	call	_ZN6Kernel7Console20updateHardwareCursorEv
.LVL18:
	jmp	.L15
.LVL19:
.L56:
	.loc 1 135 24 view .LVU49
	movl	%ebx, %esi
	movl	$48, %edi
	call	_ZN6Kernel7Console7putCharEhNS0_10AttributesE
.LVL20:
	jmp	.L15
.LVL21:
.L13:
	.loc 1 135 24 view .LVU50
.LBE66:
.LBE65:
	.loc 1 225 38 view .LVU51
	movq	0(%r13), %r13
.LVL22:
.LBB68:
.LBI68:
	.loc 1 107 21 is_stmt 1 view .LVU52
.LBB69:
.LBB70:
.LBI70:
	.loc 1 87 21 view .LVU53
.LBB71:
.LBB72:
	.loc 1 90 39 discriminator 1 view .LVU54
	movq	$.LC0+1, %r15
	.loc 1 90 35 is_stmt 0 discriminator 1 view .LVU55
	movl	$48, %r14d
.LBB73:
	.loc 1 92 55 view .LVU56
	movq	$_ZN6Kernel7Console8s_extentE, %rax
	movq	(%rax), %rax
	movq	%rax, -56(%rbp)
	jmp	.L21
.LVL23:
.L44:
	.loc 1 97 35 view .LVU57
	movq	$0, _ZN6Kernel7Console11s_cursorPosE(%rip)
	.loc 1 98 35 view .LVU58
	movq	_ZN6Kernel7Console11s_cursorPosE+8(%rip), %rax
	.loc 1 98 21 view .LVU59
	addq	$1, %rax
	movq	%rax, _ZN6Kernel7Console11s_cursorPosE+8(%rip)
	.loc 1 99 37 view .LVU60
	movq	_ZN6Kernel7Console11s_cursorPosE+8(%rip), %rax
	.loc 1 99 21 view .LVU61
	movq	$_ZN6Kernel7Console8s_extentE, %rcx
	cmpq	8(%rcx), %rax
	jnb	.L57
.L19:
.LBE73:
	.loc 1 90 13 is_stmt 1 discriminator 2 view .LVU62
.LVL24:
	.loc 1 90 39 discriminator 1 view .LVU63
	addq	$1, %r15
.LVL25:
	.loc 1 90 35 is_stmt 0 discriminator 1 view .LVU64
	movzbl	-1(%r15), %r14d
	.loc 1 90 39 discriminator 1 view .LVU65
	testb	%r14b, %r14b
	je	.L58
.LVL26:
.L21:
.LBB74:
	.loc 1 92 42 view .LVU66
	movq	_ZN6Kernel7Console11s_cursorPosE+8(%rip), %rdi
	.loc 1 92 75 view .LVU67
	movq	_ZN6Kernel7Console11s_cursorPosE(%rip), %rax
.LVL27:
	.loc 1 93 26 view .LVU68
	movzbl	%r14b, %esi
	.loc 1 92 44 view .LVU69
	movq	-56(%rbp), %rcx
	imulq	%rcx, %rdi
.LVL28:
	.loc 1 92 24 view .LVU70
	addq	%rax, %rdi
.LVL29:
	.loc 1 93 26 view .LVU71
	movl	%ebx, %edx
	call	_ZN6Kernel7Console9writeCharEmhNS0_10AttributesE
.LVL30:
	.loc 1 94 31 view .LVU72
	movq	_ZN6Kernel7Console11s_cursorPosE(%rip), %rax
	.loc 1 94 17 view .LVU73
	addq	$1, %rax
	movq	%rax, _ZN6Kernel7Console11s_cursorPosE(%rip)
	.loc 1 95 33 view .LVU74
	movq	_ZN6Kernel7Console11s_cursorPosE(%rip), %rax
	.loc 1 95 53 discriminator 2 view .LVU75
	movq	-56(%rbp), %rcx
	cmpq	%rcx, %rax
	jnb	.L44
	cmpb	$10, %r14b
	je	.L44
	jmp	.L19
.L57:
	.loc 1 100 35 view .LVU76
	movl	$1, %edi
	call	_ZN6Kernel7Console10scrollDownEm
.LVL31:
	jmp	.L19
.LVL32:
.L58:
	.loc 1 100 35 view .LVU77
.LBE74:
.LBE72:
	.loc 1 103 33 view .LVU78
	call	_ZN6Kernel7Console20updateHardwareCursorEv
.LVL33:
	.loc 1 103 33 view .LVU79
.LBE71:
.LBE70:
	.loc 1 111 38 view .LVU80
	movq	_ZN6Kernel7Console11s_cursorPosE+8(%rip), %rax
	.loc 1 111 71 view .LVU81
	movq	_ZN6Kernel7Console11s_cursorPosE(%rip), %rdx
	.loc 1 111 40 view .LVU82
	movq	-56(%rbp), %rcx
	imulq	%rcx, %rax
	.loc 1 111 20 view .LVU83
	addq	%rdx, %rax
	movq	%rax, -64(%rbp)
.LVL34:
	.loc 1 114 22 is_stmt 1 discriminator 1 view .LVU84
	.loc 1 116 17 is_stmt 0 view .LVU85
	testq	%r13, %r13
	js	.L40
	.loc 1 112 20 view .LVU86
	movl	$0, %r14d
.LVL35:
.L23:
	.loc 1 118 21 view .LVU87
	addq	%r13, %r13
.LVL36:
	.loc 1 114 13 is_stmt 1 view .LVU88
	addq	$1, %r14
.LVL37:
	.loc 1 114 22 discriminator 1 view .LVU89
	cmpq	$64, %r14
	je	.L59
	.loc 1 116 17 is_stmt 0 view .LVU90
	testq	%r13, %r13
	jns	.L23
	movq	%r14, -72(%rbp)
.LVL38:
.L22:
	.loc 1 120 22 is_stmt 1 discriminator 1 view .LVU91
	.loc 1 120 22 is_stmt 0 discriminator 1 view .LVU92
	movq	-64(%rbp), %rax
.LVL39:
	.loc 1 120 22 discriminator 1 view .LVU93
	addq	%rax, %r14
.LVL40:
	.loc 1 120 22 discriminator 1 view .LVU94
	movq	-72(%rbp), %rcx
	subq	%rcx, %r14
	addq	$64, %rax
	subq	%rcx, %rax
	movq	%rax, %r15
.LVL41:
.L26:
	.loc 1 122 56 view .LVU95
	movq	%r13, %rax
	shrq	$63, %rax
	.loc 1 122 26 view .LVU96
	leal	48(%rax), %esi
	movl	%ebx, %edx
	movq	%r14, %rdi
	call	_ZN6Kernel7Console9writeCharEmhNS0_10AttributesE
.LVL42:
	.loc 1 123 21 view .LVU97
	addq	%r13, %r13
.LVL43:
	.loc 1 120 13 is_stmt 1 discriminator 2 view .LVU98
	.loc 1 120 22 discriminator 1 view .LVU99
	addq	$1, %r14
.LVL44:
	.loc 1 120 22 is_stmt 0 discriminator 1 view .LVU100
	cmpq	%r14, %r15
	jne	.L26
.LVL45:
.L25:
	.loc 1 125 43 view .LVU101
	movq	-64(%rbp), %rax
	addq	$64, %rax
	movq	-72(%rbp), %rdx
	subq	%rdx, %rax
	.loc 1 125 51 view .LVU102
	movl	$0, %edx
	divq	-56(%rbp)
	.loc 1 125 27 view .LVU103
	movq	%rdx, _ZN6Kernel7Console11s_cursorPosE(%rip)
	.loc 1 126 27 view .LVU104
	movq	%rax, _ZN6Kernel7Console11s_cursorPosE+8(%rip)
	.loc 1 127 33 view .LVU105
	call	_ZN6Kernel7Console20updateHardwareCursorEv
.LVL46:
.L15:
	.loc 1 127 33 view .LVU106
.LBE69:
.LBE68:
.LBB77:
.LBB78:
.LBB79:
	.loc 1 90 39 is_stmt 1 discriminator 1 view .LVU107
	.loc 1 90 35 is_stmt 0 discriminator 1 view .LVU108
	leaq	2(%r12), %r13
	movzbl	2(%r12), %esi
	.loc 1 90 39 discriminator 1 view .LVU109
	testb	%sil, %sil
	je	.L36
.LBB80:
	.loc 1 92 55 view .LVU110
	movq	$_ZN6Kernel7Console8s_extentE, %r14
	movq	(%r14), %r12
	jmp	.L35
.LVL47:
.L59:
	.loc 1 92 55 view .LVU111
.LBE80:
.LBE79:
.LBE78:
.LBE77:
.LBB85:
.LBB75:
	movq	%r14, -72(%rbp)
	jmp	.L25
.LVL48:
.L7:
	.loc 1 92 55 view .LVU112
.LBE75:
.LBE85:
	.loc 1 236 38 view .LVU113
	movq	0(%r13), %r13
.LVL49:
.LBB86:
.LBI86:
	.loc 1 172 21 is_stmt 1 view .LVU114
.LBB87:
.LBB88:
.LBI88:
	.loc 1 87 21 view .LVU115
.LBB89:
.LBB90:
	.loc 1 90 39 discriminator 1 view .LVU116
	movq	$.LC1+1, %r15
	.loc 1 90 35 is_stmt 0 discriminator 1 view .LVU117
	movl	$48, %r14d
.LBB91:
	.loc 1 92 55 view .LVU118
	movq	$_ZN6Kernel7Console8s_extentE, %rax
	movq	(%rax), %rax
	movq	%rax, -56(%rbp)
	jmp	.L29
.LVL50:
.L45:
	.loc 1 97 35 view .LVU119
	movq	$0, _ZN6Kernel7Console11s_cursorPosE(%rip)
	.loc 1 98 35 view .LVU120
	movq	_ZN6Kernel7Console11s_cursorPosE+8(%rip), %rax
	.loc 1 98 21 view .LVU121
	addq	$1, %rax
	movq	%rax, _ZN6Kernel7Console11s_cursorPosE+8(%rip)
	.loc 1 99 37 view .LVU122
	movq	_ZN6Kernel7Console11s_cursorPosE+8(%rip), %rax
	.loc 1 99 21 view .LVU123
	movq	$_ZN6Kernel7Console8s_extentE, %rdx
	cmpq	8(%rdx), %rax
	jnb	.L60
.L27:
.LBE91:
	.loc 1 90 13 is_stmt 1 discriminator 2 view .LVU124
.LVL51:
	.loc 1 90 39 discriminator 1 view .LVU125
	addq	$1, %r15
.LVL52:
	.loc 1 90 35 is_stmt 0 discriminator 1 view .LVU126
	movzbl	-1(%r15), %r14d
	.loc 1 90 39 discriminator 1 view .LVU127
	testb	%r14b, %r14b
	je	.L61
.LVL53:
.L29:
.LBB92:
	.loc 1 92 42 view .LVU128
	movq	_ZN6Kernel7Console11s_cursorPosE+8(%rip), %rdi
	.loc 1 92 75 view .LVU129
	movq	_ZN6Kernel7Console11s_cursorPosE(%rip), %rax
.LVL54:
	.loc 1 93 26 view .LVU130
	movzbl	%r14b, %esi
	.loc 1 92 44 view .LVU131
	movq	-56(%rbp), %rcx
	imulq	%rcx, %rdi
.LVL55:
	.loc 1 92 24 view .LVU132
	addq	%rax, %rdi
.LVL56:
	.loc 1 93 26 view .LVU133
	movl	%ebx, %edx
	call	_ZN6Kernel7Console9writeCharEmhNS0_10AttributesE
.LVL57:
	.loc 1 94 31 view .LVU134
	movq	_ZN6Kernel7Console11s_cursorPosE(%rip), %rax
	.loc 1 94 17 view .LVU135
	addq	$1, %rax
	movq	%rax, _ZN6Kernel7Console11s_cursorPosE(%rip)
	.loc 1 95 33 view .LVU136
	movq	_ZN6Kernel7Console11s_cursorPosE(%rip), %rax
	.loc 1 95 53 discriminator 2 view .LVU137
	movq	-56(%rbp), %rcx
	cmpq	%rcx, %rax
	jnb	.L45
	cmpb	$10, %r14b
	je	.L45
	jmp	.L27
.L60:
	.loc 1 100 35 view .LVU138
	movl	$1, %edi
	call	_ZN6Kernel7Console10scrollDownEm
.LVL58:
	jmp	.L27
.LVL59:
.L61:
	.loc 1 100 35 view .LVU139
.LBE92:
.LBE90:
	.loc 1 103 33 view .LVU140
	call	_ZN6Kernel7Console20updateHardwareCursorEv
.LVL60:
	.loc 1 103 33 view .LVU141
.LBE89:
.LBE88:
	.loc 1 176 38 view .LVU142
	movq	_ZN6Kernel7Console11s_cursorPosE+8(%rip), %rax
	.loc 1 176 71 view .LVU143
	movq	_ZN6Kernel7Console11s_cursorPosE(%rip), %rdx
	.loc 1 176 40 view .LVU144
	movq	-56(%rbp), %rcx
	imulq	%rcx, %rax
	.loc 1 176 20 view .LVU145
	addq	%rdx, %rax
	movq	%rax, -72(%rbp)
.LVL61:
	.loc 1 179 22 is_stmt 1 discriminator 1 view .LVU146
	.loc 1 181 17 is_stmt 0 view .LVU147
	movq	%r13, %r15
	shrq	$60, %r15
	jne	.L62
.LVL62:
.L31:
	.loc 1 183 21 view .LVU148
	salq	$4, %r13
.LVL63:
	.loc 1 179 13 is_stmt 1 view .LVU149
	addq	$1, %r15
.LVL64:
	.loc 1 179 22 discriminator 1 view .LVU150
	cmpq	$16, %r15
	je	.L33
	.loc 1 181 17 is_stmt 0 view .LVU151
	movq	%r13, %rax
	shrq	$60, %rax
	je	.L31
	movq	%r15, %r14
.LVL65:
.L30:
	.loc 1 185 22 is_stmt 1 discriminator 1 view .LVU152
	.loc 1 185 22 is_stmt 0 discriminator 1 view .LVU153
	movq	-72(%rbp), %rax
	addq	%rax, %r14
.LVL66:
	.loc 1 185 22 discriminator 1 view .LVU154
	subq	%r15, %r14
	addq	$16, %rax
	subq	%r15, %rax
	movq	%rax, -64(%rbp)
.LVL67:
.L34:
	.loc 1 187 69 view .LVU155
	movq	%r13, %rax
	shrq	$60, %rax
	.loc 1 187 26 view .LVU156
	movzbl	.LC2(%rax), %esi
	movl	%ebx, %edx
	movq	%r14, %rdi
	call	_ZN6Kernel7Console9writeCharEmhNS0_10AttributesE
.LVL68:
	.loc 1 188 21 view .LVU157
	salq	$4, %r13
.LVL69:
	.loc 1 185 13 is_stmt 1 discriminator 2 view .LVU158
	.loc 1 185 22 discriminator 1 view .LVU159
	addq	$1, %r14
.LVL70:
	.loc 1 185 22 is_stmt 0 discriminator 1 view .LVU160
	movq	-64(%rbp), %rax
	cmpq	%rax, %r14
	jne	.L34
.LVL71:
.L33:
	.loc 1 190 43 view .LVU161
	movq	-72(%rbp), %rax
	addq	$16, %rax
	subq	%r15, %rax
	.loc 1 190 55 view .LVU162
	movl	$0, %edx
	divq	-56(%rbp)
	.loc 1 190 27 view .LVU163
	movq	%rdx, _ZN6Kernel7Console11s_cursorPosE(%rip)
	.loc 1 191 27 view .LVU164
	movq	%rax, _ZN6Kernel7Console11s_cursorPosE+8(%rip)
	.loc 1 192 33 view .LVU165
	call	_ZN6Kernel7Console20updateHardwareCursorEv
.LVL72:
	.loc 1 193 9 view .LVU166
	jmp	.L15
.LVL73:
.L12:
	.loc 1 193 9 view .LVU167
.LBE87:
.LBE86:
	.loc 1 251 36 view .LVU168
	movl	%ebx, %esi
	movl	$37, %edi
	call	_ZN6Kernel7Console7putCharEhNS0_10AttributesE
.LVL74:
	.loc 1 252 36 view .LVU169
	movzbl	1(%r12), %edi
	movl	%ebx, %esi
	call	_ZN6Kernel7Console7putCharEhNS0_10AttributesE
.LVL75:
	.loc 1 254 25 view .LVU170
	jmp	.L15
.L10:
	.loc 1 262 36 view .LVU171
	movl	%ebx, %esi
	movl	$37, %edi
	call	_ZN6Kernel7Console7putCharEhNS0_10AttributesE
.LVL76:
	.loc 1 263 36 view .LVU172
	movzbl	1(%r12), %edi
	movl	%ebx, %esi
	call	_ZN6Kernel7Console7putCharEhNS0_10AttributesE
.LVL77:
	.loc 1 265 25 view .LVU173
	jmp	.L15
.L9:
	.loc 1 274 36 view .LVU174
	movl	%ebx, %esi
	movl	$37, %edi
	call	_ZN6Kernel7Console7putCharEhNS0_10AttributesE
.LVL78:
	.loc 1 275 36 view .LVU175
	movzbl	1(%r12), %edi
	movl	%ebx, %esi
	call	_ZN6Kernel7Console7putCharEhNS0_10AttributesE
.LVL79:
	.loc 1 277 25 view .LVU176
	jmp	.L15
.L6:
	.loc 1 279 32 view .LVU177
	movl	%ebx, %esi
	movl	$37, %edi
	call	_ZN6Kernel7Console7putCharEhNS0_10AttributesE
.LVL80:
	.loc 1 280 32 view .LVU178
	movzbl	1(%r12), %edi
	movl	%ebx, %esi
	call	_ZN6Kernel7Console7putCharEhNS0_10AttributesE
.LVL81:
	.loc 1 281 25 view .LVU179
	addq	$2, %r12
.LVL82:
	.loc 1 282 25 view .LVU180
	jmp	.L5
.LVL83:
.L37:
.LBB94:
.LBB84:
.LBB83:
.LBB81:
	.loc 1 97 35 view .LVU181
	movq	$0, _ZN6Kernel7Console11s_cursorPosE(%rip)
	.loc 1 98 35 view .LVU182
	movq	_ZN6Kernel7Console11s_cursorPosE+8(%rip), %rax
	.loc 1 98 21 view .LVU183
	addq	$1, %rax
	movq	%rax, _ZN6Kernel7Console11s_cursorPosE+8(%rip)
	.loc 1 99 37 view .LVU184
	movq	_ZN6Kernel7Console11s_cursorPosE+8(%rip), %rax
	.loc 1 99 21 view .LVU185
	cmpq	8(%r14), %rax
	jnb	.L63
.L38:
.LBE81:
	.loc 1 90 13 is_stmt 1 discriminator 2 view .LVU186
	.loc 1 90 39 discriminator 1 view .LVU187
	.loc 1 90 35 is_stmt 0 discriminator 1 view .LVU188
	addq	$1, %r13
	movzbl	0(%r13), %esi
	.loc 1 90 39 discriminator 1 view .LVU189
	testb	%sil, %sil
	je	.L36
.LVL84:
.L35:
.LBB82:
	.loc 1 92 42 view .LVU190
	movq	_ZN6Kernel7Console11s_cursorPosE+8(%rip), %rdi
	.loc 1 92 75 view .LVU191
	movq	_ZN6Kernel7Console11s_cursorPosE(%rip), %rax
.LVL85:
	.loc 1 93 26 view .LVU192
	movzbl	%sil, %esi
	.loc 1 92 44 view .LVU193
	imulq	%r12, %rdi
.LVL86:
	.loc 1 92 24 view .LVU194
	addq	%rax, %rdi
.LVL87:
	.loc 1 93 26 view .LVU195
	movl	%ebx, %edx
	call	_ZN6Kernel7Console9writeCharEmhNS0_10AttributesE
.LVL88:
	.loc 1 94 31 view .LVU196
	movq	_ZN6Kernel7Console11s_cursorPosE(%rip), %rax
	.loc 1 94 17 view .LVU197
	addq	$1, %rax
	movq	%rax, _ZN6Kernel7Console11s_cursorPosE(%rip)
	.loc 1 95 33 view .LVU198
	movq	_ZN6Kernel7Console11s_cursorPosE(%rip), %rax
	.loc 1 95 53 view .LVU199
	cmpq	%r12, %rax
	jnb	.L37
	.loc 1 95 53 discriminator 2 view .LVU200
	cmpb	$10, 0(%r13)
	jne	.L38
	jmp	.L37
.L63:
	.loc 1 100 35 view .LVU201
	movl	$1, %edi
	call	_ZN6Kernel7Console10scrollDownEm
.LVL89:
	jmp	.L38
.LVL90:
.L36:
	.loc 1 100 35 view .LVU202
.LBE82:
.LBE83:
	.loc 1 103 33 view .LVU203
	call	_ZN6Kernel7Console20updateHardwareCursorEv
.LVL91:
.L1:
.LBE84:
.LBE94:
	.loc 1 297 9 view .LVU204
	addq	$40, %rsp
	popq	%rbx
	.cfi_remember_state
	.cfi_restore 3
.LVL92:
	.loc 1 297 9 view .LVU205
	popq	%r12
	.cfi_restore 12
	popq	%r13
	.cfi_restore 13
	popq	%r14
	.cfi_restore 14
	popq	%r15
	.cfi_restore 15
	popq	%rbp
	.cfi_restore 6
	.cfi_def_cfa 7, 8
	ret
.LVL93:
.L3:
	.cfi_restore_state
	.loc 1 293 28 view .LVU206
	movzbl	%dil, %edi
	movl	%ebx, %esi
	call	_ZN6Kernel7Console7putCharEhNS0_10AttributesE
.LVL94:
	.loc 1 295 17 view .LVU207
	addq	$1, %r12
.LVL95:
.L5:
	.loc 1 199 13 is_stmt 1 view .LVU208
	movzbl	(%r12), %edi
	testb	%dil, %dil
	je	.L1
.L39:
	.loc 1 201 17 is_stmt 0 view .LVU209
	cmpb	$37, %dil
	jne	.L3
	.loc 1 201 33 discriminator 1 view .LVU210
	movzbl	1(%r12), %eax
	testb	%al, %al
	je	.L3
.LVL96:
	.loc 1 203 21 view .LVU211
	cmpb	$37, %al
	je	.L64
	.loc 1 209 21 view .LVU212
	subl	$98, %eax
	cmpb	$22, %al
	ja	.L6
	movzbl	%al, %eax
	jmp	*.L8(,%rax,8)
	.section	.rodata._ZN6Kernel7Console9printImplIRyJEEEvPKcNS0_10AttributesEOT_DpOT0_,"aG",@progbits,_ZN6Kernel7Console9printImplIRyJEEEvPKcNS0_10AttributesEOT_DpOT0_,comdat
	.align 8
	.align 4
.L8:
	.quad	.L13
	.quad	.L12
	.quad	.L11
	.quad	.L6
	.quad	.L6
	.quad	.L6
	.quad	.L6
	.quad	.L6
	.quad	.L6
	.quad	.L6
	.quad	.L6
	.quad	.L6
	.quad	.L6
	.quad	.L6
	.quad	.L10
	.quad	.L6
	.quad	.L6
	.quad	.L9
	.quad	.L6
	.quad	.L6
	.quad	.L6
	.quad	.L6
	.quad	.L7
	.section	.text._ZN6Kernel7Console9printImplIRyJEEEvPKcNS0_10AttributesEOT_DpOT0_,"axG",@progbits,_ZN6Kernel7Console9printImplIRyJEEEvPKcNS0_10AttributesEOT_DpOT0_,comdat
.LVL97:
.L40:
.LBB95:
.LBB76:
	.loc 1 113 20 view .LVU213
	movq	$0, -72(%rbp)
	.loc 1 112 20 view .LVU214
	movl	$0, %r14d
	jmp	.L22
.LVL98:
.L62:
	.loc 1 112 20 view .LVU215
.LBE76:
.LBE95:
.LBB96:
.LBB93:
	.loc 1 178 20 view .LVU216
	movl	$0, %r15d
	.loc 1 177 20 view .LVU217
	movl	$0, %r14d
	jmp	.L30
.LBE93:
.LBE96:
	.cfi_endproc
.LFE57:
	.size	_ZN6Kernel7Console9printImplIRyJEEEvPKcNS0_10AttributesEOT_DpOT0_, .-_ZN6Kernel7Console9printImplIRyJEEEvPKcNS0_10AttributesEOT_DpOT0_
	.section	.text._ZN6Kernel7Console9printImplIRPNS_9MemoryMap15MultibootHeaderEJEEEvPKcNS0_10AttributesEOT_DpOT0_,"axG",@progbits,_ZN6Kernel7Console9printImplIRPNS_9MemoryMap15MultibootHeaderEJEEEvPKcNS0_10AttributesEOT_DpOT0_,comdat
	.weak	_ZN6Kernel7Console9printImplIRPNS_9MemoryMap15MultibootHeaderEJEEEvPKcNS0_10AttributesEOT_DpOT0_
	.type	_ZN6Kernel7Console9printImplIRPNS_9MemoryMap15MultibootHeaderEJEEEvPKcNS0_10AttributesEOT_DpOT0_, @function
_ZN6Kernel7Console9printImplIRPNS_9MemoryMap15MultibootHeaderEJEEEvPKcNS0_10AttributesEOT_DpOT0_:
.LVL99:
.LFB58:
	.loc 1 197 21 is_stmt 1 view -0
	.cfi_startproc
	.loc 1 197 21 is_stmt 0 view .LVU219
	pushq	%rbp
	.cfi_def_cfa_offset 16
	.cfi_offset 6, -16
	movq	%rsp, %rbp
	.cfi_def_cfa_register 6
	pushq	%r15
	pushq	%r14
	pushq	%r13
	pushq	%r12
	pushq	%rbx
	subq	$40, %rsp
	.cfi_offset 15, -24
	.cfi_offset 14, -32
	.cfi_offset 13, -40
	.cfi_offset 12, -48
	.cfi_offset 3, -56
	movq	%rdi, %rbx
	movq	%rdx, %r13
	movl	%esi, %r12d
	.loc 1 199 13 is_stmt 1 view .LVU220
	movzbl	(%rdi), %edi
.LVL100:
	.loc 1 199 13 is_stmt 0 view .LVU221
	testb	%dil, %dil
	jne	.L91
	jmp	.L65
.LVL101:
.L105:
	.loc 1 205 32 view .LVU222
	movl	%r12d, %esi
	movl	$37, %edi
	call	_ZN6Kernel7Console7putCharEhNS0_10AttributesE
.LVL102:
	.loc 1 206 25 view .LVU223
	addq	$2, %rbx
.LVL103:
	.loc 1 207 25 view .LVU224
	jmp	.L69
.LVL104:
.L75:
	.loc 1 218 36 view .LVU225
	movl	%r12d, %esi
	movl	$37, %edi
	call	_ZN6Kernel7Console7putCharEhNS0_10AttributesE
.LVL105:
	.loc 1 219 36 view .LVU226
	movzbl	1(%rbx), %edi
	movl	%r12d, %esi
	call	_ZN6Kernel7Console7putCharEhNS0_10AttributesE
.LVL106:
.L78:
.LBB107:
.LBB108:
.LBB109:
	.loc 1 90 39 is_stmt 1 discriminator 1 view .LVU227
	.loc 1 90 35 is_stmt 0 discriminator 1 view .LVU228
	leaq	2(%rbx), %r13
	movzbl	2(%rbx), %esi
	.loc 1 90 39 discriminator 1 view .LVU229
	testb	%sil, %sil
	je	.L80
.LBB110:
	.loc 1 92 55 view .LVU230
	movq	$_ZN6Kernel7Console8s_extentE, %r14
	movq	(%r14), %rbx
	jmp	.L79
.LVL107:
.L77:
	.loc 1 92 55 view .LVU231
.LBE110:
.LBE109:
.LBE108:
.LBE107:
	.loc 1 229 36 view .LVU232
	movl	%r12d, %esi
	movl	$37, %edi
	call	_ZN6Kernel7Console7putCharEhNS0_10AttributesE
.LVL108:
	.loc 1 230 36 view .LVU233
	movzbl	1(%rbx), %edi
	movl	%r12d, %esi
	call	_ZN6Kernel7Console7putCharEhNS0_10AttributesE
.LVL109:
	.loc 1 232 25 view .LVU234
	jmp	.L78
.L71:
	.loc 1 240 36 view .LVU235
	movl	%r12d, %esi
	movl	$37, %edi
	call	_ZN6Kernel7Console7putCharEhNS0_10AttributesE
.LVL110:
	.loc 1 241 36 view .LVU236
	movzbl	1(%rbx), %edi
	movl	%r12d, %esi
	call	_ZN6Kernel7Console7putCharEhNS0_10AttributesE
.LVL111:
	.loc 1 243 25 view .LVU237
	jmp	.L78
.L76:
	.loc 1 251 36 view .LVU238
	movl	%r12d, %esi
	movl	$37, %edi
	call	_ZN6Kernel7Console7putCharEhNS0_10AttributesE
.LVL112:
	.loc 1 252 36 view .LVU239
	movzbl	1(%rbx), %edi
	movl	%r12d, %esi
	call	_ZN6Kernel7Console7putCharEhNS0_10AttributesE
.LVL113:
	.loc 1 254 25 view .LVU240
	jmp	.L78
.L74:
	.loc 1 258 38 view .LVU241
	movq	0(%r13), %r13
.LVL114:
.LBB115:
.LBI115:
	.loc 1 172 21 is_stmt 1 view .LVU242
.LBB116:
.LBB117:
.LBI117:
	.loc 1 87 21 view .LVU243
.LBB118:
.LBB119:
	.loc 1 90 39 discriminator 1 view .LVU244
	movq	$.LC1+1, %r15
	.loc 1 90 35 is_stmt 0 discriminator 1 view .LVU245
	movl	$48, %r14d
.LBB120:
	.loc 1 92 55 view .LVU246
	movq	$_ZN6Kernel7Console8s_extentE, %rax
	movq	(%rax), %rax
	movq	%rax, -56(%rbp)
	jmp	.L83
.LVL115:
.L94:
	.loc 1 97 35 view .LVU247
	movq	$0, _ZN6Kernel7Console11s_cursorPosE(%rip)
	.loc 1 98 35 view .LVU248
	movq	_ZN6Kernel7Console11s_cursorPosE+8(%rip), %rax
	.loc 1 98 21 view .LVU249
	addq	$1, %rax
	movq	%rax, _ZN6Kernel7Console11s_cursorPosE+8(%rip)
	.loc 1 99 37 view .LVU250
	movq	_ZN6Kernel7Console11s_cursorPosE+8(%rip), %rax
	.loc 1 99 21 view .LVU251
	movq	$_ZN6Kernel7Console8s_extentE, %rcx
	cmpq	8(%rcx), %rax
	jnb	.L101
.L81:
.LBE120:
	.loc 1 90 13 is_stmt 1 discriminator 2 view .LVU252
.LVL116:
	.loc 1 90 39 discriminator 1 view .LVU253
	addq	$1, %r15
.LVL117:
	.loc 1 90 35 is_stmt 0 discriminator 1 view .LVU254
	movzbl	-1(%r15), %r14d
	.loc 1 90 39 discriminator 1 view .LVU255
	testb	%r14b, %r14b
	je	.L102
.LVL118:
.L83:
.LBB121:
	.loc 1 92 42 view .LVU256
	movq	_ZN6Kernel7Console11s_cursorPosE+8(%rip), %rdi
	.loc 1 92 75 view .LVU257
	movq	_ZN6Kernel7Console11s_cursorPosE(%rip), %rax
.LVL119:
	.loc 1 93 26 view .LVU258
	movzbl	%r14b, %esi
	.loc 1 92 44 view .LVU259
	movq	-56(%rbp), %rcx
	imulq	%rcx, %rdi
.LVL120:
	.loc 1 92 24 view .LVU260
	addq	%rax, %rdi
.LVL121:
	.loc 1 93 26 view .LVU261
	movl	%r12d, %edx
	call	_ZN6Kernel7Console9writeCharEmhNS0_10AttributesE
.LVL122:
	.loc 1 94 31 view .LVU262
	movq	_ZN6Kernel7Console11s_cursorPosE(%rip), %rax
	.loc 1 94 17 view .LVU263
	addq	$1, %rax
	movq	%rax, _ZN6Kernel7Console11s_cursorPosE(%rip)
	.loc 1 95 33 view .LVU264
	movq	_ZN6Kernel7Console11s_cursorPosE(%rip), %rax
	.loc 1 95 53 discriminator 2 view .LVU265
	movq	-56(%rbp), %rcx
	cmpq	%rcx, %rax
	jnb	.L94
	cmpb	$10, %r14b
	je	.L94
	jmp	.L81
.L101:
	.loc 1 100 35 view .LVU266
	movl	$1, %edi
	call	_ZN6Kernel7Console10scrollDownEm
.LVL123:
	jmp	.L81
.LVL124:
.L102:
	.loc 1 100 35 view .LVU267
.LBE121:
.LBE119:
	.loc 1 103 33 view .LVU268
	call	_ZN6Kernel7Console20updateHardwareCursorEv
.LVL125:
	.loc 1 103 33 view .LVU269
.LBE118:
.LBE117:
	.loc 1 176 38 view .LVU270
	movq	_ZN6Kernel7Console11s_cursorPosE+8(%rip), %rax
	.loc 1 176 71 view .LVU271
	movq	_ZN6Kernel7Console11s_cursorPosE(%rip), %rdx
	.loc 1 176 40 view .LVU272
	movq	-56(%rbp), %rcx
	imulq	%rcx, %rax
	.loc 1 176 20 view .LVU273
	addq	%rdx, %rax
	movq	%rax, -72(%rbp)
.LVL126:
	.loc 1 179 22 is_stmt 1 discriminator 1 view .LVU274
	.loc 1 181 17 is_stmt 0 view .LVU275
	movq	%r13, %r15
	shrq	$60, %r15
	jne	.L103
.LVL127:
.L85:
	.loc 1 183 21 view .LVU276
	salq	$4, %r13
.LVL128:
	.loc 1 179 13 is_stmt 1 view .LVU277
	addq	$1, %r15
.LVL129:
	.loc 1 179 22 discriminator 1 view .LVU278
	cmpq	$16, %r15
	je	.L87
	.loc 1 181 17 is_stmt 0 view .LVU279
	movq	%r13, %rax
	shrq	$60, %rax
	je	.L85
	movq	%r15, %r14
.LVL130:
.L84:
	.loc 1 185 22 is_stmt 1 discriminator 1 view .LVU280
	.loc 1 185 22 is_stmt 0 discriminator 1 view .LVU281
	movq	-72(%rbp), %rax
	addq	%rax, %r14
.LVL131:
	.loc 1 185 22 discriminator 1 view .LVU282
	subq	%r15, %r14
	addq	$16, %rax
	subq	%r15, %rax
	movq	%rax, -64(%rbp)
.LVL132:
.L88:
	.loc 1 187 69 view .LVU283
	movq	%r13, %rax
	shrq	$60, %rax
	.loc 1 187 26 view .LVU284
	movzbl	.LC2(%rax), %esi
	movl	%r12d, %edx
	movq	%r14, %rdi
	call	_ZN6Kernel7Console9writeCharEmhNS0_10AttributesE
.LVL133:
	.loc 1 188 21 view .LVU285
	salq	$4, %r13
.LVL134:
	.loc 1 185 13 is_stmt 1 discriminator 2 view .LVU286
	.loc 1 185 22 discriminator 1 view .LVU287
	addq	$1, %r14
.LVL135:
	.loc 1 185 22 is_stmt 0 discriminator 1 view .LVU288
	movq	-64(%rbp), %rax
	cmpq	%rax, %r14
	jne	.L88
.LVL136:
.L87:
	.loc 1 190 43 view .LVU289
	movq	-72(%rbp), %rax
	addq	$16, %rax
	subq	%r15, %rax
	.loc 1 190 55 view .LVU290
	movl	$0, %edx
	divq	-56(%rbp)
	.loc 1 190 27 view .LVU291
	movq	%rdx, _ZN6Kernel7Console11s_cursorPosE(%rip)
	.loc 1 191 27 view .LVU292
	movq	%rax, _ZN6Kernel7Console11s_cursorPosE+8(%rip)
	.loc 1 192 33 view .LVU293
	call	_ZN6Kernel7Console20updateHardwareCursorEv
.LVL137:
	.loc 1 193 9 view .LVU294
	jmp	.L78
.LVL138:
.L73:
	.loc 1 193 9 view .LVU295
.LBE116:
.LBE115:
	.loc 1 274 36 view .LVU296
	movl	%r12d, %esi
	movl	$37, %edi
	call	_ZN6Kernel7Console7putCharEhNS0_10AttributesE
.LVL139:
	.loc 1 275 36 view .LVU297
	movzbl	1(%rbx), %edi
	movl	%r12d, %esi
	call	_ZN6Kernel7Console7putCharEhNS0_10AttributesE
.LVL140:
	.loc 1 277 25 view .LVU298
	jmp	.L78
.L70:
	.loc 1 279 32 view .LVU299
	movl	%r12d, %esi
	movl	$37, %edi
	call	_ZN6Kernel7Console7putCharEhNS0_10AttributesE
.LVL141:
	.loc 1 280 32 view .LVU300
	movzbl	1(%rbx), %edi
	movl	%r12d, %esi
	call	_ZN6Kernel7Console7putCharEhNS0_10AttributesE
.LVL142:
	.loc 1 281 25 view .LVU301
	addq	$2, %rbx
.LVL143:
	.loc 1 282 25 view .LVU302
	jmp	.L69
.LVL144:
.L89:
.LBB123:
.LBB114:
.LBB113:
.LBB111:
	.loc 1 97 35 view .LVU303
	movq	$0, _ZN6Kernel7Console11s_cursorPosE(%rip)
	.loc 1 98 35 view .LVU304
	movq	_ZN6Kernel7Console11s_cursorPosE+8(%rip), %rax
	.loc 1 98 21 view .LVU305
	addq	$1, %rax
	movq	%rax, _ZN6Kernel7Console11s_cursorPosE+8(%rip)
	.loc 1 99 37 view .LVU306
	movq	_ZN6Kernel7Console11s_cursorPosE+8(%rip), %rax
	.loc 1 99 21 view .LVU307
	cmpq	8(%r14), %rax
	jnb	.L104
.L90:
.LBE111:
	.loc 1 90 13 is_stmt 1 discriminator 2 view .LVU308
	.loc 1 90 39 discriminator 1 view .LVU309
	.loc 1 90 35 is_stmt 0 discriminator 1 view .LVU310
	addq	$1, %r13
	movzbl	0(%r13), %esi
	.loc 1 90 39 discriminator 1 view .LVU311
	testb	%sil, %sil
	je	.L80
.LVL145:
.L79:
.LBB112:
	.loc 1 92 42 view .LVU312
	movq	_ZN6Kernel7Console11s_cursorPosE+8(%rip), %rdi
	.loc 1 92 75 view .LVU313
	movq	_ZN6Kernel7Console11s_cursorPosE(%rip), %rax
.LVL146:
	.loc 1 93 26 view .LVU314
	movzbl	%sil, %esi
	.loc 1 92 44 view .LVU315
	imulq	%rbx, %rdi
.LVL147:
	.loc 1 92 24 view .LVU316
	addq	%rax, %rdi
.LVL148:
	.loc 1 93 26 view .LVU317
	movl	%r12d, %edx
	call	_ZN6Kernel7Console9writeCharEmhNS0_10AttributesE
.LVL149:
	.loc 1 94 31 view .LVU318
	movq	_ZN6Kernel7Console11s_cursorPosE(%rip), %rax
	.loc 1 94 17 view .LVU319
	addq	$1, %rax
	movq	%rax, _ZN6Kernel7Console11s_cursorPosE(%rip)
	.loc 1 95 33 view .LVU320
	movq	_ZN6Kernel7Console11s_cursorPosE(%rip), %rax
	.loc 1 95 53 view .LVU321
	cmpq	%rbx, %rax
	jnb	.L89
	.loc 1 95 53 discriminator 2 view .LVU322
	cmpb	$10, 0(%r13)
	jne	.L90
	jmp	.L89
.L104:
	.loc 1 100 35 view .LVU323
	movl	$1, %edi
	call	_ZN6Kernel7Console10scrollDownEm
.LVL150:
	jmp	.L90
.LVL151:
.L80:
	.loc 1 100 35 view .LVU324
.LBE112:
.LBE113:
	.loc 1 103 33 view .LVU325
	call	_ZN6Kernel7Console20updateHardwareCursorEv
.LVL152:
.L65:
.LBE114:
.LBE123:
	.loc 1 297 9 view .LVU326
	addq	$40, %rsp
	popq	%rbx
	.cfi_remember_state
	.cfi_restore 3
	popq	%r12
	.cfi_restore 12
.LVL153:
	.loc 1 297 9 view .LVU327
	popq	%r13
	.cfi_restore 13
	popq	%r14
	.cfi_restore 14
	popq	%r15
	.cfi_restore 15
	popq	%rbp
	.cfi_restore 6
	.cfi_def_cfa 7, 8
	ret
.LVL154:
.L67:
	.cfi_restore_state
	.loc 1 293 28 view .LVU328
	movzbl	%dil, %edi
	movl	%r12d, %esi
	call	_ZN6Kernel7Console7putCharEhNS0_10AttributesE
.LVL155:
	.loc 1 295 17 view .LVU329
	addq	$1, %rbx
.LVL156:
.L69:
	.loc 1 199 13 is_stmt 1 view .LVU330
	movzbl	(%rbx), %edi
	testb	%dil, %dil
	je	.L65
.L91:
	.loc 1 201 17 is_stmt 0 view .LVU331
	cmpb	$37, %dil
	jne	.L67
	.loc 1 201 33 discriminator 1 view .LVU332
	movzbl	1(%rbx), %eax
	testb	%al, %al
	je	.L67
.LVL157:
	.loc 1 203 21 view .LVU333
	cmpb	$37, %al
	je	.L105
	.loc 1 209 21 view .LVU334
	subl	$98, %eax
	cmpb	$22, %al
	ja	.L70
	movzbl	%al, %eax
	jmp	*.L72(,%rax,8)
	.section	.rodata._ZN6Kernel7Console9printImplIRPNS_9MemoryMap15MultibootHeaderEJEEEvPKcNS0_10AttributesEOT_DpOT0_,"aG",@progbits,_ZN6Kernel7Console9printImplIRPNS_9MemoryMap15MultibootHeaderEJEEEvPKcNS0_10AttributesEOT_DpOT0_,comdat
	.align 8
	.align 4
.L72:
	.quad	.L77
	.quad	.L76
	.quad	.L75
	.quad	.L70
	.quad	.L70
	.quad	.L70
	.quad	.L70
	.quad	.L70
	.quad	.L70
	.quad	.L70
	.quad	.L70
	.quad	.L70
	.quad	.L70
	.quad	.L70
	.quad	.L74
	.quad	.L70
	.quad	.L70
	.quad	.L73
	.quad	.L70
	.quad	.L70
	.quad	.L70
	.quad	.L70
	.quad	.L71
	.section	.text._ZN6Kernel7Console9printImplIRPNS_9MemoryMap15MultibootHeaderEJEEEvPKcNS0_10AttributesEOT_DpOT0_,"axG",@progbits,_ZN6Kernel7Console9printImplIRPNS_9MemoryMap15MultibootHeaderEJEEEvPKcNS0_10AttributesEOT_DpOT0_,comdat
.LVL158:
.L103:
.LBB124:
.LBB122:
	.loc 1 178 20 view .LVU335
	movl	$0, %r15d
	.loc 1 177 20 view .LVU336
	movl	$0, %r14d
	jmp	.L84
.LBE122:
.LBE124:
	.cfi_endproc
.LFE58:
	.size	_ZN6Kernel7Console9printImplIRPNS_9MemoryMap15MultibootHeaderEJEEEvPKcNS0_10AttributesEOT_DpOT0_, .-_ZN6Kernel7Console9printImplIRPNS_9MemoryMap15MultibootHeaderEJEEEvPKcNS0_10AttributesEOT_DpOT0_
	.section	.text._ZN6Kernel7Console9printImplIRPPNS_9MemoryMap18MultibootMmapEntryEJEEEvPKcNS0_10AttributesEOT_DpOT0_,"axG",@progbits,_ZN6Kernel7Console9printImplIRPPNS_9MemoryMap18MultibootMmapEntryEJEEEvPKcNS0_10AttributesEOT_DpOT0_,comdat
	.weak	_ZN6Kernel7Console9printImplIRPPNS_9MemoryMap18MultibootMmapEntryEJEEEvPKcNS0_10AttributesEOT_DpOT0_
	.type	_ZN6Kernel7Console9printImplIRPPNS_9MemoryMap18MultibootMmapEntryEJEEEvPKcNS0_10AttributesEOT_DpOT0_, @function
_ZN6Kernel7Console9printImplIRPPNS_9MemoryMap18MultibootMmapEntryEJEEEvPKcNS0_10AttributesEOT_DpOT0_:
.LVL159:
.LFB61:
	.loc 1 197 21 is_stmt 1 view -0
	.cfi_startproc
	.loc 1 197 21 is_stmt 0 view .LVU338
	pushq	%rbp
	.cfi_def_cfa_offset 16
	.cfi_offset 6, -16
	movq	%rsp, %rbp
	.cfi_def_cfa_register 6
	pushq	%r15
	pushq	%r14
	pushq	%r13
	pushq	%r12
	pushq	%rbx
	subq	$40, %rsp
	.cfi_offset 15, -24
	.cfi_offset 14, -32
	.cfi_offset 13, -40
	.cfi_offset 12, -48
	.cfi_offset 3, -56
	movq	%rdi, %rbx
	movq	%rdx, %r13
	movl	%esi, %r12d
	.loc 1 199 13 is_stmt 1 view .LVU339
	movzbl	(%rdi), %edi
.LVL160:
	.loc 1 199 13 is_stmt 0 view .LVU340
	testb	%dil, %dil
	jne	.L132
	jmp	.L106
.LVL161:
.L146:
	.loc 1 205 32 view .LVU341
	movl	%r12d, %esi
	movl	$37, %edi
	call	_ZN6Kernel7Console7putCharEhNS0_10AttributesE
.LVL162:
	.loc 1 206 25 view .LVU342
	addq	$2, %rbx
.LVL163:
	.loc 1 207 25 view .LVU343
	jmp	.L110
.LVL164:
.L116:
	.loc 1 218 36 view .LVU344
	movl	%r12d, %esi
	movl	$37, %edi
	call	_ZN6Kernel7Console7putCharEhNS0_10AttributesE
.LVL165:
	.loc 1 219 36 view .LVU345
	movzbl	1(%rbx), %edi
	movl	%r12d, %esi
	call	_ZN6Kernel7Console7putCharEhNS0_10AttributesE
.LVL166:
.L119:
.LBB135:
.LBB136:
.LBB137:
	.loc 1 90 39 is_stmt 1 discriminator 1 view .LVU346
	.loc 1 90 35 is_stmt 0 discriminator 1 view .LVU347
	leaq	2(%rbx), %r13
	movzbl	2(%rbx), %esi
	.loc 1 90 39 discriminator 1 view .LVU348
	testb	%sil, %sil
	je	.L121
.LBB138:
	.loc 1 92 55 view .LVU349
	movq	$_ZN6Kernel7Console8s_extentE, %r14
	movq	(%r14), %rbx
	jmp	.L120
.LVL167:
.L118:
	.loc 1 92 55 view .LVU350
.LBE138:
.LBE137:
.LBE136:
.LBE135:
	.loc 1 229 36 view .LVU351
	movl	%r12d, %esi
	movl	$37, %edi
	call	_ZN6Kernel7Console7putCharEhNS0_10AttributesE
.LVL168:
	.loc 1 230 36 view .LVU352
	movzbl	1(%rbx), %edi
	movl	%r12d, %esi
	call	_ZN6Kernel7Console7putCharEhNS0_10AttributesE
.LVL169:
	.loc 1 232 25 view .LVU353
	jmp	.L119
.L112:
	.loc 1 240 36 view .LVU354
	movl	%r12d, %esi
	movl	$37, %edi
	call	_ZN6Kernel7Console7putCharEhNS0_10AttributesE
.LVL170:
	.loc 1 241 36 view .LVU355
	movzbl	1(%rbx), %edi
	movl	%r12d, %esi
	call	_ZN6Kernel7Console7putCharEhNS0_10AttributesE
.LVL171:
	.loc 1 243 25 view .LVU356
	jmp	.L119
.L117:
	.loc 1 251 36 view .LVU357
	movl	%r12d, %esi
	movl	$37, %edi
	call	_ZN6Kernel7Console7putCharEhNS0_10AttributesE
.LVL172:
	.loc 1 252 36 view .LVU358
	movzbl	1(%rbx), %edi
	movl	%r12d, %esi
	call	_ZN6Kernel7Console7putCharEhNS0_10AttributesE
.LVL173:
	.loc 1 254 25 view .LVU359
	jmp	.L119
.L115:
	.loc 1 258 38 view .LVU360
	movq	0(%r13), %r13
.LVL174:
.LBB143:
.LBI143:
	.loc 1 172 21 is_stmt 1 view .LVU361
.LBB144:
.LBB145:
.LBI145:
	.loc 1 87 21 view .LVU362
.LBB146:
.LBB147:
	.loc 1 90 39 discriminator 1 view .LVU363
	movq	$.LC1+1, %r15
	.loc 1 90 35 is_stmt 0 discriminator 1 view .LVU364
	movl	$48, %r14d
.LBB148:
	.loc 1 92 55 view .LVU365
	movq	$_ZN6Kernel7Console8s_extentE, %rax
	movq	(%rax), %rax
	movq	%rax, -56(%rbp)
	jmp	.L124
.LVL175:
.L135:
	.loc 1 97 35 view .LVU366
	movq	$0, _ZN6Kernel7Console11s_cursorPosE(%rip)
	.loc 1 98 35 view .LVU367
	movq	_ZN6Kernel7Console11s_cursorPosE+8(%rip), %rax
	.loc 1 98 21 view .LVU368
	addq	$1, %rax
	movq	%rax, _ZN6Kernel7Console11s_cursorPosE+8(%rip)
	.loc 1 99 37 view .LVU369
	movq	_ZN6Kernel7Console11s_cursorPosE+8(%rip), %rax
	.loc 1 99 21 view .LVU370
	movq	$_ZN6Kernel7Console8s_extentE, %rcx
	cmpq	8(%rcx), %rax
	jnb	.L142
.L122:
.LBE148:
	.loc 1 90 13 is_stmt 1 discriminator 2 view .LVU371
.LVL176:
	.loc 1 90 39 discriminator 1 view .LVU372
	addq	$1, %r15
.LVL177:
	.loc 1 90 35 is_stmt 0 discriminator 1 view .LVU373
	movzbl	-1(%r15), %r14d
	.loc 1 90 39 discriminator 1 view .LVU374
	testb	%r14b, %r14b
	je	.L143
.LVL178:
.L124:
.LBB149:
	.loc 1 92 42 view .LVU375
	movq	_ZN6Kernel7Console11s_cursorPosE+8(%rip), %rdi
	.loc 1 92 75 view .LVU376
	movq	_ZN6Kernel7Console11s_cursorPosE(%rip), %rax
.LVL179:
	.loc 1 93 26 view .LVU377
	movzbl	%r14b, %esi
	.loc 1 92 44 view .LVU378
	movq	-56(%rbp), %rcx
	imulq	%rcx, %rdi
.LVL180:
	.loc 1 92 24 view .LVU379
	addq	%rax, %rdi
.LVL181:
	.loc 1 93 26 view .LVU380
	movl	%r12d, %edx
	call	_ZN6Kernel7Console9writeCharEmhNS0_10AttributesE
.LVL182:
	.loc 1 94 31 view .LVU381
	movq	_ZN6Kernel7Console11s_cursorPosE(%rip), %rax
	.loc 1 94 17 view .LVU382
	addq	$1, %rax
	movq	%rax, _ZN6Kernel7Console11s_cursorPosE(%rip)
	.loc 1 95 33 view .LVU383
	movq	_ZN6Kernel7Console11s_cursorPosE(%rip), %rax
	.loc 1 95 53 discriminator 2 view .LVU384
	movq	-56(%rbp), %rcx
	cmpq	%rcx, %rax
	jnb	.L135
	cmpb	$10, %r14b
	je	.L135
	jmp	.L122
.L142:
	.loc 1 100 35 view .LVU385
	movl	$1, %edi
	call	_ZN6Kernel7Console10scrollDownEm
.LVL183:
	jmp	.L122
.LVL184:
.L143:
	.loc 1 100 35 view .LVU386
.LBE149:
.LBE147:
	.loc 1 103 33 view .LVU387
	call	_ZN6Kernel7Console20updateHardwareCursorEv
.LVL185:
	.loc 1 103 33 view .LVU388
.LBE146:
.LBE145:
	.loc 1 176 38 view .LVU389
	movq	_ZN6Kernel7Console11s_cursorPosE+8(%rip), %rax
	.loc 1 176 71 view .LVU390
	movq	_ZN6Kernel7Console11s_cursorPosE(%rip), %rdx
	.loc 1 176 40 view .LVU391
	movq	-56(%rbp), %rcx
	imulq	%rcx, %rax
	.loc 1 176 20 view .LVU392
	addq	%rdx, %rax
	movq	%rax, -72(%rbp)
.LVL186:
	.loc 1 179 22 is_stmt 1 discriminator 1 view .LVU393
	.loc 1 181 17 is_stmt 0 view .LVU394
	movq	%r13, %r15
	shrq	$60, %r15
	jne	.L144
.LVL187:
.L126:
	.loc 1 183 21 view .LVU395
	salq	$4, %r13
.LVL188:
	.loc 1 179 13 is_stmt 1 view .LVU396
	addq	$1, %r15
.LVL189:
	.loc 1 179 22 discriminator 1 view .LVU397
	cmpq	$16, %r15
	je	.L128
	.loc 1 181 17 is_stmt 0 view .LVU398
	movq	%r13, %rax
	shrq	$60, %rax
	je	.L126
	movq	%r15, %r14
.LVL190:
.L125:
	.loc 1 185 22 is_stmt 1 discriminator 1 view .LVU399
	.loc 1 185 22 is_stmt 0 discriminator 1 view .LVU400
	movq	-72(%rbp), %rax
	addq	%rax, %r14
.LVL191:
	.loc 1 185 22 discriminator 1 view .LVU401
	subq	%r15, %r14
	addq	$16, %rax
	subq	%r15, %rax
	movq	%rax, -64(%rbp)
.LVL192:
.L129:
	.loc 1 187 69 view .LVU402
	movq	%r13, %rax
	shrq	$60, %rax
	.loc 1 187 26 view .LVU403
	movzbl	.LC2(%rax), %esi
	movl	%r12d, %edx
	movq	%r14, %rdi
	call	_ZN6Kernel7Console9writeCharEmhNS0_10AttributesE
.LVL193:
	.loc 1 188 21 view .LVU404
	salq	$4, %r13
.LVL194:
	.loc 1 185 13 is_stmt 1 discriminator 2 view .LVU405
	.loc 1 185 22 discriminator 1 view .LVU406
	addq	$1, %r14
.LVL195:
	.loc 1 185 22 is_stmt 0 discriminator 1 view .LVU407
	movq	-64(%rbp), %rax
	cmpq	%rax, %r14
	jne	.L129
.LVL196:
.L128:
	.loc 1 190 43 view .LVU408
	movq	-72(%rbp), %rax
	addq	$16, %rax
	subq	%r15, %rax
	.loc 1 190 55 view .LVU409
	movl	$0, %edx
	divq	-56(%rbp)
	.loc 1 190 27 view .LVU410
	movq	%rdx, _ZN6Kernel7Console11s_cursorPosE(%rip)
	.loc 1 191 27 view .LVU411
	movq	%rax, _ZN6Kernel7Console11s_cursorPosE+8(%rip)
	.loc 1 192 33 view .LVU412
	call	_ZN6Kernel7Console20updateHardwareCursorEv
.LVL197:
	.loc 1 193 9 view .LVU413
	jmp	.L119
.LVL198:
.L114:
	.loc 1 193 9 view .LVU414
.LBE144:
.LBE143:
	.loc 1 274 36 view .LVU415
	movl	%r12d, %esi
	movl	$37, %edi
	call	_ZN6Kernel7Console7putCharEhNS0_10AttributesE
.LVL199:
	.loc 1 275 36 view .LVU416
	movzbl	1(%rbx), %edi
	movl	%r12d, %esi
	call	_ZN6Kernel7Console7putCharEhNS0_10AttributesE
.LVL200:
	.loc 1 277 25 view .LVU417
	jmp	.L119
.L111:
	.loc 1 279 32 view .LVU418
	movl	%r12d, %esi
	movl	$37, %edi
	call	_ZN6Kernel7Console7putCharEhNS0_10AttributesE
.LVL201:
	.loc 1 280 32 view .LVU419
	movzbl	1(%rbx), %edi
	movl	%r12d, %esi
	call	_ZN6Kernel7Console7putCharEhNS0_10AttributesE
.LVL202:
	.loc 1 281 25 view .LVU420
	addq	$2, %rbx
.LVL203:
	.loc 1 282 25 view .LVU421
	jmp	.L110
.LVL204:
.L130:
.LBB151:
.LBB142:
.LBB141:
.LBB139:
	.loc 1 97 35 view .LVU422
	movq	$0, _ZN6Kernel7Console11s_cursorPosE(%rip)
	.loc 1 98 35 view .LVU423
	movq	_ZN6Kernel7Console11s_cursorPosE+8(%rip), %rax
	.loc 1 98 21 view .LVU424
	addq	$1, %rax
	movq	%rax, _ZN6Kernel7Console11s_cursorPosE+8(%rip)
	.loc 1 99 37 view .LVU425
	movq	_ZN6Kernel7Console11s_cursorPosE+8(%rip), %rax
	.loc 1 99 21 view .LVU426
	cmpq	8(%r14), %rax
	jnb	.L145
.L131:
.LBE139:
	.loc 1 90 13 is_stmt 1 discriminator 2 view .LVU427
	.loc 1 90 39 discriminator 1 view .LVU428
	.loc 1 90 35 is_stmt 0 discriminator 1 view .LVU429
	addq	$1, %r13
	movzbl	0(%r13), %esi
	.loc 1 90 39 discriminator 1 view .LVU430
	testb	%sil, %sil
	je	.L121
.LVL205:
.L120:
.LBB140:
	.loc 1 92 42 view .LVU431
	movq	_ZN6Kernel7Console11s_cursorPosE+8(%rip), %rdi
	.loc 1 92 75 view .LVU432
	movq	_ZN6Kernel7Console11s_cursorPosE(%rip), %rax
.LVL206:
	.loc 1 93 26 view .LVU433
	movzbl	%sil, %esi
	.loc 1 92 44 view .LVU434
	imulq	%rbx, %rdi
.LVL207:
	.loc 1 92 24 view .LVU435
	addq	%rax, %rdi
.LVL208:
	.loc 1 93 26 view .LVU436
	movl	%r12d, %edx
	call	_ZN6Kernel7Console9writeCharEmhNS0_10AttributesE
.LVL209:
	.loc 1 94 31 view .LVU437
	movq	_ZN6Kernel7Console11s_cursorPosE(%rip), %rax
	.loc 1 94 17 view .LVU438
	addq	$1, %rax
	movq	%rax, _ZN6Kernel7Console11s_cursorPosE(%rip)
	.loc 1 95 33 view .LVU439
	movq	_ZN6Kernel7Console11s_cursorPosE(%rip), %rax
	.loc 1 95 53 view .LVU440
	cmpq	%rbx, %rax
	jnb	.L130
	.loc 1 95 53 discriminator 2 view .LVU441
	cmpb	$10, 0(%r13)
	jne	.L131
	jmp	.L130
.L145:
	.loc 1 100 35 view .LVU442
	movl	$1, %edi
	call	_ZN6Kernel7Console10scrollDownEm
.LVL210:
	jmp	.L131
.LVL211:
.L121:
	.loc 1 100 35 view .LVU443
.LBE140:
.LBE141:
	.loc 1 103 33 view .LVU444
	call	_ZN6Kernel7Console20updateHardwareCursorEv
.LVL212:
.L106:
.LBE142:
.LBE151:
	.loc 1 297 9 view .LVU445
	addq	$40, %rsp
	popq	%rbx
	.cfi_remember_state
	.cfi_restore 3
	popq	%r12
	.cfi_restore 12
.LVL213:
	.loc 1 297 9 view .LVU446
	popq	%r13
	.cfi_restore 13
	popq	%r14
	.cfi_restore 14
	popq	%r15
	.cfi_restore 15
	popq	%rbp
	.cfi_restore 6
	.cfi_def_cfa 7, 8
	ret
.LVL214:
.L108:
	.cfi_restore_state
	.loc 1 293 28 view .LVU447
	movzbl	%dil, %edi
	movl	%r12d, %esi
	call	_ZN6Kernel7Console7putCharEhNS0_10AttributesE
.LVL215:
	.loc 1 295 17 view .LVU448
	addq	$1, %rbx
.LVL216:
.L110:
	.loc 1 199 13 is_stmt 1 view .LVU449
	movzbl	(%rbx), %edi
	testb	%dil, %dil
	je	.L106
.L132:
	.loc 1 201 17 is_stmt 0 view .LVU450
	cmpb	$37, %dil
	jne	.L108
	.loc 1 201 33 discriminator 1 view .LVU451
	movzbl	1(%rbx), %eax
	testb	%al, %al
	je	.L108
.LVL217:
	.loc 1 203 21 view .LVU452
	cmpb	$37, %al
	je	.L146
	.loc 1 209 21 view .LVU453
	subl	$98, %eax
	cmpb	$22, %al
	ja	.L111
	movzbl	%al, %eax
	jmp	*.L113(,%rax,8)
	.section	.rodata._ZN6Kernel7Console9printImplIRPPNS_9MemoryMap18MultibootMmapEntryEJEEEvPKcNS0_10AttributesEOT_DpOT0_,"aG",@progbits,_ZN6Kernel7Console9printImplIRPPNS_9MemoryMap18MultibootMmapEntryEJEEEvPKcNS0_10AttributesEOT_DpOT0_,comdat
	.align 8
	.align 4
.L113:
	.quad	.L118
	.quad	.L117
	.quad	.L116
	.quad	.L111
	.quad	.L111
	.quad	.L111
	.quad	.L111
	.quad	.L111
	.quad	.L111
	.quad	.L111
	.quad	.L111
	.quad	.L111
	.quad	.L111
	.quad	.L111
	.quad	.L115
	.quad	.L111
	.quad	.L111
	.quad	.L114
	.quad	.L111
	.quad	.L111
	.quad	.L111
	.quad	.L111
	.quad	.L112
	.section	.text._ZN6Kernel7Console9printImplIRPPNS_9MemoryMap18MultibootMmapEntryEJEEEvPKcNS0_10AttributesEOT_DpOT0_,"axG",@progbits,_ZN6Kernel7Console9printImplIRPPNS_9MemoryMap18MultibootMmapEntryEJEEEvPKcNS0_10AttributesEOT_DpOT0_,comdat
.LVL218:
.L144:
.LBB152:
.LBB150:
	.loc 1 178 20 view .LVU454
	movl	$0, %r15d
	.loc 1 177 20 view .LVU455
	movl	$0, %r14d
	jmp	.L125
.LBE150:
.LBE152:
	.cfi_endproc
.LFE61:
	.size	_ZN6Kernel7Console9printImplIRPPNS_9MemoryMap18MultibootMmapEntryEJEEEvPKcNS0_10AttributesEOT_DpOT0_, .-_ZN6Kernel7Console9printImplIRPPNS_9MemoryMap18MultibootMmapEntryEJEEEvPKcNS0_10AttributesEOT_DpOT0_
	.section	.text._ZN6Kernel7Console9printImplIRPNS_9MemoryMap18MultibootMmapEntryEJEEEvPKcNS0_10AttributesEOT_DpOT0_,"axG",@progbits,_ZN6Kernel7Console9printImplIRPNS_9MemoryMap18MultibootMmapEntryEJEEEvPKcNS0_10AttributesEOT_DpOT0_,comdat
	.weak	_ZN6Kernel7Console9printImplIRPNS_9MemoryMap18MultibootMmapEntryEJEEEvPKcNS0_10AttributesEOT_DpOT0_
	.type	_ZN6Kernel7Console9printImplIRPNS_9MemoryMap18MultibootMmapEntryEJEEEvPKcNS0_10AttributesEOT_DpOT0_, @function
_ZN6Kernel7Console9printImplIRPNS_9MemoryMap18MultibootMmapEntryEJEEEvPKcNS0_10AttributesEOT_DpOT0_:
.LVL219:
.LFB62:
	.loc 1 197 21 is_stmt 1 view -0
	.cfi_startproc
	.loc 1 197 21 is_stmt 0 view .LVU457
	pushq	%rbp
	.cfi_def_cfa_offset 16
	.cfi_offset 6, -16
	movq	%rsp, %rbp
	.cfi_def_cfa_register 6
	pushq	%r15
	pushq	%r14
	pushq	%r13
	pushq	%r12
	pushq	%rbx
	subq	$40, %rsp
	.cfi_offset 15, -24
	.cfi_offset 14, -32
	.cfi_offset 13, -40
	.cfi_offset 12, -48
	.cfi_offset 3, -56
	movq	%rdi, %rbx
	movq	%rdx, %r13
	movl	%esi, %r12d
	.loc 1 199 13 is_stmt 1 view .LVU458
	movzbl	(%rdi), %edi
.LVL220:
	.loc 1 199 13 is_stmt 0 view .LVU459
	testb	%dil, %dil
	jne	.L173
	jmp	.L147
.LVL221:
.L187:
	.loc 1 205 32 view .LVU460
	movl	%r12d, %esi
	movl	$37, %edi
	call	_ZN6Kernel7Console7putCharEhNS0_10AttributesE
.LVL222:
	.loc 1 206 25 view .LVU461
	addq	$2, %rbx
.LVL223:
	.loc 1 207 25 view .LVU462
	jmp	.L151
.LVL224:
.L157:
	.loc 1 218 36 view .LVU463
	movl	%r12d, %esi
	movl	$37, %edi
	call	_ZN6Kernel7Console7putCharEhNS0_10AttributesE
.LVL225:
	.loc 1 219 36 view .LVU464
	movzbl	1(%rbx), %edi
	movl	%r12d, %esi
	call	_ZN6Kernel7Console7putCharEhNS0_10AttributesE
.LVL226:
.L160:
.LBB163:
.LBB164:
.LBB165:
	.loc 1 90 39 is_stmt 1 discriminator 1 view .LVU465
	.loc 1 90 35 is_stmt 0 discriminator 1 view .LVU466
	leaq	2(%rbx), %r13
	movzbl	2(%rbx), %esi
	.loc 1 90 39 discriminator 1 view .LVU467
	testb	%sil, %sil
	je	.L162
.LBB166:
	.loc 1 92 55 view .LVU468
	movq	$_ZN6Kernel7Console8s_extentE, %r14
	movq	(%r14), %rbx
	jmp	.L161
.LVL227:
.L159:
	.loc 1 92 55 view .LVU469
.LBE166:
.LBE165:
.LBE164:
.LBE163:
	.loc 1 229 36 view .LVU470
	movl	%r12d, %esi
	movl	$37, %edi
	call	_ZN6Kernel7Console7putCharEhNS0_10AttributesE
.LVL228:
	.loc 1 230 36 view .LVU471
	movzbl	1(%rbx), %edi
	movl	%r12d, %esi
	call	_ZN6Kernel7Console7putCharEhNS0_10AttributesE
.LVL229:
	.loc 1 232 25 view .LVU472
	jmp	.L160
.L153:
	.loc 1 240 36 view .LVU473
	movl	%r12d, %esi
	movl	$37, %edi
	call	_ZN6Kernel7Console7putCharEhNS0_10AttributesE
.LVL230:
	.loc 1 241 36 view .LVU474
	movzbl	1(%rbx), %edi
	movl	%r12d, %esi
	call	_ZN6Kernel7Console7putCharEhNS0_10AttributesE
.LVL231:
	.loc 1 243 25 view .LVU475
	jmp	.L160
.L158:
	.loc 1 251 36 view .LVU476
	movl	%r12d, %esi
	movl	$37, %edi
	call	_ZN6Kernel7Console7putCharEhNS0_10AttributesE
.LVL232:
	.loc 1 252 36 view .LVU477
	movzbl	1(%rbx), %edi
	movl	%r12d, %esi
	call	_ZN6Kernel7Console7putCharEhNS0_10AttributesE
.LVL233:
	.loc 1 254 25 view .LVU478
	jmp	.L160
.L156:
	.loc 1 258 38 view .LVU479
	movq	0(%r13), %r13
.LVL234:
.LBB171:
.LBI171:
	.loc 1 172 21 is_stmt 1 view .LVU480
.LBB172:
.LBB173:
.LBI173:
	.loc 1 87 21 view .LVU481
.LBB174:
.LBB175:
	.loc 1 90 39 discriminator 1 view .LVU482
	movq	$.LC1+1, %r15
	.loc 1 90 35 is_stmt 0 discriminator 1 view .LVU483
	movl	$48, %r14d
.LBB176:
	.loc 1 92 55 view .LVU484
	movq	$_ZN6Kernel7Console8s_extentE, %rax
	movq	(%rax), %rax
	movq	%rax, -56(%rbp)
	jmp	.L165
.LVL235:
.L176:
	.loc 1 97 35 view .LVU485
	movq	$0, _ZN6Kernel7Console11s_cursorPosE(%rip)
	.loc 1 98 35 view .LVU486
	movq	_ZN6Kernel7Console11s_cursorPosE+8(%rip), %rax
	.loc 1 98 21 view .LVU487
	addq	$1, %rax
	movq	%rax, _ZN6Kernel7Console11s_cursorPosE+8(%rip)
	.loc 1 99 37 view .LVU488
	movq	_ZN6Kernel7Console11s_cursorPosE+8(%rip), %rax
	.loc 1 99 21 view .LVU489
	movq	$_ZN6Kernel7Console8s_extentE, %rcx
	cmpq	8(%rcx), %rax
	jnb	.L183
.L163:
.LBE176:
	.loc 1 90 13 is_stmt 1 discriminator 2 view .LVU490
.LVL236:
	.loc 1 90 39 discriminator 1 view .LVU491
	addq	$1, %r15
.LVL237:
	.loc 1 90 35 is_stmt 0 discriminator 1 view .LVU492
	movzbl	-1(%r15), %r14d
	.loc 1 90 39 discriminator 1 view .LVU493
	testb	%r14b, %r14b
	je	.L184
.LVL238:
.L165:
.LBB177:
	.loc 1 92 42 view .LVU494
	movq	_ZN6Kernel7Console11s_cursorPosE+8(%rip), %rdi
	.loc 1 92 75 view .LVU495
	movq	_ZN6Kernel7Console11s_cursorPosE(%rip), %rax
.LVL239:
	.loc 1 93 26 view .LVU496
	movzbl	%r14b, %esi
	.loc 1 92 44 view .LVU497
	movq	-56(%rbp), %rcx
	imulq	%rcx, %rdi
.LVL240:
	.loc 1 92 24 view .LVU498
	addq	%rax, %rdi
.LVL241:
	.loc 1 93 26 view .LVU499
	movl	%r12d, %edx
	call	_ZN6Kernel7Console9writeCharEmhNS0_10AttributesE
.LVL242:
	.loc 1 94 31 view .LVU500
	movq	_ZN6Kernel7Console11s_cursorPosE(%rip), %rax
	.loc 1 94 17 view .LVU501
	addq	$1, %rax
	movq	%rax, _ZN6Kernel7Console11s_cursorPosE(%rip)
	.loc 1 95 33 view .LVU502
	movq	_ZN6Kernel7Console11s_cursorPosE(%rip), %rax
	.loc 1 95 53 discriminator 2 view .LVU503
	movq	-56(%rbp), %rcx
	cmpq	%rcx, %rax
	jnb	.L176
	cmpb	$10, %r14b
	je	.L176
	jmp	.L163
.L183:
	.loc 1 100 35 view .LVU504
	movl	$1, %edi
	call	_ZN6Kernel7Console10scrollDownEm
.LVL243:
	jmp	.L163
.LVL244:
.L184:
	.loc 1 100 35 view .LVU505
.LBE177:
.LBE175:
	.loc 1 103 33 view .LVU506
	call	_ZN6Kernel7Console20updateHardwareCursorEv
.LVL245:
	.loc 1 103 33 view .LVU507
.LBE174:
.LBE173:
	.loc 1 176 38 view .LVU508
	movq	_ZN6Kernel7Console11s_cursorPosE+8(%rip), %rax
	.loc 1 176 71 view .LVU509
	movq	_ZN6Kernel7Console11s_cursorPosE(%rip), %rdx
	.loc 1 176 40 view .LVU510
	movq	-56(%rbp), %rcx
	imulq	%rcx, %rax
	.loc 1 176 20 view .LVU511
	addq	%rdx, %rax
	movq	%rax, -72(%rbp)
.LVL246:
	.loc 1 179 22 is_stmt 1 discriminator 1 view .LVU512
	.loc 1 181 17 is_stmt 0 view .LVU513
	movq	%r13, %r15
	shrq	$60, %r15
	jne	.L185
.LVL247:
.L167:
	.loc 1 183 21 view .LVU514
	salq	$4, %r13
.LVL248:
	.loc 1 179 13 is_stmt 1 view .LVU515
	addq	$1, %r15
.LVL249:
	.loc 1 179 22 discriminator 1 view .LVU516
	cmpq	$16, %r15
	je	.L169
	.loc 1 181 17 is_stmt 0 view .LVU517
	movq	%r13, %rax
	shrq	$60, %rax
	je	.L167
	movq	%r15, %r14
.LVL250:
.L166:
	.loc 1 185 22 is_stmt 1 discriminator 1 view .LVU518
	.loc 1 185 22 is_stmt 0 discriminator 1 view .LVU519
	movq	-72(%rbp), %rax
	addq	%rax, %r14
.LVL251:
	.loc 1 185 22 discriminator 1 view .LVU520
	subq	%r15, %r14
	addq	$16, %rax
	subq	%r15, %rax
	movq	%rax, -64(%rbp)
.LVL252:
.L170:
	.loc 1 187 69 view .LVU521
	movq	%r13, %rax
	shrq	$60, %rax
	.loc 1 187 26 view .LVU522
	movzbl	.LC2(%rax), %esi
	movl	%r12d, %edx
	movq	%r14, %rdi
	call	_ZN6Kernel7Console9writeCharEmhNS0_10AttributesE
.LVL253:
	.loc 1 188 21 view .LVU523
	salq	$4, %r13
.LVL254:
	.loc 1 185 13 is_stmt 1 discriminator 2 view .LVU524
	.loc 1 185 22 discriminator 1 view .LVU525
	addq	$1, %r14
.LVL255:
	.loc 1 185 22 is_stmt 0 discriminator 1 view .LVU526
	movq	-64(%rbp), %rax
	cmpq	%rax, %r14
	jne	.L170
.LVL256:
.L169:
	.loc 1 190 43 view .LVU527
	movq	-72(%rbp), %rax
	addq	$16, %rax
	subq	%r15, %rax
	.loc 1 190 55 view .LVU528
	movl	$0, %edx
	divq	-56(%rbp)
	.loc 1 190 27 view .LVU529
	movq	%rdx, _ZN6Kernel7Console11s_cursorPosE(%rip)
	.loc 1 191 27 view .LVU530
	movq	%rax, _ZN6Kernel7Console11s_cursorPosE+8(%rip)
	.loc 1 192 33 view .LVU531
	call	_ZN6Kernel7Console20updateHardwareCursorEv
.LVL257:
	.loc 1 193 9 view .LVU532
	jmp	.L160
.LVL258:
.L155:
	.loc 1 193 9 view .LVU533
.LBE172:
.LBE171:
	.loc 1 274 36 view .LVU534
	movl	%r12d, %esi
	movl	$37, %edi
	call	_ZN6Kernel7Console7putCharEhNS0_10AttributesE
.LVL259:
	.loc 1 275 36 view .LVU535
	movzbl	1(%rbx), %edi
	movl	%r12d, %esi
	call	_ZN6Kernel7Console7putCharEhNS0_10AttributesE
.LVL260:
	.loc 1 277 25 view .LVU536
	jmp	.L160
.L152:
	.loc 1 279 32 view .LVU537
	movl	%r12d, %esi
	movl	$37, %edi
	call	_ZN6Kernel7Console7putCharEhNS0_10AttributesE
.LVL261:
	.loc 1 280 32 view .LVU538
	movzbl	1(%rbx), %edi
	movl	%r12d, %esi
	call	_ZN6Kernel7Console7putCharEhNS0_10AttributesE
.LVL262:
	.loc 1 281 25 view .LVU539
	addq	$2, %rbx
.LVL263:
	.loc 1 282 25 view .LVU540
	jmp	.L151
.LVL264:
.L171:
.LBB179:
.LBB170:
.LBB169:
.LBB167:
	.loc 1 97 35 view .LVU541
	movq	$0, _ZN6Kernel7Console11s_cursorPosE(%rip)
	.loc 1 98 35 view .LVU542
	movq	_ZN6Kernel7Console11s_cursorPosE+8(%rip), %rax
	.loc 1 98 21 view .LVU543
	addq	$1, %rax
	movq	%rax, _ZN6Kernel7Console11s_cursorPosE+8(%rip)
	.loc 1 99 37 view .LVU544
	movq	_ZN6Kernel7Console11s_cursorPosE+8(%rip), %rax
	.loc 1 99 21 view .LVU545
	cmpq	8(%r14), %rax
	jnb	.L186
.L172:
.LBE167:
	.loc 1 90 13 is_stmt 1 discriminator 2 view .LVU546
	.loc 1 90 39 discriminator 1 view .LVU547
	.loc 1 90 35 is_stmt 0 discriminator 1 view .LVU548
	addq	$1, %r13
	movzbl	0(%r13), %esi
	.loc 1 90 39 discriminator 1 view .LVU549
	testb	%sil, %sil
	je	.L162
.LVL265:
.L161:
.LBB168:
	.loc 1 92 42 view .LVU550
	movq	_ZN6Kernel7Console11s_cursorPosE+8(%rip), %rdi
	.loc 1 92 75 view .LVU551
	movq	_ZN6Kernel7Console11s_cursorPosE(%rip), %rax
.LVL266:
	.loc 1 93 26 view .LVU552
	movzbl	%sil, %esi
	.loc 1 92 44 view .LVU553
	imulq	%rbx, %rdi
.LVL267:
	.loc 1 92 24 view .LVU554
	addq	%rax, %rdi
.LVL268:
	.loc 1 93 26 view .LVU555
	movl	%r12d, %edx
	call	_ZN6Kernel7Console9writeCharEmhNS0_10AttributesE
.LVL269:
	.loc 1 94 31 view .LVU556
	movq	_ZN6Kernel7Console11s_cursorPosE(%rip), %rax
	.loc 1 94 17 view .LVU557
	addq	$1, %rax
	movq	%rax, _ZN6Kernel7Console11s_cursorPosE(%rip)
	.loc 1 95 33 view .LVU558
	movq	_ZN6Kernel7Console11s_cursorPosE(%rip), %rax
	.loc 1 95 53 view .LVU559
	cmpq	%rbx, %rax
	jnb	.L171
	.loc 1 95 53 discriminator 2 view .LVU560
	cmpb	$10, 0(%r13)
	jne	.L172
	jmp	.L171
.L186:
	.loc 1 100 35 view .LVU561
	movl	$1, %edi
	call	_ZN6Kernel7Console10scrollDownEm
.LVL270:
	jmp	.L172
.LVL271:
.L162:
	.loc 1 100 35 view .LVU562
.LBE168:
.LBE169:
	.loc 1 103 33 view .LVU563
	call	_ZN6Kernel7Console20updateHardwareCursorEv
.LVL272:
.L147:
.LBE170:
.LBE179:
	.loc 1 297 9 view .LVU564
	addq	$40, %rsp
	popq	%rbx
	.cfi_remember_state
	.cfi_restore 3
	popq	%r12
	.cfi_restore 12
.LVL273:
	.loc 1 297 9 view .LVU565
	popq	%r13
	.cfi_restore 13
	popq	%r14
	.cfi_restore 14
	popq	%r15
	.cfi_restore 15
	popq	%rbp
	.cfi_restore 6
	.cfi_def_cfa 7, 8
	ret
.LVL274:
.L149:
	.cfi_restore_state
	.loc 1 293 28 view .LVU566
	movzbl	%dil, %edi
	movl	%r12d, %esi
	call	_ZN6Kernel7Console7putCharEhNS0_10AttributesE
.LVL275:
	.loc 1 295 17 view .LVU567
	addq	$1, %rbx
.LVL276:
.L151:
	.loc 1 199 13 is_stmt 1 view .LVU568
	movzbl	(%rbx), %edi
	testb	%dil, %dil
	je	.L147
.L173:
	.loc 1 201 17 is_stmt 0 view .LVU569
	cmpb	$37, %dil
	jne	.L149
	.loc 1 201 33 discriminator 1 view .LVU570
	movzbl	1(%rbx), %eax
	testb	%al, %al
	je	.L149
.LVL277:
	.loc 1 203 21 view .LVU571
	cmpb	$37, %al
	je	.L187
	.loc 1 209 21 view .LVU572
	subl	$98, %eax
	cmpb	$22, %al
	ja	.L152
	movzbl	%al, %eax
	jmp	*.L154(,%rax,8)
	.section	.rodata._ZN6Kernel7Console9printImplIRPNS_9MemoryMap18MultibootMmapEntryEJEEEvPKcNS0_10AttributesEOT_DpOT0_,"aG",@progbits,_ZN6Kernel7Console9printImplIRPNS_9MemoryMap18MultibootMmapEntryEJEEEvPKcNS0_10AttributesEOT_DpOT0_,comdat
	.align 8
	.align 4
.L154:
	.quad	.L159
	.quad	.L158
	.quad	.L157
	.quad	.L152
	.quad	.L152
	.quad	.L152
	.quad	.L152
	.quad	.L152
	.quad	.L152
	.quad	.L152
	.quad	.L152
	.quad	.L152
	.quad	.L152
	.quad	.L152
	.quad	.L156
	.quad	.L152
	.quad	.L152
	.quad	.L155
	.quad	.L152
	.quad	.L152
	.quad	.L152
	.quad	.L152
	.quad	.L153
	.section	.text._ZN6Kernel7Console9printImplIRPNS_9MemoryMap18MultibootMmapEntryEJEEEvPKcNS0_10AttributesEOT_DpOT0_,"axG",@progbits,_ZN6Kernel7Console9printImplIRPNS_9MemoryMap18MultibootMmapEntryEJEEEvPKcNS0_10AttributesEOT_DpOT0_,comdat
.LVL278:
.L185:
.LBB180:
.LBB178:
	.loc 1 178 20 view .LVU573
	movl	$0, %r15d
	.loc 1 177 20 view .LVU574
	movl	$0, %r14d
	jmp	.L166
.LBE178:
.LBE180:
	.cfi_endproc
.LFE62:
	.size	_ZN6Kernel7Console9printImplIRPNS_9MemoryMap18MultibootMmapEntryEJEEEvPKcNS0_10AttributesEOT_DpOT0_, .-_ZN6Kernel7Console9printImplIRPNS_9MemoryMap18MultibootMmapEntryEJEEEvPKcNS0_10AttributesEOT_DpOT0_
	.section	.text._ZN6Kernel7Console9printImplIRPPPNS_9MemoryMap18MultibootMmapEntryEJEEEvPKcNS0_10AttributesEOT_DpOT0_,"axG",@progbits,_ZN6Kernel7Console9printImplIRPPPNS_9MemoryMap18MultibootMmapEntryEJEEEvPKcNS0_10AttributesEOT_DpOT0_,comdat
	.weak	_ZN6Kernel7Console9printImplIRPPPNS_9MemoryMap18MultibootMmapEntryEJEEEvPKcNS0_10AttributesEOT_DpOT0_
	.type	_ZN6Kernel7Console9printImplIRPPPNS_9MemoryMap18MultibootMmapEntryEJEEEvPKcNS0_10AttributesEOT_DpOT0_, @function
_ZN6Kernel7Console9printImplIRPPPNS_9MemoryMap18MultibootMmapEntryEJEEEvPKcNS0_10AttributesEOT_DpOT0_:
.LVL279:
.LFB63:
	.loc 1 197 21 is_stmt 1 view -0
	.cfi_startproc
	.loc 1 197 21 is_stmt 0 view .LVU576
	pushq	%rbp
	.cfi_def_cfa_offset 16
	.cfi_offset 6, -16
	movq	%rsp, %rbp
	.cfi_def_cfa_register 6
	pushq	%r15
	pushq	%r14
	pushq	%r13
	pushq	%r12
	pushq	%rbx
	subq	$40, %rsp
	.cfi_offset 15, -24
	.cfi_offset 14, -32
	.cfi_offset 13, -40
	.cfi_offset 12, -48
	.cfi_offset 3, -56
	movq	%rdi, %rbx
	movq	%rdx, %r13
	movl	%esi, %r12d
	.loc 1 199 13 is_stmt 1 view .LVU577
	movzbl	(%rdi), %edi
.LVL280:
	.loc 1 199 13 is_stmt 0 view .LVU578
	testb	%dil, %dil
	jne	.L214
	jmp	.L188
.LVL281:
.L228:
	.loc 1 205 32 view .LVU579
	movl	%r12d, %esi
	movl	$37, %edi
	call	_ZN6Kernel7Console7putCharEhNS0_10AttributesE
.LVL282:
	.loc 1 206 25 view .LVU580
	addq	$2, %rbx
.LVL283:
	.loc 1 207 25 view .LVU581
	jmp	.L192
.LVL284:
.L198:
	.loc 1 218 36 view .LVU582
	movl	%r12d, %esi
	movl	$37, %edi
	call	_ZN6Kernel7Console7putCharEhNS0_10AttributesE
.LVL285:
	.loc 1 219 36 view .LVU583
	movzbl	1(%rbx), %edi
	movl	%r12d, %esi
	call	_ZN6Kernel7Console7putCharEhNS0_10AttributesE
.LVL286:
.L201:
.LBB191:
.LBB192:
.LBB193:
	.loc 1 90 39 is_stmt 1 discriminator 1 view .LVU584
	.loc 1 90 35 is_stmt 0 discriminator 1 view .LVU585
	leaq	2(%rbx), %r13
	movzbl	2(%rbx), %esi
	.loc 1 90 39 discriminator 1 view .LVU586
	testb	%sil, %sil
	je	.L203
.LBB194:
	.loc 1 92 55 view .LVU587
	movq	$_ZN6Kernel7Console8s_extentE, %r14
	movq	(%r14), %rbx
	jmp	.L202
.LVL287:
.L200:
	.loc 1 92 55 view .LVU588
.LBE194:
.LBE193:
.LBE192:
.LBE191:
	.loc 1 229 36 view .LVU589
	movl	%r12d, %esi
	movl	$37, %edi
	call	_ZN6Kernel7Console7putCharEhNS0_10AttributesE
.LVL288:
	.loc 1 230 36 view .LVU590
	movzbl	1(%rbx), %edi
	movl	%r12d, %esi
	call	_ZN6Kernel7Console7putCharEhNS0_10AttributesE
.LVL289:
	.loc 1 232 25 view .LVU591
	jmp	.L201
.L194:
	.loc 1 240 36 view .LVU592
	movl	%r12d, %esi
	movl	$37, %edi
	call	_ZN6Kernel7Console7putCharEhNS0_10AttributesE
.LVL290:
	.loc 1 241 36 view .LVU593
	movzbl	1(%rbx), %edi
	movl	%r12d, %esi
	call	_ZN6Kernel7Console7putCharEhNS0_10AttributesE
.LVL291:
	.loc 1 243 25 view .LVU594
	jmp	.L201
.L199:
	.loc 1 251 36 view .LVU595
	movl	%r12d, %esi
	movl	$37, %edi
	call	_ZN6Kernel7Console7putCharEhNS0_10AttributesE
.LVL292:
	.loc 1 252 36 view .LVU596
	movzbl	1(%rbx), %edi
	movl	%r12d, %esi
	call	_ZN6Kernel7Console7putCharEhNS0_10AttributesE
.LVL293:
	.loc 1 254 25 view .LVU597
	jmp	.L201
.L197:
	.loc 1 258 38 view .LVU598
	movq	0(%r13), %r13
.LVL294:
.LBB199:
.LBI199:
	.loc 1 172 21 is_stmt 1 view .LVU599
.LBB200:
.LBB201:
.LBI201:
	.loc 1 87 21 view .LVU600
.LBB202:
.LBB203:
	.loc 1 90 39 discriminator 1 view .LVU601
	movq	$.LC1+1, %r15
	.loc 1 90 35 is_stmt 0 discriminator 1 view .LVU602
	movl	$48, %r14d
.LBB204:
	.loc 1 92 55 view .LVU603
	movq	$_ZN6Kernel7Console8s_extentE, %rax
	movq	(%rax), %rax
	movq	%rax, -56(%rbp)
	jmp	.L206
.LVL295:
.L217:
	.loc 1 97 35 view .LVU604
	movq	$0, _ZN6Kernel7Console11s_cursorPosE(%rip)
	.loc 1 98 35 view .LVU605
	movq	_ZN6Kernel7Console11s_cursorPosE+8(%rip), %rax
	.loc 1 98 21 view .LVU606
	addq	$1, %rax
	movq	%rax, _ZN6Kernel7Console11s_cursorPosE+8(%rip)
	.loc 1 99 37 view .LVU607
	movq	_ZN6Kernel7Console11s_cursorPosE+8(%rip), %rax
	.loc 1 99 21 view .LVU608
	movq	$_ZN6Kernel7Console8s_extentE, %rcx
	cmpq	8(%rcx), %rax
	jnb	.L224
.L204:
.LBE204:
	.loc 1 90 13 is_stmt 1 discriminator 2 view .LVU609
.LVL296:
	.loc 1 90 39 discriminator 1 view .LVU610
	addq	$1, %r15
.LVL297:
	.loc 1 90 35 is_stmt 0 discriminator 1 view .LVU611
	movzbl	-1(%r15), %r14d
	.loc 1 90 39 discriminator 1 view .LVU612
	testb	%r14b, %r14b
	je	.L225
.LVL298:
.L206:
.LBB205:
	.loc 1 92 42 view .LVU613
	movq	_ZN6Kernel7Console11s_cursorPosE+8(%rip), %rdi
	.loc 1 92 75 view .LVU614
	movq	_ZN6Kernel7Console11s_cursorPosE(%rip), %rax
.LVL299:
	.loc 1 93 26 view .LVU615
	movzbl	%r14b, %esi
	.loc 1 92 44 view .LVU616
	movq	-56(%rbp), %rcx
	imulq	%rcx, %rdi
.LVL300:
	.loc 1 92 24 view .LVU617
	addq	%rax, %rdi
.LVL301:
	.loc 1 93 26 view .LVU618
	movl	%r12d, %edx
	call	_ZN6Kernel7Console9writeCharEmhNS0_10AttributesE
.LVL302:
	.loc 1 94 31 view .LVU619
	movq	_ZN6Kernel7Console11s_cursorPosE(%rip), %rax
	.loc 1 94 17 view .LVU620
	addq	$1, %rax
	movq	%rax, _ZN6Kernel7Console11s_cursorPosE(%rip)
	.loc 1 95 33 view .LVU621
	movq	_ZN6Kernel7Console11s_cursorPosE(%rip), %rax
	.loc 1 95 53 discriminator 2 view .LVU622
	movq	-56(%rbp), %rcx
	cmpq	%rcx, %rax
	jnb	.L217
	cmpb	$10, %r14b
	je	.L217
	jmp	.L204
.L224:
	.loc 1 100 35 view .LVU623
	movl	$1, %edi
	call	_ZN6Kernel7Console10scrollDownEm
.LVL303:
	jmp	.L204
.LVL304:
.L225:
	.loc 1 100 35 view .LVU624
.LBE205:
.LBE203:
	.loc 1 103 33 view .LVU625
	call	_ZN6Kernel7Console20updateHardwareCursorEv
.LVL305:
	.loc 1 103 33 view .LVU626
.LBE202:
.LBE201:
	.loc 1 176 38 view .LVU627
	movq	_ZN6Kernel7Console11s_cursorPosE+8(%rip), %rax
	.loc 1 176 71 view .LVU628
	movq	_ZN6Kernel7Console11s_cursorPosE(%rip), %rdx
	.loc 1 176 40 view .LVU629
	movq	-56(%rbp), %rcx
	imulq	%rcx, %rax
	.loc 1 176 20 view .LVU630
	addq	%rdx, %rax
	movq	%rax, -72(%rbp)
.LVL306:
	.loc 1 179 22 is_stmt 1 discriminator 1 view .LVU631
	.loc 1 181 17 is_stmt 0 view .LVU632
	movq	%r13, %r15
	shrq	$60, %r15
	jne	.L226
.LVL307:
.L208:
	.loc 1 183 21 view .LVU633
	salq	$4, %r13
.LVL308:
	.loc 1 179 13 is_stmt 1 view .LVU634
	addq	$1, %r15
.LVL309:
	.loc 1 179 22 discriminator 1 view .LVU635
	cmpq	$16, %r15
	je	.L210
	.loc 1 181 17 is_stmt 0 view .LVU636
	movq	%r13, %rax
	shrq	$60, %rax
	je	.L208
	movq	%r15, %r14
.LVL310:
.L207:
	.loc 1 185 22 is_stmt 1 discriminator 1 view .LVU637
	.loc 1 185 22 is_stmt 0 discriminator 1 view .LVU638
	movq	-72(%rbp), %rax
	addq	%rax, %r14
.LVL311:
	.loc 1 185 22 discriminator 1 view .LVU639
	subq	%r15, %r14
	addq	$16, %rax
	subq	%r15, %rax
	movq	%rax, -64(%rbp)
.LVL312:
.L211:
	.loc 1 187 69 view .LVU640
	movq	%r13, %rax
	shrq	$60, %rax
	.loc 1 187 26 view .LVU641
	movzbl	.LC2(%rax), %esi
	movl	%r12d, %edx
	movq	%r14, %rdi
	call	_ZN6Kernel7Console9writeCharEmhNS0_10AttributesE
.LVL313:
	.loc 1 188 21 view .LVU642
	salq	$4, %r13
.LVL314:
	.loc 1 185 13 is_stmt 1 discriminator 2 view .LVU643
	.loc 1 185 22 discriminator 1 view .LVU644
	addq	$1, %r14
.LVL315:
	.loc 1 185 22 is_stmt 0 discriminator 1 view .LVU645
	movq	-64(%rbp), %rax
	cmpq	%rax, %r14
	jne	.L211
.LVL316:
.L210:
	.loc 1 190 43 view .LVU646
	movq	-72(%rbp), %rax
	addq	$16, %rax
	subq	%r15, %rax
	.loc 1 190 55 view .LVU647
	movl	$0, %edx
	divq	-56(%rbp)
	.loc 1 190 27 view .LVU648
	movq	%rdx, _ZN6Kernel7Console11s_cursorPosE(%rip)
	.loc 1 191 27 view .LVU649
	movq	%rax, _ZN6Kernel7Console11s_cursorPosE+8(%rip)
	.loc 1 192 33 view .LVU650
	call	_ZN6Kernel7Console20updateHardwareCursorEv
.LVL317:
	.loc 1 193 9 view .LVU651
	jmp	.L201
.LVL318:
.L196:
	.loc 1 193 9 view .LVU652
.LBE200:
.LBE199:
	.loc 1 274 36 view .LVU653
	movl	%r12d, %esi
	movl	$37, %edi
	call	_ZN6Kernel7Console7putCharEhNS0_10AttributesE
.LVL319:
	.loc 1 275 36 view .LVU654
	movzbl	1(%rbx), %edi
	movl	%r12d, %esi
	call	_ZN6Kernel7Console7putCharEhNS0_10AttributesE
.LVL320:
	.loc 1 277 25 view .LVU655
	jmp	.L201
.L193:
	.loc 1 279 32 view .LVU656
	movl	%r12d, %esi
	movl	$37, %edi
	call	_ZN6Kernel7Console7putCharEhNS0_10AttributesE
.LVL321:
	.loc 1 280 32 view .LVU657
	movzbl	1(%rbx), %edi
	movl	%r12d, %esi
	call	_ZN6Kernel7Console7putCharEhNS0_10AttributesE
.LVL322:
	.loc 1 281 25 view .LVU658
	addq	$2, %rbx
.LVL323:
	.loc 1 282 25 view .LVU659
	jmp	.L192
.LVL324:
.L212:
.LBB207:
.LBB198:
.LBB197:
.LBB195:
	.loc 1 97 35 view .LVU660
	movq	$0, _ZN6Kernel7Console11s_cursorPosE(%rip)
	.loc 1 98 35 view .LVU661
	movq	_ZN6Kernel7Console11s_cursorPosE+8(%rip), %rax
	.loc 1 98 21 view .LVU662
	addq	$1, %rax
	movq	%rax, _ZN6Kernel7Console11s_cursorPosE+8(%rip)
	.loc 1 99 37 view .LVU663
	movq	_ZN6Kernel7Console11s_cursorPosE+8(%rip), %rax
	.loc 1 99 21 view .LVU664
	cmpq	8(%r14), %rax
	jnb	.L227
.L213:
.LBE195:
	.loc 1 90 13 is_stmt 1 discriminator 2 view .LVU665
	.loc 1 90 39 discriminator 1 view .LVU666
	.loc 1 90 35 is_stmt 0 discriminator 1 view .LVU667
	addq	$1, %r13
	movzbl	0(%r13), %esi
	.loc 1 90 39 discriminator 1 view .LVU668
	testb	%sil, %sil
	je	.L203
.LVL325:
.L202:
.LBB196:
	.loc 1 92 42 view .LVU669
	movq	_ZN6Kernel7Console11s_cursorPosE+8(%rip), %rdi
	.loc 1 92 75 view .LVU670
	movq	_ZN6Kernel7Console11s_cursorPosE(%rip), %rax
.LVL326:
	.loc 1 93 26 view .LVU671
	movzbl	%sil, %esi
	.loc 1 92 44 view .LVU672
	imulq	%rbx, %rdi
.LVL327:
	.loc 1 92 24 view .LVU673
	addq	%rax, %rdi
.LVL328:
	.loc 1 93 26 view .LVU674
	movl	%r12d, %edx
	call	_ZN6Kernel7Console9writeCharEmhNS0_10AttributesE
.LVL329:
	.loc 1 94 31 view .LVU675
	movq	_ZN6Kernel7Console11s_cursorPosE(%rip), %rax
	.loc 1 94 17 view .LVU676
	addq	$1, %rax
	movq	%rax, _ZN6Kernel7Console11s_cursorPosE(%rip)
	.loc 1 95 33 view .LVU677
	movq	_ZN6Kernel7Console11s_cursorPosE(%rip), %rax
	.loc 1 95 53 view .LVU678
	cmpq	%rbx, %rax
	jnb	.L212
	.loc 1 95 53 discriminator 2 view .LVU679
	cmpb	$10, 0(%r13)
	jne	.L213
	jmp	.L212
.L227:
	.loc 1 100 35 view .LVU680
	movl	$1, %edi
	call	_ZN6Kernel7Console10scrollDownEm
.LVL330:
	jmp	.L213
.LVL331:
.L203:
	.loc 1 100 35 view .LVU681
.LBE196:
.LBE197:
	.loc 1 103 33 view .LVU682
	call	_ZN6Kernel7Console20updateHardwareCursorEv
.LVL332:
.L188:
.LBE198:
.LBE207:
	.loc 1 297 9 view .LVU683
	addq	$40, %rsp
	popq	%rbx
	.cfi_remember_state
	.cfi_restore 3
	popq	%r12
	.cfi_restore 12
.LVL333:
	.loc 1 297 9 view .LVU684
	popq	%r13
	.cfi_restore 13
	popq	%r14
	.cfi_restore 14
	popq	%r15
	.cfi_restore 15
	popq	%rbp
	.cfi_restore 6
	.cfi_def_cfa 7, 8
	ret
.LVL334:
.L190:
	.cfi_restore_state
	.loc 1 293 28 view .LVU685
	movzbl	%dil, %edi
	movl	%r12d, %esi
	call	_ZN6Kernel7Console7putCharEhNS0_10AttributesE
.LVL335:
	.loc 1 295 17 view .LVU686
	addq	$1, %rbx
.LVL336:
.L192:
	.loc 1 199 13 is_stmt 1 view .LVU687
	movzbl	(%rbx), %edi
	testb	%dil, %dil
	je	.L188
.L214:
	.loc 1 201 17 is_stmt 0 view .LVU688
	cmpb	$37, %dil
	jne	.L190
	.loc 1 201 33 discriminator 1 view .LVU689
	movzbl	1(%rbx), %eax
	testb	%al, %al
	je	.L190
.LVL337:
	.loc 1 203 21 view .LVU690
	cmpb	$37, %al
	je	.L228
	.loc 1 209 21 view .LVU691
	subl	$98, %eax
	cmpb	$22, %al
	ja	.L193
	movzbl	%al, %eax
	jmp	*.L195(,%rax,8)
	.section	.rodata._ZN6Kernel7Console9printImplIRPPPNS_9MemoryMap18MultibootMmapEntryEJEEEvPKcNS0_10AttributesEOT_DpOT0_,"aG",@progbits,_ZN6Kernel7Console9printImplIRPPPNS_9MemoryMap18MultibootMmapEntryEJEEEvPKcNS0_10AttributesEOT_DpOT0_,comdat
	.align 8
	.align 4
.L195:
	.quad	.L200
	.quad	.L199
	.quad	.L198
	.quad	.L193
	.quad	.L193
	.quad	.L193
	.quad	.L193
	.quad	.L193
	.quad	.L193
	.quad	.L193
	.quad	.L193
	.quad	.L193
	.quad	.L193
	.quad	.L193
	.quad	.L197
	.quad	.L193
	.quad	.L193
	.quad	.L196
	.quad	.L193
	.quad	.L193
	.quad	.L193
	.quad	.L193
	.quad	.L194
	.section	.text._ZN6Kernel7Console9printImplIRPPPNS_9MemoryMap18MultibootMmapEntryEJEEEvPKcNS0_10AttributesEOT_DpOT0_,"axG",@progbits,_ZN6Kernel7Console9printImplIRPPPNS_9MemoryMap18MultibootMmapEntryEJEEEvPKcNS0_10AttributesEOT_DpOT0_,comdat
.LVL338:
.L226:
.LBB208:
.LBB206:
	.loc 1 178 20 view .LVU692
	movl	$0, %r15d
	.loc 1 177 20 view .LVU693
	movl	$0, %r14d
	jmp	.L207
.LBE206:
.LBE208:
	.cfi_endproc
.LFE63:
	.size	_ZN6Kernel7Console9printImplIRPPPNS_9MemoryMap18MultibootMmapEntryEJEEEvPKcNS0_10AttributesEOT_DpOT0_, .-_ZN6Kernel7Console9printImplIRPPPNS_9MemoryMap18MultibootMmapEntryEJEEEvPKcNS0_10AttributesEOT_DpOT0_
	.section	.text._ZN6Kernel7Console9printImplIRPyJEEEvPKcNS0_10AttributesEOT_DpOT0_,"axG",@progbits,_ZN6Kernel7Console9printImplIRPyJEEEvPKcNS0_10AttributesEOT_DpOT0_,comdat
	.weak	_ZN6Kernel7Console9printImplIRPyJEEEvPKcNS0_10AttributesEOT_DpOT0_
	.type	_ZN6Kernel7Console9printImplIRPyJEEEvPKcNS0_10AttributesEOT_DpOT0_, @function
_ZN6Kernel7Console9printImplIRPyJEEEvPKcNS0_10AttributesEOT_DpOT0_:
.LVL339:
.LFB64:
	.loc 1 197 21 is_stmt 1 view -0
	.cfi_startproc
	.loc 1 197 21 is_stmt 0 view .LVU695
	pushq	%rbp
	.cfi_def_cfa_offset 16
	.cfi_offset 6, -16
	movq	%rsp, %rbp
	.cfi_def_cfa_register 6
	pushq	%r15
	pushq	%r14
	pushq	%r13
	pushq	%r12
	pushq	%rbx
	subq	$40, %rsp
	.cfi_offset 15, -24
	.cfi_offset 14, -32
	.cfi_offset 13, -40
	.cfi_offset 12, -48
	.cfi_offset 3, -56
	movq	%rdi, %rbx
	movq	%rdx, %r13
	movl	%esi, %r12d
	.loc 1 199 13 is_stmt 1 view .LVU696
	movzbl	(%rdi), %edi
.LVL340:
	.loc 1 199 13 is_stmt 0 view .LVU697
	testb	%dil, %dil
	jne	.L255
	jmp	.L229
.LVL341:
.L269:
	.loc 1 205 32 view .LVU698
	movl	%r12d, %esi
	movl	$37, %edi
	call	_ZN6Kernel7Console7putCharEhNS0_10AttributesE
.LVL342:
	.loc 1 206 25 view .LVU699
	addq	$2, %rbx
.LVL343:
	.loc 1 207 25 view .LVU700
	jmp	.L233
.LVL344:
.L239:
	.loc 1 218 36 view .LVU701
	movl	%r12d, %esi
	movl	$37, %edi
	call	_ZN6Kernel7Console7putCharEhNS0_10AttributesE
.LVL345:
	.loc 1 219 36 view .LVU702
	movzbl	1(%rbx), %edi
	movl	%r12d, %esi
	call	_ZN6Kernel7Console7putCharEhNS0_10AttributesE
.LVL346:
.L242:
.LBB219:
.LBB220:
.LBB221:
	.loc 1 90 39 is_stmt 1 discriminator 1 view .LVU703
	.loc 1 90 35 is_stmt 0 discriminator 1 view .LVU704
	leaq	2(%rbx), %r13
	movzbl	2(%rbx), %esi
	.loc 1 90 39 discriminator 1 view .LVU705
	testb	%sil, %sil
	je	.L244
.LBB222:
	.loc 1 92 55 view .LVU706
	movq	$_ZN6Kernel7Console8s_extentE, %r14
	movq	(%r14), %rbx
	jmp	.L243
.LVL347:
.L241:
	.loc 1 92 55 view .LVU707
.LBE222:
.LBE221:
.LBE220:
.LBE219:
	.loc 1 229 36 view .LVU708
	movl	%r12d, %esi
	movl	$37, %edi
	call	_ZN6Kernel7Console7putCharEhNS0_10AttributesE
.LVL348:
	.loc 1 230 36 view .LVU709
	movzbl	1(%rbx), %edi
	movl	%r12d, %esi
	call	_ZN6Kernel7Console7putCharEhNS0_10AttributesE
.LVL349:
	.loc 1 232 25 view .LVU710
	jmp	.L242
.L235:
	.loc 1 240 36 view .LVU711
	movl	%r12d, %esi
	movl	$37, %edi
	call	_ZN6Kernel7Console7putCharEhNS0_10AttributesE
.LVL350:
	.loc 1 241 36 view .LVU712
	movzbl	1(%rbx), %edi
	movl	%r12d, %esi
	call	_ZN6Kernel7Console7putCharEhNS0_10AttributesE
.LVL351:
	.loc 1 243 25 view .LVU713
	jmp	.L242
.L240:
	.loc 1 251 36 view .LVU714
	movl	%r12d, %esi
	movl	$37, %edi
	call	_ZN6Kernel7Console7putCharEhNS0_10AttributesE
.LVL352:
	.loc 1 252 36 view .LVU715
	movzbl	1(%rbx), %edi
	movl	%r12d, %esi
	call	_ZN6Kernel7Console7putCharEhNS0_10AttributesE
.LVL353:
	.loc 1 254 25 view .LVU716
	jmp	.L242
.L238:
	.loc 1 258 38 view .LVU717
	movq	0(%r13), %r13
.LVL354:
.LBB227:
.LBI227:
	.loc 1 172 21 is_stmt 1 view .LVU718
.LBB228:
.LBB229:
.LBI229:
	.loc 1 87 21 view .LVU719
.LBB230:
.LBB231:
	.loc 1 90 39 discriminator 1 view .LVU720
	movq	$.LC1+1, %r15
	.loc 1 90 35 is_stmt 0 discriminator 1 view .LVU721
	movl	$48, %r14d
.LBB232:
	.loc 1 92 55 view .LVU722
	movq	$_ZN6Kernel7Console8s_extentE, %rax
	movq	(%rax), %rax
	movq	%rax, -56(%rbp)
	jmp	.L247
.LVL355:
.L258:
	.loc 1 97 35 view .LVU723
	movq	$0, _ZN6Kernel7Console11s_cursorPosE(%rip)
	.loc 1 98 35 view .LVU724
	movq	_ZN6Kernel7Console11s_cursorPosE+8(%rip), %rax
	.loc 1 98 21 view .LVU725
	addq	$1, %rax
	movq	%rax, _ZN6Kernel7Console11s_cursorPosE+8(%rip)
	.loc 1 99 37 view .LVU726
	movq	_ZN6Kernel7Console11s_cursorPosE+8(%rip), %rax
	.loc 1 99 21 view .LVU727
	movq	$_ZN6Kernel7Console8s_extentE, %rcx
	cmpq	8(%rcx), %rax
	jnb	.L265
.L245:
.LBE232:
	.loc 1 90 13 is_stmt 1 discriminator 2 view .LVU728
.LVL356:
	.loc 1 90 39 discriminator 1 view .LVU729
	addq	$1, %r15
.LVL357:
	.loc 1 90 35 is_stmt 0 discriminator 1 view .LVU730
	movzbl	-1(%r15), %r14d
	.loc 1 90 39 discriminator 1 view .LVU731
	testb	%r14b, %r14b
	je	.L266
.LVL358:
.L247:
.LBB233:
	.loc 1 92 42 view .LVU732
	movq	_ZN6Kernel7Console11s_cursorPosE+8(%rip), %rdi
	.loc 1 92 75 view .LVU733
	movq	_ZN6Kernel7Console11s_cursorPosE(%rip), %rax
.LVL359:
	.loc 1 93 26 view .LVU734
	movzbl	%r14b, %esi
	.loc 1 92 44 view .LVU735
	movq	-56(%rbp), %rcx
	imulq	%rcx, %rdi
.LVL360:
	.loc 1 92 24 view .LVU736
	addq	%rax, %rdi
.LVL361:
	.loc 1 93 26 view .LVU737
	movl	%r12d, %edx
	call	_ZN6Kernel7Console9writeCharEmhNS0_10AttributesE
.LVL362:
	.loc 1 94 31 view .LVU738
	movq	_ZN6Kernel7Console11s_cursorPosE(%rip), %rax
	.loc 1 94 17 view .LVU739
	addq	$1, %rax
	movq	%rax, _ZN6Kernel7Console11s_cursorPosE(%rip)
	.loc 1 95 33 view .LVU740
	movq	_ZN6Kernel7Console11s_cursorPosE(%rip), %rax
	.loc 1 95 53 discriminator 2 view .LVU741
	movq	-56(%rbp), %rcx
	cmpq	%rcx, %rax
	jnb	.L258
	cmpb	$10, %r14b
	je	.L258
	jmp	.L245
.L265:
	.loc 1 100 35 view .LVU742
	movl	$1, %edi
	call	_ZN6Kernel7Console10scrollDownEm
.LVL363:
	jmp	.L245
.LVL364:
.L266:
	.loc 1 100 35 view .LVU743
.LBE233:
.LBE231:
	.loc 1 103 33 view .LVU744
	call	_ZN6Kernel7Console20updateHardwareCursorEv
.LVL365:
	.loc 1 103 33 view .LVU745
.LBE230:
.LBE229:
	.loc 1 176 38 view .LVU746
	movq	_ZN6Kernel7Console11s_cursorPosE+8(%rip), %rax
	.loc 1 176 71 view .LVU747
	movq	_ZN6Kernel7Console11s_cursorPosE(%rip), %rdx
	.loc 1 176 40 view .LVU748
	movq	-56(%rbp), %rcx
	imulq	%rcx, %rax
	.loc 1 176 20 view .LVU749
	addq	%rdx, %rax
	movq	%rax, -72(%rbp)
.LVL366:
	.loc 1 179 22 is_stmt 1 discriminator 1 view .LVU750
	.loc 1 181 17 is_stmt 0 view .LVU751
	movq	%r13, %r15
	shrq	$60, %r15
	jne	.L267
.LVL367:
.L249:
	.loc 1 183 21 view .LVU752
	salq	$4, %r13
.LVL368:
	.loc 1 179 13 is_stmt 1 view .LVU753
	addq	$1, %r15
.LVL369:
	.loc 1 179 22 discriminator 1 view .LVU754
	cmpq	$16, %r15
	je	.L251
	.loc 1 181 17 is_stmt 0 view .LVU755
	movq	%r13, %rax
	shrq	$60, %rax
	je	.L249
	movq	%r15, %r14
.LVL370:
.L248:
	.loc 1 185 22 is_stmt 1 discriminator 1 view .LVU756
	.loc 1 185 22 is_stmt 0 discriminator 1 view .LVU757
	movq	-72(%rbp), %rax
	addq	%rax, %r14
.LVL371:
	.loc 1 185 22 discriminator 1 view .LVU758
	subq	%r15, %r14
	addq	$16, %rax
	subq	%r15, %rax
	movq	%rax, -64(%rbp)
.LVL372:
.L252:
	.loc 1 187 69 view .LVU759
	movq	%r13, %rax
	shrq	$60, %rax
	.loc 1 187 26 view .LVU760
	movzbl	.LC2(%rax), %esi
	movl	%r12d, %edx
	movq	%r14, %rdi
	call	_ZN6Kernel7Console9writeCharEmhNS0_10AttributesE
.LVL373:
	.loc 1 188 21 view .LVU761
	salq	$4, %r13
.LVL374:
	.loc 1 185 13 is_stmt 1 discriminator 2 view .LVU762
	.loc 1 185 22 discriminator 1 view .LVU763
	addq	$1, %r14
.LVL375:
	.loc 1 185 22 is_stmt 0 discriminator 1 view .LVU764
	movq	-64(%rbp), %rax
	cmpq	%rax, %r14
	jne	.L252
.LVL376:
.L251:
	.loc 1 190 43 view .LVU765
	movq	-72(%rbp), %rax
	addq	$16, %rax
	subq	%r15, %rax
	.loc 1 190 55 view .LVU766
	movl	$0, %edx
	divq	-56(%rbp)
	.loc 1 190 27 view .LVU767
	movq	%rdx, _ZN6Kernel7Console11s_cursorPosE(%rip)
	.loc 1 191 27 view .LVU768
	movq	%rax, _ZN6Kernel7Console11s_cursorPosE+8(%rip)
	.loc 1 192 33 view .LVU769
	call	_ZN6Kernel7Console20updateHardwareCursorEv
.LVL377:
	.loc 1 193 9 view .LVU770
	jmp	.L242
.LVL378:
.L237:
	.loc 1 193 9 view .LVU771
.LBE228:
.LBE227:
	.loc 1 274 36 view .LVU772
	movl	%r12d, %esi
	movl	$37, %edi
	call	_ZN6Kernel7Console7putCharEhNS0_10AttributesE
.LVL379:
	.loc 1 275 36 view .LVU773
	movzbl	1(%rbx), %edi
	movl	%r12d, %esi
	call	_ZN6Kernel7Console7putCharEhNS0_10AttributesE
.LVL380:
	.loc 1 277 25 view .LVU774
	jmp	.L242
.L234:
	.loc 1 279 32 view .LVU775
	movl	%r12d, %esi
	movl	$37, %edi
	call	_ZN6Kernel7Console7putCharEhNS0_10AttributesE
.LVL381:
	.loc 1 280 32 view .LVU776
	movzbl	1(%rbx), %edi
	movl	%r12d, %esi
	call	_ZN6Kernel7Console7putCharEhNS0_10AttributesE
.LVL382:
	.loc 1 281 25 view .LVU777
	addq	$2, %rbx
.LVL383:
	.loc 1 282 25 view .LVU778
	jmp	.L233
.LVL384:
.L253:
.LBB235:
.LBB226:
.LBB225:
.LBB223:
	.loc 1 97 35 view .LVU779
	movq	$0, _ZN6Kernel7Console11s_cursorPosE(%rip)
	.loc 1 98 35 view .LVU780
	movq	_ZN6Kernel7Console11s_cursorPosE+8(%rip), %rax
	.loc 1 98 21 view .LVU781
	addq	$1, %rax
	movq	%rax, _ZN6Kernel7Console11s_cursorPosE+8(%rip)
	.loc 1 99 37 view .LVU782
	movq	_ZN6Kernel7Console11s_cursorPosE+8(%rip), %rax
	.loc 1 99 21 view .LVU783
	cmpq	8(%r14), %rax
	jnb	.L268
.L254:
.LBE223:
	.loc 1 90 13 is_stmt 1 discriminator 2 view .LVU784
	.loc 1 90 39 discriminator 1 view .LVU785
	.loc 1 90 35 is_stmt 0 discriminator 1 view .LVU786
	addq	$1, %r13
	movzbl	0(%r13), %esi
	.loc 1 90 39 discriminator 1 view .LVU787
	testb	%sil, %sil
	je	.L244
.LVL385:
.L243:
.LBB224:
	.loc 1 92 42 view .LVU788
	movq	_ZN6Kernel7Console11s_cursorPosE+8(%rip), %rdi
	.loc 1 92 75 view .LVU789
	movq	_ZN6Kernel7Console11s_cursorPosE(%rip), %rax
.LVL386:
	.loc 1 93 26 view .LVU790
	movzbl	%sil, %esi
	.loc 1 92 44 view .LVU791
	imulq	%rbx, %rdi
.LVL387:
	.loc 1 92 24 view .LVU792
	addq	%rax, %rdi
.LVL388:
	.loc 1 93 26 view .LVU793
	movl	%r12d, %edx
	call	_ZN6Kernel7Console9writeCharEmhNS0_10AttributesE
.LVL389:
	.loc 1 94 31 view .LVU794
	movq	_ZN6Kernel7Console11s_cursorPosE(%rip), %rax
	.loc 1 94 17 view .LVU795
	addq	$1, %rax
	movq	%rax, _ZN6Kernel7Console11s_cursorPosE(%rip)
	.loc 1 95 33 view .LVU796
	movq	_ZN6Kernel7Console11s_cursorPosE(%rip), %rax
	.loc 1 95 53 view .LVU797
	cmpq	%rbx, %rax
	jnb	.L253
	.loc 1 95 53 discriminator 2 view .LVU798
	cmpb	$10, 0(%r13)
	jne	.L254
	jmp	.L253
.L268:
	.loc 1 100 35 view .LVU799
	movl	$1, %edi
	call	_ZN6Kernel7Console10scrollDownEm
.LVL390:
	jmp	.L254
.LVL391:
.L244:
	.loc 1 100 35 view .LVU800
.LBE224:
.LBE225:
	.loc 1 103 33 view .LVU801
	call	_ZN6Kernel7Console20updateHardwareCursorEv
.LVL392:
.L229:
.LBE226:
.LBE235:
	.loc 1 297 9 view .LVU802
	addq	$40, %rsp
	popq	%rbx
	.cfi_remember_state
	.cfi_restore 3
	popq	%r12
	.cfi_restore 12
.LVL393:
	.loc 1 297 9 view .LVU803
	popq	%r13
	.cfi_restore 13
	popq	%r14
	.cfi_restore 14
	popq	%r15
	.cfi_restore 15
	popq	%rbp
	.cfi_restore 6
	.cfi_def_cfa 7, 8
	ret
.LVL394:
.L231:
	.cfi_restore_state
	.loc 1 293 28 view .LVU804
	movzbl	%dil, %edi
	movl	%r12d, %esi
	call	_ZN6Kernel7Console7putCharEhNS0_10AttributesE
.LVL395:
	.loc 1 295 17 view .LVU805
	addq	$1, %rbx
.LVL396:
.L233:
	.loc 1 199 13 is_stmt 1 view .LVU806
	movzbl	(%rbx), %edi
	testb	%dil, %dil
	je	.L229
.L255:
	.loc 1 201 17 is_stmt 0 view .LVU807
	cmpb	$37, %dil
	jne	.L231
	.loc 1 201 33 discriminator 1 view .LVU808
	movzbl	1(%rbx), %eax
	testb	%al, %al
	je	.L231
.LVL397:
	.loc 1 203 21 view .LVU809
	cmpb	$37, %al
	je	.L269
	.loc 1 209 21 view .LVU810
	subl	$98, %eax
	cmpb	$22, %al
	ja	.L234
	movzbl	%al, %eax
	jmp	*.L236(,%rax,8)
	.section	.rodata._ZN6Kernel7Console9printImplIRPyJEEEvPKcNS0_10AttributesEOT_DpOT0_,"aG",@progbits,_ZN6Kernel7Console9printImplIRPyJEEEvPKcNS0_10AttributesEOT_DpOT0_,comdat
	.align 8
	.align 4
.L236:
	.quad	.L241
	.quad	.L240
	.quad	.L239
	.quad	.L234
	.quad	.L234
	.quad	.L234
	.quad	.L234
	.quad	.L234
	.quad	.L234
	.quad	.L234
	.quad	.L234
	.quad	.L234
	.quad	.L234
	.quad	.L234
	.quad	.L238
	.quad	.L234
	.quad	.L234
	.quad	.L237
	.quad	.L234
	.quad	.L234
	.quad	.L234
	.quad	.L234
	.quad	.L235
	.section	.text._ZN6Kernel7Console9printImplIRPyJEEEvPKcNS0_10AttributesEOT_DpOT0_,"axG",@progbits,_ZN6Kernel7Console9printImplIRPyJEEEvPKcNS0_10AttributesEOT_DpOT0_,comdat
.LVL398:
.L267:
.LBB236:
.LBB234:
	.loc 1 178 20 view .LVU811
	movl	$0, %r15d
	.loc 1 177 20 view .LVU812
	movl	$0, %r14d
	jmp	.L248
.LBE234:
.LBE236:
	.cfi_endproc
.LFE64:
	.size	_ZN6Kernel7Console9printImplIRPyJEEEvPKcNS0_10AttributesEOT_DpOT0_, .-_ZN6Kernel7Console9printImplIRPyJEEEvPKcNS0_10AttributesEOT_DpOT0_
	.section	.text._ZN6Kernel7Console9printImplIRPKcJEEEvS3_NS0_10AttributesEOT_DpOT0_,"axG",@progbits,_ZN6Kernel7Console9printImplIRPKcJEEEvS3_NS0_10AttributesEOT_DpOT0_,comdat
	.weak	_ZN6Kernel7Console9printImplIRPKcJEEEvS3_NS0_10AttributesEOT_DpOT0_
	.type	_ZN6Kernel7Console9printImplIRPKcJEEEvS3_NS0_10AttributesEOT_DpOT0_, @function
_ZN6Kernel7Console9printImplIRPKcJEEEvS3_NS0_10AttributesEOT_DpOT0_:
.LVL399:
.LFB75:
	.loc 1 197 21 is_stmt 1 view -0
	.cfi_startproc
	.loc 1 197 21 is_stmt 0 view .LVU814
	pushq	%rbp
	.cfi_def_cfa_offset 16
	.cfi_offset 6, -16
	movq	%rsp, %rbp
	.cfi_def_cfa_register 6
	pushq	%r15
	pushq	%r14
	pushq	%r13
	pushq	%r12
	pushq	%rbx
	subq	$40, %rsp
	.cfi_offset 15, -24
	.cfi_offset 14, -32
	.cfi_offset 13, -40
	.cfi_offset 12, -48
	.cfi_offset 3, -56
	movq	%rdi, %rbx
	movq	%rdx, %r13
	movl	%esi, %r12d
	.loc 1 199 13 is_stmt 1 view .LVU815
	movzbl	(%rdi), %edi
.LVL400:
	.loc 1 199 13 is_stmt 0 view .LVU816
	testb	%dil, %dil
	jne	.L296
	jmp	.L270
.LVL401:
.L310:
	.loc 1 205 32 view .LVU817
	movl	%r12d, %esi
	movl	$37, %edi
	call	_ZN6Kernel7Console7putCharEhNS0_10AttributesE
.LVL402:
	.loc 1 206 25 view .LVU818
	addq	$2, %rbx
.LVL403:
	.loc 1 207 25 view .LVU819
	jmp	.L274
.LVL404:
.L280:
	.loc 1 218 36 view .LVU820
	movl	%r12d, %esi
	movl	$37, %edi
	call	_ZN6Kernel7Console7putCharEhNS0_10AttributesE
.LVL405:
	.loc 1 219 36 view .LVU821
	movzbl	1(%rbx), %edi
	movl	%r12d, %esi
	call	_ZN6Kernel7Console7putCharEhNS0_10AttributesE
.LVL406:
.L283:
.LBB247:
.LBB248:
.LBB249:
	.loc 1 90 39 is_stmt 1 discriminator 1 view .LVU822
	.loc 1 90 35 is_stmt 0 discriminator 1 view .LVU823
	leaq	2(%rbx), %r13
	movzbl	2(%rbx), %esi
	.loc 1 90 39 discriminator 1 view .LVU824
	testb	%sil, %sil
	je	.L285
.LBB250:
	.loc 1 92 55 view .LVU825
	movq	$_ZN6Kernel7Console8s_extentE, %r14
	movq	(%r14), %rbx
	jmp	.L284
.LVL407:
.L282:
	.loc 1 92 55 view .LVU826
.LBE250:
.LBE249:
.LBE248:
.LBE247:
	.loc 1 229 36 view .LVU827
	movl	%r12d, %esi
	movl	$37, %edi
	call	_ZN6Kernel7Console7putCharEhNS0_10AttributesE
.LVL408:
	.loc 1 230 36 view .LVU828
	movzbl	1(%rbx), %edi
	movl	%r12d, %esi
	call	_ZN6Kernel7Console7putCharEhNS0_10AttributesE
.LVL409:
	.loc 1 232 25 view .LVU829
	jmp	.L283
.L276:
	.loc 1 240 36 view .LVU830
	movl	%r12d, %esi
	movl	$37, %edi
	call	_ZN6Kernel7Console7putCharEhNS0_10AttributesE
.LVL410:
	.loc 1 241 36 view .LVU831
	movzbl	1(%rbx), %edi
	movl	%r12d, %esi
	call	_ZN6Kernel7Console7putCharEhNS0_10AttributesE
.LVL411:
	.loc 1 243 25 view .LVU832
	jmp	.L283
.L281:
	.loc 1 251 36 view .LVU833
	movl	%r12d, %esi
	movl	$37, %edi
	call	_ZN6Kernel7Console7putCharEhNS0_10AttributesE
.LVL412:
	.loc 1 252 36 view .LVU834
	movzbl	1(%rbx), %edi
	movl	%r12d, %esi
	call	_ZN6Kernel7Console7putCharEhNS0_10AttributesE
.LVL413:
	.loc 1 254 25 view .LVU835
	jmp	.L283
.L279:
	.loc 1 258 38 view .LVU836
	movq	0(%r13), %r13
.LVL414:
.LBB255:
.LBI255:
	.loc 1 172 21 is_stmt 1 view .LVU837
.LBB256:
.LBB257:
.LBI257:
	.loc 1 87 21 view .LVU838
.LBB258:
.LBB259:
	.loc 1 90 39 discriminator 1 view .LVU839
	movq	$.LC1+1, %r15
	.loc 1 90 35 is_stmt 0 discriminator 1 view .LVU840
	movl	$48, %r14d
.LBB260:
	.loc 1 92 55 view .LVU841
	movq	$_ZN6Kernel7Console8s_extentE, %rax
	movq	(%rax), %rax
	movq	%rax, -56(%rbp)
	jmp	.L288
.LVL415:
.L299:
	.loc 1 97 35 view .LVU842
	movq	$0, _ZN6Kernel7Console11s_cursorPosE(%rip)
	.loc 1 98 35 view .LVU843
	movq	_ZN6Kernel7Console11s_cursorPosE+8(%rip), %rax
	.loc 1 98 21 view .LVU844
	addq	$1, %rax
	movq	%rax, _ZN6Kernel7Console11s_cursorPosE+8(%rip)
	.loc 1 99 37 view .LVU845
	movq	_ZN6Kernel7Console11s_cursorPosE+8(%rip), %rax
	.loc 1 99 21 view .LVU846
	movq	$_ZN6Kernel7Console8s_extentE, %rcx
	cmpq	8(%rcx), %rax
	jnb	.L306
.L286:
.LBE260:
	.loc 1 90 13 is_stmt 1 discriminator 2 view .LVU847
.LVL416:
	.loc 1 90 39 discriminator 1 view .LVU848
	addq	$1, %r15
.LVL417:
	.loc 1 90 35 is_stmt 0 discriminator 1 view .LVU849
	movzbl	-1(%r15), %r14d
	.loc 1 90 39 discriminator 1 view .LVU850
	testb	%r14b, %r14b
	je	.L307
.LVL418:
.L288:
.LBB261:
	.loc 1 92 42 view .LVU851
	movq	_ZN6Kernel7Console11s_cursorPosE+8(%rip), %rdi
	.loc 1 92 75 view .LVU852
	movq	_ZN6Kernel7Console11s_cursorPosE(%rip), %rax
.LVL419:
	.loc 1 93 26 view .LVU853
	movzbl	%r14b, %esi
	.loc 1 92 44 view .LVU854
	movq	-56(%rbp), %rcx
	imulq	%rcx, %rdi
.LVL420:
	.loc 1 92 24 view .LVU855
	addq	%rax, %rdi
.LVL421:
	.loc 1 93 26 view .LVU856
	movl	%r12d, %edx
	call	_ZN6Kernel7Console9writeCharEmhNS0_10AttributesE
.LVL422:
	.loc 1 94 31 view .LVU857
	movq	_ZN6Kernel7Console11s_cursorPosE(%rip), %rax
	.loc 1 94 17 view .LVU858
	addq	$1, %rax
	movq	%rax, _ZN6Kernel7Console11s_cursorPosE(%rip)
	.loc 1 95 33 view .LVU859
	movq	_ZN6Kernel7Console11s_cursorPosE(%rip), %rax
	.loc 1 95 53 discriminator 2 view .LVU860
	movq	-56(%rbp), %rcx
	cmpq	%rcx, %rax
	jnb	.L299
	cmpb	$10, %r14b
	je	.L299
	jmp	.L286
.L306:
	.loc 1 100 35 view .LVU861
	movl	$1, %edi
	call	_ZN6Kernel7Console10scrollDownEm
.LVL423:
	jmp	.L286
.LVL424:
.L307:
	.loc 1 100 35 view .LVU862
.LBE261:
.LBE259:
	.loc 1 103 33 view .LVU863
	call	_ZN6Kernel7Console20updateHardwareCursorEv
.LVL425:
	.loc 1 103 33 view .LVU864
.LBE258:
.LBE257:
	.loc 1 176 38 view .LVU865
	movq	_ZN6Kernel7Console11s_cursorPosE+8(%rip), %rax
	.loc 1 176 71 view .LVU866
	movq	_ZN6Kernel7Console11s_cursorPosE(%rip), %rdx
	.loc 1 176 40 view .LVU867
	movq	-56(%rbp), %rcx
	imulq	%rcx, %rax
	.loc 1 176 20 view .LVU868
	addq	%rdx, %rax
	movq	%rax, -72(%rbp)
.LVL426:
	.loc 1 179 22 is_stmt 1 discriminator 1 view .LVU869
	.loc 1 181 17 is_stmt 0 view .LVU870
	movq	%r13, %r15
	shrq	$60, %r15
	jne	.L308
.LVL427:
.L290:
	.loc 1 183 21 view .LVU871
	salq	$4, %r13
.LVL428:
	.loc 1 179 13 is_stmt 1 view .LVU872
	addq	$1, %r15
.LVL429:
	.loc 1 179 22 discriminator 1 view .LVU873
	cmpq	$16, %r15
	je	.L292
	.loc 1 181 17 is_stmt 0 view .LVU874
	movq	%r13, %rax
	shrq	$60, %rax
	je	.L290
	movq	%r15, %r14
.LVL430:
.L289:
	.loc 1 185 22 is_stmt 1 discriminator 1 view .LVU875
	.loc 1 185 22 is_stmt 0 discriminator 1 view .LVU876
	movq	-72(%rbp), %rax
	addq	%rax, %r14
.LVL431:
	.loc 1 185 22 discriminator 1 view .LVU877
	subq	%r15, %r14
	addq	$16, %rax
	subq	%r15, %rax
	movq	%rax, -64(%rbp)
.LVL432:
.L293:
	.loc 1 187 69 view .LVU878
	movq	%r13, %rax
	shrq	$60, %rax
	.loc 1 187 26 view .LVU879
	movzbl	.LC2(%rax), %esi
	movl	%r12d, %edx
	movq	%r14, %rdi
	call	_ZN6Kernel7Console9writeCharEmhNS0_10AttributesE
.LVL433:
	.loc 1 188 21 view .LVU880
	salq	$4, %r13
.LVL434:
	.loc 1 185 13 is_stmt 1 discriminator 2 view .LVU881
	.loc 1 185 22 discriminator 1 view .LVU882
	addq	$1, %r14
.LVL435:
	.loc 1 185 22 is_stmt 0 discriminator 1 view .LVU883
	movq	-64(%rbp), %rax
	cmpq	%rax, %r14
	jne	.L293
.LVL436:
.L292:
	.loc 1 190 43 view .LVU884
	movq	-72(%rbp), %rax
	addq	$16, %rax
	subq	%r15, %rax
	.loc 1 190 55 view .LVU885
	movl	$0, %edx
	divq	-56(%rbp)
	.loc 1 190 27 view .LVU886
	movq	%rdx, _ZN6Kernel7Console11s_cursorPosE(%rip)
	.loc 1 191 27 view .LVU887
	movq	%rax, _ZN6Kernel7Console11s_cursorPosE+8(%rip)
	.loc 1 192 33 view .LVU888
	call	_ZN6Kernel7Console20updateHardwareCursorEv
.LVL437:
	.loc 1 193 9 view .LVU889
	jmp	.L283
.LVL438:
.L278:
	.loc 1 193 9 view .LVU890
.LBE256:
.LBE255:
	.loc 1 274 36 view .LVU891
	movl	%r12d, %esi
	movl	$37, %edi
	call	_ZN6Kernel7Console7putCharEhNS0_10AttributesE
.LVL439:
	.loc 1 275 36 view .LVU892
	movzbl	1(%rbx), %edi
	movl	%r12d, %esi
	call	_ZN6Kernel7Console7putCharEhNS0_10AttributesE
.LVL440:
	.loc 1 277 25 view .LVU893
	jmp	.L283
.L275:
	.loc 1 279 32 view .LVU894
	movl	%r12d, %esi
	movl	$37, %edi
	call	_ZN6Kernel7Console7putCharEhNS0_10AttributesE
.LVL441:
	.loc 1 280 32 view .LVU895
	movzbl	1(%rbx), %edi
	movl	%r12d, %esi
	call	_ZN6Kernel7Console7putCharEhNS0_10AttributesE
.LVL442:
	.loc 1 281 25 view .LVU896
	addq	$2, %rbx
.LVL443:
	.loc 1 282 25 view .LVU897
	jmp	.L274
.LVL444:
.L294:
.LBB263:
.LBB254:
.LBB253:
.LBB251:
	.loc 1 97 35 view .LVU898
	movq	$0, _ZN6Kernel7Console11s_cursorPosE(%rip)
	.loc 1 98 35 view .LVU899
	movq	_ZN6Kernel7Console11s_cursorPosE+8(%rip), %rax
	.loc 1 98 21 view .LVU900
	addq	$1, %rax
	movq	%rax, _ZN6Kernel7Console11s_cursorPosE+8(%rip)
	.loc 1 99 37 view .LVU901
	movq	_ZN6Kernel7Console11s_cursorPosE+8(%rip), %rax
	.loc 1 99 21 view .LVU902
	cmpq	8(%r14), %rax
	jnb	.L309
.L295:
.LBE251:
	.loc 1 90 13 is_stmt 1 discriminator 2 view .LVU903
	.loc 1 90 39 discriminator 1 view .LVU904
	.loc 1 90 35 is_stmt 0 discriminator 1 view .LVU905
	addq	$1, %r13
	movzbl	0(%r13), %esi
	.loc 1 90 39 discriminator 1 view .LVU906
	testb	%sil, %sil
	je	.L285
.LVL445:
.L284:
.LBB252:
	.loc 1 92 42 view .LVU907
	movq	_ZN6Kernel7Console11s_cursorPosE+8(%rip), %rdi
	.loc 1 92 75 view .LVU908
	movq	_ZN6Kernel7Console11s_cursorPosE(%rip), %rax
.LVL446:
	.loc 1 93 26 view .LVU909
	movzbl	%sil, %esi
	.loc 1 92 44 view .LVU910
	imulq	%rbx, %rdi
.LVL447:
	.loc 1 92 24 view .LVU911
	addq	%rax, %rdi
.LVL448:
	.loc 1 93 26 view .LVU912
	movl	%r12d, %edx
	call	_ZN6Kernel7Console9writeCharEmhNS0_10AttributesE
.LVL449:
	.loc 1 94 31 view .LVU913
	movq	_ZN6Kernel7Console11s_cursorPosE(%rip), %rax
	.loc 1 94 17 view .LVU914
	addq	$1, %rax
	movq	%rax, _ZN6Kernel7Console11s_cursorPosE(%rip)
	.loc 1 95 33 view .LVU915
	movq	_ZN6Kernel7Console11s_cursorPosE(%rip), %rax
	.loc 1 95 53 view .LVU916
	cmpq	%rbx, %rax
	jnb	.L294
	.loc 1 95 53 discriminator 2 view .LVU917
	cmpb	$10, 0(%r13)
	jne	.L295
	jmp	.L294
.L309:
	.loc 1 100 35 view .LVU918
	movl	$1, %edi
	call	_ZN6Kernel7Console10scrollDownEm
.LVL450:
	jmp	.L295
.LVL451:
.L285:
	.loc 1 100 35 view .LVU919
.LBE252:
.LBE253:
	.loc 1 103 33 view .LVU920
	call	_ZN6Kernel7Console20updateHardwareCursorEv
.LVL452:
.L270:
.LBE254:
.LBE263:
	.loc 1 297 9 view .LVU921
	addq	$40, %rsp
	popq	%rbx
	.cfi_remember_state
	.cfi_restore 3
	popq	%r12
	.cfi_restore 12
.LVL453:
	.loc 1 297 9 view .LVU922
	popq	%r13
	.cfi_restore 13
	popq	%r14
	.cfi_restore 14
	popq	%r15
	.cfi_restore 15
	popq	%rbp
	.cfi_restore 6
	.cfi_def_cfa 7, 8
	ret
.LVL454:
.L272:
	.cfi_restore_state
	.loc 1 293 28 view .LVU923
	movzbl	%dil, %edi
	movl	%r12d, %esi
	call	_ZN6Kernel7Console7putCharEhNS0_10AttributesE
.LVL455:
	.loc 1 295 17 view .LVU924
	addq	$1, %rbx
.LVL456:
.L274:
	.loc 1 199 13 is_stmt 1 view .LVU925
	movzbl	(%rbx), %edi
	testb	%dil, %dil
	je	.L270
.L296:
	.loc 1 201 17 is_stmt 0 view .LVU926
	cmpb	$37, %dil
	jne	.L272
	.loc 1 201 33 discriminator 1 view .LVU927
	movzbl	1(%rbx), %eax
	testb	%al, %al
	je	.L272
.LVL457:
	.loc 1 203 21 view .LVU928
	cmpb	$37, %al
	je	.L310
	.loc 1 209 21 view .LVU929
	subl	$98, %eax
	cmpb	$22, %al
	ja	.L275
	movzbl	%al, %eax
	jmp	*.L277(,%rax,8)
	.section	.rodata._ZN6Kernel7Console9printImplIRPKcJEEEvS3_NS0_10AttributesEOT_DpOT0_,"aG",@progbits,_ZN6Kernel7Console9printImplIRPKcJEEEvS3_NS0_10AttributesEOT_DpOT0_,comdat
	.align 8
	.align 4
.L277:
	.quad	.L282
	.quad	.L281
	.quad	.L280
	.quad	.L275
	.quad	.L275
	.quad	.L275
	.quad	.L275
	.quad	.L275
	.quad	.L275
	.quad	.L275
	.quad	.L275
	.quad	.L275
	.quad	.L275
	.quad	.L275
	.quad	.L279
	.quad	.L275
	.quad	.L275
	.quad	.L278
	.quad	.L275
	.quad	.L275
	.quad	.L275
	.quad	.L275
	.quad	.L276
	.section	.text._ZN6Kernel7Console9printImplIRPKcJEEEvS3_NS0_10AttributesEOT_DpOT0_,"axG",@progbits,_ZN6Kernel7Console9printImplIRPKcJEEEvS3_NS0_10AttributesEOT_DpOT0_,comdat
.LVL458:
.L308:
.LBB264:
.LBB262:
	.loc 1 178 20 view .LVU930
	movl	$0, %r15d
	.loc 1 177 20 view .LVU931
	movl	$0, %r14d
	jmp	.L289
.LBE262:
.LBE264:
	.cfi_endproc
.LFE75:
	.size	_ZN6Kernel7Console9printImplIRPKcJEEEvS3_NS0_10AttributesEOT_DpOT0_, .-_ZN6Kernel7Console9printImplIRPKcJEEEvS3_NS0_10AttributesEOT_DpOT0_
	.section	.text._ZN6Kernel7Console9printImplIRjJRPKcEEEvS4_NS0_10AttributesEOT_DpOT0_,"axG",@progbits,_ZN6Kernel7Console9printImplIRjJRPKcEEEvS4_NS0_10AttributesEOT_DpOT0_,comdat
	.weak	_ZN6Kernel7Console9printImplIRjJRPKcEEEvS4_NS0_10AttributesEOT_DpOT0_
	.type	_ZN6Kernel7Console9printImplIRjJRPKcEEEvS4_NS0_10AttributesEOT_DpOT0_, @function
_ZN6Kernel7Console9printImplIRjJRPKcEEEvS4_NS0_10AttributesEOT_DpOT0_:
.LVL459:
.LFB59:
	.loc 1 197 21 is_stmt 1 view -0
	.cfi_startproc
	.loc 1 197 21 is_stmt 0 view .LVU933
	pushq	%rbp
	.cfi_def_cfa_offset 16
	.cfi_offset 6, -16
	movq	%rsp, %rbp
	.cfi_def_cfa_register 6
	pushq	%r15
	pushq	%r14
	pushq	%r13
	pushq	%r12
	pushq	%rbx
	subq	$40, %rsp
	.cfi_offset 15, -24
	.cfi_offset 14, -32
	.cfi_offset 13, -40
	.cfi_offset 12, -48
	.cfi_offset 3, -56
	movq	%rdi, %rbx
	movq	%rdx, %r12
	movq	%rcx, -56(%rbp)
	movl	%esi, %r15d
	.loc 1 199 13 is_stmt 1 view .LVU934
	movzbl	(%rdi), %eax
	testb	%al, %al
	jne	.L345
	jmp	.L311
.LVL460:
.L366:
	.loc 1 205 32 is_stmt 0 view .LVU935
	movl	%r15d, %esi
	movl	$37, %edi
	call	_ZN6Kernel7Console7putCharEhNS0_10AttributesE
.LVL461:
	.loc 1 206 25 view .LVU936
	addq	$2, %rbx
.LVL462:
	.loc 1 207 25 view .LVU937
	jmp	.L315
.LVL463:
.L321:
	.loc 1 214 38 view .LVU938
	movl	(%r12), %r13d
.LVL464:
.LBB280:
.LBI280:
	.loc 1 131 21 is_stmt 1 view .LVU939
.LBB281:
	.loc 1 133 13 is_stmt 0 view .LVU940
	testl	%r13d, %r13d
	je	.L360
	.loc 1 138 38 view .LVU941
	movq	_ZN6Kernel7Console11s_cursorPosE+8(%rip), %rax
	.loc 1 138 71 view .LVU942
	movq	_ZN6Kernel7Console11s_cursorPosE(%rip), %rdx
	.loc 1 138 40 view .LVU943
	imulq	_ZN6Kernel7Console8s_extentE(%rip), %rax
	.loc 1 138 20 view .LVU944
	addq	%rdx, %rax
.LVL465:
	.loc 1 147 24 is_stmt 1 view .LVU945
	.loc 1 145 20 is_stmt 0 view .LVU946
	movl	$0, %r14d
	.loc 1 149 50 view .LVU947
	movq	%rax, %r12
.LVL466:
	.loc 1 149 50 view .LVU948
	movq	%rbx, -64(%rbp)
.LVL467:
.L326:
	.loc 1 149 50 view .LVU949
	movl	%r13d, %ebx
	movl	$3435973837, %eax
	imulq	%rax, %rbx
	shrq	$35, %rbx
	leal	(%rbx,%rbx,4), %eax
	addl	%eax, %eax
	movl	%r13d, %esi
	subl	%eax, %esi
	.loc 1 149 44 view .LVU950
	addl	$48, %esi
	.loc 1 149 26 view .LVU951
	movzbl	%sil, %esi
	leaq	(%r12,%r14), %rdi
	movl	%r15d, %edx
	call	_ZN6Kernel7Console9writeCharEmhNS0_10AttributesE
.LVL468:
	movl	%r13d, %eax
	.loc 1 150 21 view .LVU952
	movl	%ebx, %r13d
.LVL469:
	.loc 1 151 17 view .LVU953
	addq	$1, %r14
.LVL470:
	.loc 1 147 24 is_stmt 1 view .LVU954
	cmpl	$9, %eax
	ja	.L326
.LBB282:
	.loc 1 156 42 is_stmt 0 discriminator 1 view .LVU955
	movq	%r12, %rax
	movq	-64(%rbp), %rbx
.LVL471:
	.loc 1 156 34 is_stmt 1 discriminator 1 view .LVU956
	.loc 1 156 42 is_stmt 0 discriminator 1 view .LVU957
	movq	%r14, %r11
	shrq	%r11
	.loc 1 156 34 discriminator 1 view .LVU958
	cmpq	$1, %r14
	jbe	.L327
.LVL472:
	.loc 1 156 34 discriminator 1 view .LVU959
	leaq	(%r12,%r14), %rdx
	leaq	-2(%rdx,%rdx), %rcx
	addq	%r12, %rdx
	.loc 1 156 25 view .LVU960
	movl	$0, %r8d
	.loc 1 160 83 view .LVU961
	leaq	-2(%rdx,%rdx), %r12
.LVL473:
.L328:
	.loc 1 158 68 view .LVU962
	movq	_ZN6Kernel7Console12s_vgaAddressE(%rip), %rsi
	leaq	(%rsi,%rcx), %r10
	.loc 1 158 70 view .LVU963
	movzbl	(%r10), %r9d
.LVL474:
	.loc 1 159 65 view .LVU964
	movzbl	1(%r10), %edi
.LVL475:
	.loc 1 160 83 view .LVU965
	movq	%r12, %rdx
	subq	%rcx, %rdx
	addq	%rdx, %rsi
	.loc 1 160 85 view .LVU966
	movzbl	(%rsi), %esi
	.loc 1 160 61 view .LVU967
	movb	%sil, (%r10)
	.loc 1 161 78 view .LVU968
	movq	_ZN6Kernel7Console12s_vgaAddressE(%rip), %rsi
	leaq	(%rsi,%rdx), %r10
	.loc 1 161 49 view .LVU969
	addq	%rcx, %rsi
	.loc 1 161 80 view .LVU970
	movzbl	1(%r10), %r10d
	.loc 1 161 56 view .LVU971
	movb	%r10b, 1(%rsi)
	.loc 1 162 37 view .LVU972
	movq	%rdx, %rsi
	addq	_ZN6Kernel7Console12s_vgaAddressE(%rip), %rsi
	.loc 1 162 49 view .LVU973
	movb	%r9b, (%rsi)
	.loc 1 163 37 view .LVU974
	addq	_ZN6Kernel7Console12s_vgaAddressE(%rip), %rdx
	.loc 1 163 44 view .LVU975
	movb	%dil, 1(%rdx)
	.loc 1 156 13 is_stmt 1 discriminator 3 view .LVU976
	addq	$1, %r8
.LVL476:
	.loc 1 156 34 discriminator 1 view .LVU977
	subq	$2, %rcx
	cmpq	%r11, %r8
	jb	.L328
.LVL477:
.L327:
	.loc 1 156 34 is_stmt 0 discriminator 1 view .LVU978
.LBE282:
	.loc 1 166 34 view .LVU979
	addq	%r14, %rax
.LVL478:
	.loc 1 166 43 view .LVU980
	movl	$0, %edx
	divq	_ZN6Kernel7Console8s_extentE(%rip)
	.loc 1 166 27 view .LVU981
	movq	%rdx, _ZN6Kernel7Console11s_cursorPosE(%rip)
	.loc 1 167 27 view .LVU982
	movq	%rax, _ZN6Kernel7Console11s_cursorPosE+8(%rip)
	.loc 1 168 33 view .LVU983
	call	_ZN6Kernel7Console20updateHardwareCursorEv
.LVL479:
	jmp	.L325
.LVL480:
.L360:
	.loc 1 135 24 view .LVU984
	movl	%r15d, %esi
	movl	$48, %edi
	call	_ZN6Kernel7Console7putCharEhNS0_10AttributesE
.LVL481:
	jmp	.L325
.LVL482:
.L323:
	.loc 1 135 24 view .LVU985
.LBE281:
.LBE280:
	.loc 1 225 38 view .LVU986
	movl	(%r12), %r12d
.LVL483:
.LBB283:
.LBI283:
	.loc 1 107 21 is_stmt 1 view .LVU987
.LBB284:
.LBB285:
.LBI285:
	.loc 1 87 21 view .LVU988
.LBB286:
.LBB287:
	.loc 1 90 39 discriminator 1 view .LVU989
	movq	$.LC0+1, %r14
	.loc 1 90 35 is_stmt 0 discriminator 1 view .LVU990
	movl	$48, %r13d
.LBB288:
	.loc 1 92 55 view .LVU991
	movq	$_ZN6Kernel7Console8s_extentE, %rax
	movq	(%rax), %rax
	movq	%rax, -64(%rbp)
	movl	%r12d, -72(%rbp)
	movq	%rax, %r12
.LVL484:
	.loc 1 92 55 view .LVU992
	jmp	.L331
.LVL485:
.L350:
	.loc 1 97 35 view .LVU993
	movq	$0, _ZN6Kernel7Console11s_cursorPosE(%rip)
	.loc 1 98 35 view .LVU994
	movq	_ZN6Kernel7Console11s_cursorPosE+8(%rip), %rax
	.loc 1 98 21 view .LVU995
	addq	$1, %rax
	movq	%rax, _ZN6Kernel7Console11s_cursorPosE+8(%rip)
	.loc 1 99 37 view .LVU996
	movq	_ZN6Kernel7Console11s_cursorPosE+8(%rip), %rax
	.loc 1 99 21 view .LVU997
	movq	$_ZN6Kernel7Console8s_extentE, %rcx
	cmpq	8(%rcx), %rax
	jnb	.L361
.L329:
.LBE288:
	.loc 1 90 13 is_stmt 1 discriminator 2 view .LVU998
.LVL486:
	.loc 1 90 39 discriminator 1 view .LVU999
	addq	$1, %r14
.LVL487:
	.loc 1 90 35 is_stmt 0 discriminator 1 view .LVU1000
	movzbl	-1(%r14), %r13d
	.loc 1 90 39 discriminator 1 view .LVU1001
	testb	%r13b, %r13b
	je	.L362
.LVL488:
.L331:
.LBB289:
	.loc 1 92 42 view .LVU1002
	movq	_ZN6Kernel7Console11s_cursorPosE+8(%rip), %rdi
	.loc 1 92 75 view .LVU1003
	movq	_ZN6Kernel7Console11s_cursorPosE(%rip), %rax
.LVL489:
	.loc 1 93 26 view .LVU1004
	movzbl	%r13b, %esi
	.loc 1 92 44 view .LVU1005
	imulq	%r12, %rdi
.LVL490:
	.loc 1 92 24 view .LVU1006
	addq	%rax, %rdi
.LVL491:
	.loc 1 93 26 view .LVU1007
	movl	%r15d, %edx
	call	_ZN6Kernel7Console9writeCharEmhNS0_10AttributesE
.LVL492:
	.loc 1 94 31 view .LVU1008
	movq	_ZN6Kernel7Console11s_cursorPosE(%rip), %rax
	.loc 1 94 17 view .LVU1009
	addq	$1, %rax
	movq	%rax, _ZN6Kernel7Console11s_cursorPosE(%rip)
	.loc 1 95 33 view .LVU1010
	movq	_ZN6Kernel7Console11s_cursorPosE(%rip), %rax
	.loc 1 95 53 discriminator 2 view .LVU1011
	cmpq	%r12, %rax
	jnb	.L350
	cmpb	$10, %r13b
	je	.L350
	jmp	.L329
.L361:
	.loc 1 100 35 view .LVU1012
	movl	$1, %edi
	call	_ZN6Kernel7Console10scrollDownEm
.LVL493:
	jmp	.L329
.LVL494:
.L362:
	.loc 1 100 35 view .LVU1013
.LBE289:
.LBE287:
	.loc 1 103 33 view .LVU1014
	movl	-72(%rbp), %r12d
	call	_ZN6Kernel7Console20updateHardwareCursorEv
.LVL495:
	.loc 1 103 33 view .LVU1015
.LBE286:
.LBE285:
	.loc 1 111 38 view .LVU1016
	movq	_ZN6Kernel7Console11s_cursorPosE+8(%rip), %rax
	.loc 1 111 71 view .LVU1017
	movq	_ZN6Kernel7Console11s_cursorPosE(%rip), %rdx
	.loc 1 111 40 view .LVU1018
	movq	-64(%rbp), %rcx
	imulq	%rcx, %rax
	.loc 1 111 20 view .LVU1019
	addq	%rdx, %rax
.LVL496:
	.loc 1 114 22 is_stmt 1 discriminator 1 view .LVU1020
	.loc 1 116 17 is_stmt 0 view .LVU1021
	testl	%r12d, %r12d
	js	.L346
	.loc 1 112 20 view .LVU1022
	movl	$0, %r13d
.LVL497:
.L333:
	.loc 1 118 21 view .LVU1023
	addl	%r12d, %r12d
.LVL498:
	.loc 1 114 13 is_stmt 1 view .LVU1024
	addq	$1, %r13
.LVL499:
	.loc 1 114 22 discriminator 1 view .LVU1025
	cmpq	$32, %r13
	je	.L363
	.loc 1 116 17 is_stmt 0 view .LVU1026
	testl	%r12d, %r12d
	jns	.L333
	movq	%r13, %rdx
.LVL500:
.L332:
	.loc 1 120 22 is_stmt 1 discriminator 1 view .LVU1027
	.loc 1 120 22 is_stmt 0 discriminator 1 view .LVU1028
	addq	%rax, %r13
.LVL501:
	.loc 1 120 22 discriminator 1 view .LVU1029
	subq	%rdx, %r13
	leaq	32(%rax), %r14
	subq	%rdx, %r14
	movq	%rax, -72(%rbp)
	movq	%rdx, -80(%rbp)
.LVL502:
.L336:
	.loc 1 122 56 view .LVU1030
	movl	%r12d, %eax
	shrl	$31, %eax
	.loc 1 122 26 view .LVU1031
	leal	48(%rax), %esi
	movl	%r15d, %edx
	movq	%r13, %rdi
	call	_ZN6Kernel7Console9writeCharEmhNS0_10AttributesE
.LVL503:
	.loc 1 123 21 view .LVU1032
	addl	%r12d, %r12d
.LVL504:
	.loc 1 120 13 is_stmt 1 discriminator 2 view .LVU1033
	.loc 1 120 22 discriminator 1 view .LVU1034
	addq	$1, %r13
.LVL505:
	.loc 1 120 22 is_stmt 0 discriminator 1 view .LVU1035
	cmpq	%r14, %r13
	jne	.L336
	movq	-72(%rbp), %rax
	movq	-80(%rbp), %rdx
.LVL506:
.L335:
	.loc 1 125 43 view .LVU1036
	addq	$32, %rax
	subq	%rdx, %rax
	.loc 1 125 51 view .LVU1037
	movl	$0, %edx
	divq	-64(%rbp)
	.loc 1 125 27 view .LVU1038
	movq	%rdx, _ZN6Kernel7Console11s_cursorPosE(%rip)
	.loc 1 126 27 view .LVU1039
	movq	%rax, _ZN6Kernel7Console11s_cursorPosE+8(%rip)
	.loc 1 127 33 view .LVU1040
	call	_ZN6Kernel7Console20updateHardwareCursorEv
.LVL507:
.L325:
	.loc 1 127 33 view .LVU1041
.LBE284:
.LBE283:
	.loc 1 284 21 view .LVU1042
	leaq	2(%rbx), %rdi
.LVL508:
	.loc 1 286 34 view .LVU1043
	movq	-56(%rbp), %rdx
	movl	%r15d, %esi
	call	_ZN6Kernel7Console9printImplIRPKcJEEEvS3_NS0_10AttributesEOT_DpOT0_
.LVL509:
.L311:
	.loc 1 297 9 view .LVU1044
	addq	$40, %rsp
	popq	%rbx
	.cfi_remember_state
	.cfi_restore 3
	popq	%r12
	.cfi_restore 12
	popq	%r13
	.cfi_restore 13
	popq	%r14
	.cfi_restore 14
	popq	%r15
	.cfi_restore 15
.LVL510:
	.loc 1 297 9 view .LVU1045
	popq	%rbp
	.cfi_restore 6
	.cfi_def_cfa 7, 8
	ret
.LVL511:
.L363:
	.cfi_restore_state
.LBB292:
.LBB290:
	.loc 1 297 9 view .LVU1046
	movq	%r13, %rdx
	jmp	.L335
.LVL512:
.L317:
	.loc 1 297 9 view .LVU1047
.LBE290:
.LBE292:
	.loc 1 236 38 view .LVU1048
	movl	(%r12), %r12d
.LVL513:
.LBB293:
.LBI293:
	.loc 1 172 21 is_stmt 1 view .LVU1049
.LBB294:
.LBB295:
.LBI295:
	.loc 1 87 21 view .LVU1050
.LBB296:
.LBB297:
	.loc 1 90 39 discriminator 1 view .LVU1051
	movq	$.LC1+1, %r14
	.loc 1 90 35 is_stmt 0 discriminator 1 view .LVU1052
	movl	$48, %r13d
.LBB298:
	.loc 1 92 55 view .LVU1053
	movq	$_ZN6Kernel7Console8s_extentE, %rax
	movq	(%rax), %rax
	movq	%rax, -64(%rbp)
	movl	%r12d, -72(%rbp)
	movq	%rax, %r12
.LVL514:
	.loc 1 92 55 view .LVU1054
	jmp	.L339
.LVL515:
.L351:
	.loc 1 97 35 view .LVU1055
	movq	$0, _ZN6Kernel7Console11s_cursorPosE(%rip)
	.loc 1 98 35 view .LVU1056
	movq	_ZN6Kernel7Console11s_cursorPosE+8(%rip), %rax
	.loc 1 98 21 view .LVU1057
	addq	$1, %rax
	movq	%rax, _ZN6Kernel7Console11s_cursorPosE+8(%rip)
	.loc 1 99 37 view .LVU1058
	movq	_ZN6Kernel7Console11s_cursorPosE+8(%rip), %rax
	.loc 1 99 21 view .LVU1059
	movq	$_ZN6Kernel7Console8s_extentE, %rcx
	cmpq	8(%rcx), %rax
	jnb	.L364
.L337:
.LBE298:
	.loc 1 90 13 is_stmt 1 discriminator 2 view .LVU1060
.LVL516:
	.loc 1 90 39 discriminator 1 view .LVU1061
	addq	$1, %r14
.LVL517:
	.loc 1 90 35 is_stmt 0 discriminator 1 view .LVU1062
	movzbl	-1(%r14), %r13d
	.loc 1 90 39 discriminator 1 view .LVU1063
	testb	%r13b, %r13b
	je	.L365
.LVL518:
.L339:
.LBB299:
	.loc 1 92 42 view .LVU1064
	movq	_ZN6Kernel7Console11s_cursorPosE+8(%rip), %rdi
	.loc 1 92 75 view .LVU1065
	movq	_ZN6Kernel7Console11s_cursorPosE(%rip), %rax
.LVL519:
	.loc 1 93 26 view .LVU1066
	movzbl	%r13b, %esi
	.loc 1 92 44 view .LVU1067
	imulq	%r12, %rdi
.LVL520:
	.loc 1 92 24 view .LVU1068
	addq	%rax, %rdi
.LVL521:
	.loc 1 93 26 view .LVU1069
	movl	%r15d, %edx
	call	_ZN6Kernel7Console9writeCharEmhNS0_10AttributesE
.LVL522:
	.loc 1 94 31 view .LVU1070
	movq	_ZN6Kernel7Console11s_cursorPosE(%rip), %rax
	.loc 1 94 17 view .LVU1071
	addq	$1, %rax
	movq	%rax, _ZN6Kernel7Console11s_cursorPosE(%rip)
	.loc 1 95 33 view .LVU1072
	movq	_ZN6Kernel7Console11s_cursorPosE(%rip), %rax
	.loc 1 95 53 discriminator 2 view .LVU1073
	cmpq	%r12, %rax
	jnb	.L351
	cmpb	$10, %r13b
	je	.L351
	jmp	.L337
.L364:
	.loc 1 100 35 view .LVU1074
	movl	$1, %edi
	call	_ZN6Kernel7Console10scrollDownEm
.LVL523:
	jmp	.L337
.LVL524:
.L365:
	.loc 1 100 35 view .LVU1075
.LBE299:
.LBE297:
	.loc 1 103 33 view .LVU1076
	movl	-72(%rbp), %r12d
	call	_ZN6Kernel7Console20updateHardwareCursorEv
.LVL525:
	.loc 1 103 33 view .LVU1077
.LBE296:
.LBE295:
	.loc 1 176 38 view .LVU1078
	movq	_ZN6Kernel7Console11s_cursorPosE+8(%rip), %rax
	.loc 1 176 71 view .LVU1079
	movq	_ZN6Kernel7Console11s_cursorPosE(%rip), %rdx
	.loc 1 176 40 view .LVU1080
	movq	-64(%rbp), %rcx
	imulq	%rcx, %rax
	.loc 1 176 20 view .LVU1081
	addq	%rdx, %rax
.LVL526:
	.loc 1 179 22 is_stmt 1 discriminator 1 view .LVU1082
	.loc 1 181 17 is_stmt 0 view .LVU1083
	movl	%r12d, %ecx
	shrl	$28, %ecx
	jne	.L348
	.loc 1 177 20 view .LVU1084
	movl	$0, %edx
.LVL527:
.L341:
	.loc 1 183 21 view .LVU1085
	sall	$4, %r12d
.LVL528:
	.loc 1 179 13 is_stmt 1 view .LVU1086
	addq	$1, %rdx
.LVL529:
	.loc 1 179 22 discriminator 1 view .LVU1087
	cmpq	$8, %rdx
	je	.L343
	.loc 1 181 17 is_stmt 0 view .LVU1088
	movl	%r12d, %ecx
	shrl	$28, %ecx
	je	.L341
	movq	%rdx, %r13
.LVL530:
.L340:
	.loc 1 185 22 is_stmt 1 discriminator 1 view .LVU1089
	.loc 1 185 22 is_stmt 0 discriminator 1 view .LVU1090
	addq	%rax, %r13
.LVL531:
	.loc 1 185 22 discriminator 1 view .LVU1091
	subq	%rdx, %r13
	leaq	8(%rax), %r14
	subq	%rdx, %r14
	movq	%rdx, -72(%rbp)
	movq	%rax, -80(%rbp)
.LVL532:
.L344:
	.loc 1 187 69 view .LVU1092
	movl	%r12d, %eax
	shrl	$28, %eax
	.loc 1 187 63 view .LVU1093
	movl	%eax, %eax
	.loc 1 187 26 view .LVU1094
	movzbl	.LC2(%rax), %esi
	movl	%r15d, %edx
	movq	%r13, %rdi
	call	_ZN6Kernel7Console9writeCharEmhNS0_10AttributesE
.LVL533:
	.loc 1 188 21 view .LVU1095
	sall	$4, %r12d
.LVL534:
	.loc 1 185 13 is_stmt 1 discriminator 2 view .LVU1096
	.loc 1 185 22 discriminator 1 view .LVU1097
	addq	$1, %r13
.LVL535:
	.loc 1 185 22 is_stmt 0 discriminator 1 view .LVU1098
	cmpq	%r14, %r13
	jne	.L344
	movq	-72(%rbp), %rdx
	movq	-80(%rbp), %rax
.LVL536:
.L343:
	.loc 1 190 43 view .LVU1099
	addq	$8, %rax
	subq	%rdx, %rax
	.loc 1 190 55 view .LVU1100
	movl	$0, %edx
	divq	-64(%rbp)
	.loc 1 190 27 view .LVU1101
	movq	%rdx, _ZN6Kernel7Console11s_cursorPosE(%rip)
	.loc 1 191 27 view .LVU1102
	movq	%rax, _ZN6Kernel7Console11s_cursorPosE+8(%rip)
	.loc 1 192 33 view .LVU1103
	call	_ZN6Kernel7Console20updateHardwareCursorEv
.LVL537:
	.loc 1 193 9 view .LVU1104
	jmp	.L325
.LVL538:
.L322:
	.loc 1 193 9 view .LVU1105
.LBE294:
.LBE293:
	.loc 1 251 36 view .LVU1106
	movl	%r15d, %esi
	movl	$37, %edi
	call	_ZN6Kernel7Console7putCharEhNS0_10AttributesE
.LVL539:
	.loc 1 252 36 view .LVU1107
	movzbl	1(%rbx), %edi
	movl	%r15d, %esi
	call	_ZN6Kernel7Console7putCharEhNS0_10AttributesE
.LVL540:
	.loc 1 254 25 view .LVU1108
	jmp	.L325
.L320:
	.loc 1 262 36 view .LVU1109
	movl	%r15d, %esi
	movl	$37, %edi
	call	_ZN6Kernel7Console7putCharEhNS0_10AttributesE
.LVL541:
	.loc 1 263 36 view .LVU1110
	movzbl	1(%rbx), %edi
	movl	%r15d, %esi
	call	_ZN6Kernel7Console7putCharEhNS0_10AttributesE
.LVL542:
	.loc 1 265 25 view .LVU1111
	jmp	.L325
.L319:
	.loc 1 274 36 view .LVU1112
	movl	%r15d, %esi
	movl	$37, %edi
	call	_ZN6Kernel7Console7putCharEhNS0_10AttributesE
.LVL543:
	.loc 1 275 36 view .LVU1113
	movzbl	1(%rbx), %edi
	movl	%r15d, %esi
	call	_ZN6Kernel7Console7putCharEhNS0_10AttributesE
.LVL544:
	.loc 1 277 25 view .LVU1114
	jmp	.L325
.L316:
	.loc 1 279 32 view .LVU1115
	movl	%r15d, %esi
	movl	$37, %edi
	call	_ZN6Kernel7Console7putCharEhNS0_10AttributesE
.LVL545:
	.loc 1 280 32 view .LVU1116
	movzbl	1(%rbx), %edi
	movl	%r15d, %esi
	call	_ZN6Kernel7Console7putCharEhNS0_10AttributesE
.LVL546:
	.loc 1 281 25 view .LVU1117
	addq	$2, %rbx
.LVL547:
	.loc 1 282 25 view .LVU1118
	jmp	.L315
.L313:
	.loc 1 293 28 view .LVU1119
	movzbl	%al, %edi
	movl	%r15d, %esi
	call	_ZN6Kernel7Console7putCharEhNS0_10AttributesE
.LVL548:
	.loc 1 295 17 view .LVU1120
	addq	$1, %rbx
.LVL549:
.L315:
	.loc 1 199 13 is_stmt 1 view .LVU1121
	movzbl	(%rbx), %eax
	testb	%al, %al
	je	.L311
.L345:
	.loc 1 201 17 is_stmt 0 view .LVU1122
	cmpb	$37, %al
	jne	.L313
	.loc 1 201 33 discriminator 1 view .LVU1123
	movzbl	1(%rbx), %edx
	testb	%dl, %dl
	je	.L313
.LVL550:
	.loc 1 203 21 view .LVU1124
	cmpb	$37, %dl
	je	.L366
	.loc 1 209 21 view .LVU1125
	subl	$98, %edx
	cmpb	$22, %dl
	ja	.L316
	movzbl	%dl, %edx
	jmp	*.L318(,%rdx,8)
	.section	.rodata._ZN6Kernel7Console9printImplIRjJRPKcEEEvS4_NS0_10AttributesEOT_DpOT0_,"aG",@progbits,_ZN6Kernel7Console9printImplIRjJRPKcEEEvS4_NS0_10AttributesEOT_DpOT0_,comdat
	.align 8
	.align 4
.L318:
	.quad	.L323
	.quad	.L322
	.quad	.L321
	.quad	.L316
	.quad	.L316
	.quad	.L316
	.quad	.L316
	.quad	.L316
	.quad	.L316
	.quad	.L316
	.quad	.L316
	.quad	.L316
	.quad	.L316
	.quad	.L316
	.quad	.L320
	.quad	.L316
	.quad	.L316
	.quad	.L319
	.quad	.L316
	.quad	.L316
	.quad	.L316
	.quad	.L316
	.quad	.L317
	.section	.text._ZN6Kernel7Console9printImplIRjJRPKcEEEvS4_NS0_10AttributesEOT_DpOT0_,"axG",@progbits,_ZN6Kernel7Console9printImplIRjJRPKcEEEvS4_NS0_10AttributesEOT_DpOT0_,comdat
.LVL551:
.L346:
.LBB301:
.LBB291:
	.loc 1 113 20 view .LVU1126
	movl	$0, %edx
	.loc 1 112 20 view .LVU1127
	movl	$0, %r13d
	jmp	.L332
.LVL552:
.L348:
	.loc 1 112 20 view .LVU1128
.LBE291:
.LBE301:
.LBB302:
.LBB300:
	.loc 1 178 20 view .LVU1129
	movl	$0, %edx
	.loc 1 177 20 view .LVU1130
	movl	$0, %r13d
	jmp	.L340
.LBE300:
.LBE302:
	.cfi_endproc
.LFE59:
	.size	_ZN6Kernel7Console9printImplIRjJRPKcEEEvS4_NS0_10AttributesEOT_DpOT0_, .-_ZN6Kernel7Console9printImplIRjJRPKcEEEvS4_NS0_10AttributesEOT_DpOT0_
	.section	.text._ZN6Kernel7Console9printImplIRjJEEEvPKcNS0_10AttributesEOT_DpOT0_,"axG",@progbits,_ZN6Kernel7Console9printImplIRjJEEEvPKcNS0_10AttributesEOT_DpOT0_,comdat
	.weak	_ZN6Kernel7Console9printImplIRjJEEEvPKcNS0_10AttributesEOT_DpOT0_
	.type	_ZN6Kernel7Console9printImplIRjJEEEvPKcNS0_10AttributesEOT_DpOT0_, @function
_ZN6Kernel7Console9printImplIRjJEEEvPKcNS0_10AttributesEOT_DpOT0_:
.LVL553:
.LFB76:
	.loc 1 197 21 is_stmt 1 view -0
	.cfi_startproc
	.loc 1 197 21 is_stmt 0 view .LVU1132
	pushq	%rbp
	.cfi_def_cfa_offset 16
	.cfi_offset 6, -16
	movq	%rsp, %rbp
	.cfi_def_cfa_register 6
	pushq	%r15
	pushq	%r14
	pushq	%r13
	pushq	%r12
	pushq	%rbx
	subq	$40, %rsp
	.cfi_offset 15, -24
	.cfi_offset 14, -32
	.cfi_offset 13, -40
	.cfi_offset 12, -48
	.cfi_offset 3, -56
	movq	%rdi, %r12
	movq	%rdx, %r13
	movl	%esi, %ebx
	.loc 1 199 13 is_stmt 1 view .LVU1133
	movzbl	(%rdi), %edi
.LVL554:
	.loc 1 199 13 is_stmt 0 view .LVU1134
	testb	%dil, %dil
	jne	.L405
	jmp	.L367
.LVL555:
.L429:
	.loc 1 205 32 view .LVU1135
	movl	%ebx, %esi
	movl	$37, %edi
	call	_ZN6Kernel7Console7putCharEhNS0_10AttributesE
.LVL556:
	.loc 1 206 25 view .LVU1136
	addq	$2, %r12
.LVL557:
	.loc 1 207 25 view .LVU1137
	jmp	.L371
.LVL558:
.L377:
	.loc 1 214 38 view .LVU1138
	movl	0(%r13), %r14d
.LVL559:
.LBB322:
.LBI322:
	.loc 1 131 21 is_stmt 1 view .LVU1139
.LBB323:
	.loc 1 133 13 is_stmt 0 view .LVU1140
	testl	%r14d, %r14d
	je	.L422
	.loc 1 138 38 view .LVU1141
	movq	_ZN6Kernel7Console11s_cursorPosE+8(%rip), %rax
	.loc 1 138 71 view .LVU1142
	movq	_ZN6Kernel7Console11s_cursorPosE(%rip), %rdx
	.loc 1 138 40 view .LVU1143
	imulq	_ZN6Kernel7Console8s_extentE(%rip), %rax
	.loc 1 138 20 view .LVU1144
	addq	%rdx, %rax
	movq	%rax, -56(%rbp)
.LVL560:
	.loc 1 147 24 is_stmt 1 view .LVU1145
	.loc 1 145 20 is_stmt 0 view .LVU1146
	movl	$0, %r15d
.LVL561:
.L382:
	.loc 1 149 50 view .LVU1147
	movl	%r14d, %r13d
	movl	$3435973837, %eax
	imulq	%rax, %r13
	shrq	$35, %r13
	leal	0(%r13,%r13,4), %eax
	addl	%eax, %eax
	movl	%r14d, %esi
	subl	%eax, %esi
	.loc 1 149 44 view .LVU1148
	addl	$48, %esi
	.loc 1 149 26 view .LVU1149
	movzbl	%sil, %esi
	movq	-56(%rbp), %rax
	leaq	(%rax,%r15), %rdi
	movl	%ebx, %edx
	call	_ZN6Kernel7Console9writeCharEmhNS0_10AttributesE
.LVL562:
	movl	%r14d, %eax
	.loc 1 150 21 view .LVU1150
	movl	%r13d, %r14d
.LVL563:
	.loc 1 151 17 view .LVU1151
	addq	$1, %r15
.LVL564:
	.loc 1 147 24 is_stmt 1 view .LVU1152
	cmpl	$9, %eax
	ja	.L382
.LVL565:
.LBB324:
	.loc 1 156 34 discriminator 1 view .LVU1153
	.loc 1 156 42 is_stmt 0 discriminator 1 view .LVU1154
	movq	%r15, %r9
	shrq	%r9
	.loc 1 156 34 discriminator 1 view .LVU1155
	cmpq	$1, %r15
	jbe	.L383
	movq	-56(%rbp), %rcx
	leaq	(%rcx,%r15), %rax
	leaq	-2(%rax,%rax), %rdx
	addq	%rcx, %rax
	.loc 1 156 25 view .LVU1156
	movl	$0, %edi
	.loc 1 160 83 view .LVU1157
	leaq	-2(%rax,%rax), %r10
.LVL566:
.L384:
	.loc 1 158 68 view .LVU1158
	movq	_ZN6Kernel7Console12s_vgaAddressE(%rip), %rcx
	leaq	(%rcx,%rdx), %rsi
	.loc 1 158 70 view .LVU1159
	movzbl	(%rsi), %r11d
.LVL567:
	.loc 1 159 65 view .LVU1160
	movzbl	1(%rsi), %r8d
.LVL568:
	.loc 1 160 83 view .LVU1161
	movq	%r10, %rax
	subq	%rdx, %rax
	addq	%rax, %rcx
	.loc 1 160 85 view .LVU1162
	movzbl	(%rcx), %ecx
	.loc 1 160 61 view .LVU1163
	movb	%cl, (%rsi)
	.loc 1 161 78 view .LVU1164
	movq	_ZN6Kernel7Console12s_vgaAddressE(%rip), %rcx
	leaq	(%rcx,%rax), %rsi
	.loc 1 161 49 view .LVU1165
	addq	%rdx, %rcx
	.loc 1 161 80 view .LVU1166
	movzbl	1(%rsi), %esi
	.loc 1 161 56 view .LVU1167
	movb	%sil, 1(%rcx)
	.loc 1 162 37 view .LVU1168
	movq	%rax, %rcx
	addq	_ZN6Kernel7Console12s_vgaAddressE(%rip), %rcx
	.loc 1 162 49 view .LVU1169
	movb	%r11b, (%rcx)
	.loc 1 163 37 view .LVU1170
	addq	_ZN6Kernel7Console12s_vgaAddressE(%rip), %rax
	.loc 1 163 44 view .LVU1171
	movb	%r8b, 1(%rax)
	.loc 1 156 13 is_stmt 1 discriminator 3 view .LVU1172
	addq	$1, %rdi
.LVL569:
	.loc 1 156 34 discriminator 1 view .LVU1173
	subq	$2, %rdx
	cmpq	%r9, %rdi
	jb	.L384
.LVL570:
.L383:
	.loc 1 156 34 is_stmt 0 discriminator 1 view .LVU1174
.LBE324:
	.loc 1 166 34 view .LVU1175
	movq	-56(%rbp), %rax
	addq	%r15, %rax
	.loc 1 166 43 view .LVU1176
	movl	$0, %edx
	divq	_ZN6Kernel7Console8s_extentE(%rip)
	.loc 1 166 27 view .LVU1177
	movq	%rdx, _ZN6Kernel7Console11s_cursorPosE(%rip)
	.loc 1 167 27 view .LVU1178
	movq	%rax, _ZN6Kernel7Console11s_cursorPosE+8(%rip)
	.loc 1 168 33 view .LVU1179
	call	_ZN6Kernel7Console20updateHardwareCursorEv
.LVL571:
	jmp	.L381
.LVL572:
.L422:
	.loc 1 135 24 view .LVU1180
	movl	%ebx, %esi
	movl	$48, %edi
	call	_ZN6Kernel7Console7putCharEhNS0_10AttributesE
.LVL573:
	jmp	.L381
.LVL574:
.L379:
	.loc 1 135 24 view .LVU1181
.LBE323:
.LBE322:
	.loc 1 225 38 view .LVU1182
	movl	0(%r13), %r13d
.LVL575:
.LBB325:
.LBI325:
	.loc 1 107 21 is_stmt 1 view .LVU1183
.LBB326:
.LBB327:
.LBI327:
	.loc 1 87 21 view .LVU1184
.LBB328:
.LBB329:
	.loc 1 90 39 discriminator 1 view .LVU1185
	movq	$.LC0+1, %r15
	.loc 1 90 35 is_stmt 0 discriminator 1 view .LVU1186
	movl	$48, %r14d
.LBB330:
	.loc 1 92 55 view .LVU1187
	movq	$_ZN6Kernel7Console8s_extentE, %rax
	movq	(%rax), %rax
	movq	%rax, -56(%rbp)
	jmp	.L387
.LVL576:
.L410:
	.loc 1 97 35 view .LVU1188
	movq	$0, _ZN6Kernel7Console11s_cursorPosE(%rip)
	.loc 1 98 35 view .LVU1189
	movq	_ZN6Kernel7Console11s_cursorPosE+8(%rip), %rax
	.loc 1 98 21 view .LVU1190
	addq	$1, %rax
	movq	%rax, _ZN6Kernel7Console11s_cursorPosE+8(%rip)
	.loc 1 99 37 view .LVU1191
	movq	_ZN6Kernel7Console11s_cursorPosE+8(%rip), %rax
	.loc 1 99 21 view .LVU1192
	movq	$_ZN6Kernel7Console8s_extentE, %rdx
	cmpq	8(%rdx), %rax
	jnb	.L423
.L385:
.LBE330:
	.loc 1 90 13 is_stmt 1 discriminator 2 view .LVU1193
.LVL577:
	.loc 1 90 39 discriminator 1 view .LVU1194
	addq	$1, %r15
.LVL578:
	.loc 1 90 35 is_stmt 0 discriminator 1 view .LVU1195
	movzbl	-1(%r15), %r14d
	.loc 1 90 39 discriminator 1 view .LVU1196
	testb	%r14b, %r14b
	je	.L424
.LVL579:
.L387:
.LBB331:
	.loc 1 92 42 view .LVU1197
	movq	_ZN6Kernel7Console11s_cursorPosE+8(%rip), %rdi
	.loc 1 92 75 view .LVU1198
	movq	_ZN6Kernel7Console11s_cursorPosE(%rip), %rax
.LVL580:
	.loc 1 93 26 view .LVU1199
	movzbl	%r14b, %esi
	.loc 1 92 44 view .LVU1200
	movq	-56(%rbp), %rcx
	imulq	%rcx, %rdi
.LVL581:
	.loc 1 92 24 view .LVU1201
	addq	%rax, %rdi
.LVL582:
	.loc 1 93 26 view .LVU1202
	movl	%ebx, %edx
	call	_ZN6Kernel7Console9writeCharEmhNS0_10AttributesE
.LVL583:
	.loc 1 94 31 view .LVU1203
	movq	_ZN6Kernel7Console11s_cursorPosE(%rip), %rax
	.loc 1 94 17 view .LVU1204
	addq	$1, %rax
	movq	%rax, _ZN6Kernel7Console11s_cursorPosE(%rip)
	.loc 1 95 33 view .LVU1205
	movq	_ZN6Kernel7Console11s_cursorPosE(%rip), %rax
	.loc 1 95 53 discriminator 2 view .LVU1206
	movq	-56(%rbp), %rcx
	cmpq	%rcx, %rax
	jnb	.L410
	cmpb	$10, %r14b
	je	.L410
	jmp	.L385
.L423:
	.loc 1 100 35 view .LVU1207
	movl	$1, %edi
	call	_ZN6Kernel7Console10scrollDownEm
.LVL584:
	jmp	.L385
.LVL585:
.L424:
	.loc 1 100 35 view .LVU1208
.LBE331:
.LBE329:
	.loc 1 103 33 view .LVU1209
	call	_ZN6Kernel7Console20updateHardwareCursorEv
.LVL586:
	.loc 1 103 33 view .LVU1210
.LBE328:
.LBE327:
	.loc 1 111 38 view .LVU1211
	movq	_ZN6Kernel7Console11s_cursorPosE+8(%rip), %rax
	.loc 1 111 71 view .LVU1212
	movq	_ZN6Kernel7Console11s_cursorPosE(%rip), %rdx
	.loc 1 111 40 view .LVU1213
	movq	-56(%rbp), %rcx
	imulq	%rcx, %rax
	.loc 1 111 20 view .LVU1214
	addq	%rdx, %rax
	movq	%rax, -64(%rbp)
.LVL587:
	.loc 1 114 22 is_stmt 1 discriminator 1 view .LVU1215
	.loc 1 116 17 is_stmt 0 view .LVU1216
	testl	%r13d, %r13d
	js	.L406
	.loc 1 112 20 view .LVU1217
	movl	$0, %r14d
.LVL588:
.L389:
	.loc 1 118 21 view .LVU1218
	addl	%r13d, %r13d
.LVL589:
	.loc 1 114 13 is_stmt 1 view .LVU1219
	addq	$1, %r14
.LVL590:
	.loc 1 114 22 discriminator 1 view .LVU1220
	cmpq	$32, %r14
	je	.L425
	.loc 1 116 17 is_stmt 0 view .LVU1221
	testl	%r13d, %r13d
	jns	.L389
	movq	%r14, -72(%rbp)
.LVL591:
.L388:
	.loc 1 120 22 is_stmt 1 discriminator 1 view .LVU1222
	.loc 1 120 22 is_stmt 0 discriminator 1 view .LVU1223
	movq	-64(%rbp), %rax
.LVL592:
	.loc 1 120 22 discriminator 1 view .LVU1224
	addq	%rax, %r14
.LVL593:
	.loc 1 120 22 discriminator 1 view .LVU1225
	movq	-72(%rbp), %rdx
	subq	%rdx, %r14
	addq	$32, %rax
	subq	%rdx, %rax
	movq	%rax, %r15
.LVL594:
.L392:
	.loc 1 122 56 view .LVU1226
	movl	%r13d, %eax
	shrl	$31, %eax
	.loc 1 122 26 view .LVU1227
	leal	48(%rax), %esi
	movl	%ebx, %edx
	movq	%r14, %rdi
	call	_ZN6Kernel7Console9writeCharEmhNS0_10AttributesE
.LVL595:
	.loc 1 123 21 view .LVU1228
	addl	%r13d, %r13d
.LVL596:
	.loc 1 120 13 is_stmt 1 discriminator 2 view .LVU1229
	.loc 1 120 22 discriminator 1 view .LVU1230
	addq	$1, %r14
.LVL597:
	.loc 1 120 22 is_stmt 0 discriminator 1 view .LVU1231
	cmpq	%r14, %r15
	jne	.L392
.LVL598:
.L391:
	.loc 1 125 43 view .LVU1232
	movq	-64(%rbp), %rax
	addq	$32, %rax
	movq	-72(%rbp), %rdx
	subq	%rdx, %rax
	.loc 1 125 51 view .LVU1233
	movl	$0, %edx
	divq	-56(%rbp)
	.loc 1 125 27 view .LVU1234
	movq	%rdx, _ZN6Kernel7Console11s_cursorPosE(%rip)
	.loc 1 126 27 view .LVU1235
	movq	%rax, _ZN6Kernel7Console11s_cursorPosE+8(%rip)
	.loc 1 127 33 view .LVU1236
	call	_ZN6Kernel7Console20updateHardwareCursorEv
.LVL599:
.L381:
	.loc 1 127 33 view .LVU1237
.LBE326:
.LBE325:
.LBB334:
.LBB335:
.LBB336:
	.loc 1 90 39 is_stmt 1 discriminator 1 view .LVU1238
	.loc 1 90 35 is_stmt 0 discriminator 1 view .LVU1239
	leaq	2(%r12), %r13
	movzbl	2(%r12), %esi
	.loc 1 90 39 discriminator 1 view .LVU1240
	testb	%sil, %sil
	je	.L402
.LBB337:
	.loc 1 92 55 view .LVU1241
	movq	$_ZN6Kernel7Console8s_extentE, %r14
	movq	(%r14), %r12
	jmp	.L401
.LVL600:
.L425:
	.loc 1 92 55 view .LVU1242
.LBE337:
.LBE336:
.LBE335:
.LBE334:
.LBB342:
.LBB332:
	movq	%r14, -72(%rbp)
	jmp	.L391
.LVL601:
.L373:
	.loc 1 92 55 view .LVU1243
.LBE332:
.LBE342:
	.loc 1 236 38 view .LVU1244
	movl	0(%r13), %r13d
.LVL602:
.LBB343:
.LBI343:
	.loc 1 172 21 is_stmt 1 view .LVU1245
.LBB344:
.LBB345:
.LBI345:
	.loc 1 87 21 view .LVU1246
.LBB346:
.LBB347:
	.loc 1 90 39 discriminator 1 view .LVU1247
	movq	$.LC1+1, %r15
	.loc 1 90 35 is_stmt 0 discriminator 1 view .LVU1248
	movl	$48, %r14d
.LBB348:
	.loc 1 92 55 view .LVU1249
	movq	$_ZN6Kernel7Console8s_extentE, %rax
	movq	(%rax), %rax
	movq	%rax, -56(%rbp)
	jmp	.L395
.LVL603:
.L411:
	.loc 1 97 35 view .LVU1250
	movq	$0, _ZN6Kernel7Console11s_cursorPosE(%rip)
	.loc 1 98 35 view .LVU1251
	movq	_ZN6Kernel7Console11s_cursorPosE+8(%rip), %rax
	.loc 1 98 21 view .LVU1252
	addq	$1, %rax
	movq	%rax, _ZN6Kernel7Console11s_cursorPosE+8(%rip)
	.loc 1 99 37 view .LVU1253
	movq	_ZN6Kernel7Console11s_cursorPosE+8(%rip), %rax
	.loc 1 99 21 view .LVU1254
	movq	$_ZN6Kernel7Console8s_extentE, %rdx
	cmpq	8(%rdx), %rax
	jnb	.L426
.L393:
.LBE348:
	.loc 1 90 13 is_stmt 1 discriminator 2 view .LVU1255
.LVL604:
	.loc 1 90 39 discriminator 1 view .LVU1256
	addq	$1, %r15
.LVL605:
	.loc 1 90 35 is_stmt 0 discriminator 1 view .LVU1257
	movzbl	-1(%r15), %r14d
	.loc 1 90 39 discriminator 1 view .LVU1258
	testb	%r14b, %r14b
	je	.L427
.LVL606:
.L395:
.LBB349:
	.loc 1 92 42 view .LVU1259
	movq	_ZN6Kernel7Console11s_cursorPosE+8(%rip), %rdi
	.loc 1 92 75 view .LVU1260
	movq	_ZN6Kernel7Console11s_cursorPosE(%rip), %rax
.LVL607:
	.loc 1 93 26 view .LVU1261
	movzbl	%r14b, %esi
	.loc 1 92 44 view .LVU1262
	movq	-56(%rbp), %rcx
	imulq	%rcx, %rdi
.LVL608:
	.loc 1 92 24 view .LVU1263
	addq	%rax, %rdi
.LVL609:
	.loc 1 93 26 view .LVU1264
	movl	%ebx, %edx
	call	_ZN6Kernel7Console9writeCharEmhNS0_10AttributesE
.LVL610:
	.loc 1 94 31 view .LVU1265
	movq	_ZN6Kernel7Console11s_cursorPosE(%rip), %rax
	.loc 1 94 17 view .LVU1266
	addq	$1, %rax
	movq	%rax, _ZN6Kernel7Console11s_cursorPosE(%rip)
	.loc 1 95 33 view .LVU1267
	movq	_ZN6Kernel7Console11s_cursorPosE(%rip), %rax
	.loc 1 95 53 discriminator 2 view .LVU1268
	movq	-56(%rbp), %rcx
	cmpq	%rcx, %rax
	jnb	.L411
	cmpb	$10, %r14b
	je	.L411
	jmp	.L393
.L426:
	.loc 1 100 35 view .LVU1269
	movl	$1, %edi
	call	_ZN6Kernel7Console10scrollDownEm
.LVL611:
	jmp	.L393
.LVL612:
.L427:
	.loc 1 100 35 view .LVU1270
.LBE349:
.LBE347:
	.loc 1 103 33 view .LVU1271
	call	_ZN6Kernel7Console20updateHardwareCursorEv
.LVL613:
	.loc 1 103 33 view .LVU1272
.LBE346:
.LBE345:
	.loc 1 176 38 view .LVU1273
	movq	_ZN6Kernel7Console11s_cursorPosE+8(%rip), %rax
	.loc 1 176 71 view .LVU1274
	movq	_ZN6Kernel7Console11s_cursorPosE(%rip), %rdx
	.loc 1 176 40 view .LVU1275
	movq	-56(%rbp), %rcx
	imulq	%rcx, %rax
	.loc 1 176 20 view .LVU1276
	addq	%rdx, %rax
	movq	%rax, -72(%rbp)
.LVL614:
	.loc 1 179 22 is_stmt 1 discriminator 1 view .LVU1277
	.loc 1 181 17 is_stmt 0 view .LVU1278
	movl	%r13d, %eax
.LVL615:
	.loc 1 181 17 view .LVU1279
	shrl	$28, %eax
	jne	.L408
	.loc 1 177 20 view .LVU1280
	movl	$0, %r15d
.LVL616:
.L397:
	.loc 1 183 21 view .LVU1281
	sall	$4, %r13d
.LVL617:
	.loc 1 179 13 is_stmt 1 view .LVU1282
	addq	$1, %r15
.LVL618:
	.loc 1 179 22 discriminator 1 view .LVU1283
	cmpq	$8, %r15
	je	.L399
	.loc 1 181 17 is_stmt 0 view .LVU1284
	movl	%r13d, %eax
	shrl	$28, %eax
	je	.L397
	movq	%r15, %r14
.LVL619:
.L396:
	.loc 1 185 22 is_stmt 1 discriminator 1 view .LVU1285
	.loc 1 185 22 is_stmt 0 discriminator 1 view .LVU1286
	movq	-72(%rbp), %rax
	addq	%rax, %r14
.LVL620:
	.loc 1 185 22 discriminator 1 view .LVU1287
	subq	%r15, %r14
	addq	$8, %rax
	subq	%r15, %rax
	movq	%rax, -64(%rbp)
.LVL621:
.L400:
	.loc 1 187 69 view .LVU1288
	movl	%r13d, %eax
	shrl	$28, %eax
	.loc 1 187 63 view .LVU1289
	movl	%eax, %eax
	.loc 1 187 26 view .LVU1290
	movzbl	.LC2(%rax), %esi
	movl	%ebx, %edx
	movq	%r14, %rdi
	call	_ZN6Kernel7Console9writeCharEmhNS0_10AttributesE
.LVL622:
	.loc 1 188 21 view .LVU1291
	sall	$4, %r13d
.LVL623:
	.loc 1 185 13 is_stmt 1 discriminator 2 view .LVU1292
	.loc 1 185 22 discriminator 1 view .LVU1293
	addq	$1, %r14
.LVL624:
	.loc 1 185 22 is_stmt 0 discriminator 1 view .LVU1294
	movq	-64(%rbp), %rax
	cmpq	%rax, %r14
	jne	.L400
.LVL625:
.L399:
	.loc 1 190 43 view .LVU1295
	movq	-72(%rbp), %rax
	addq	$8, %rax
	subq	%r15, %rax
	.loc 1 190 55 view .LVU1296
	movl	$0, %edx
	divq	-56(%rbp)
	.loc 1 190 27 view .LVU1297
	movq	%rdx, _ZN6Kernel7Console11s_cursorPosE(%rip)
	.loc 1 191 27 view .LVU1298
	movq	%rax, _ZN6Kernel7Console11s_cursorPosE+8(%rip)
	.loc 1 192 33 view .LVU1299
	call	_ZN6Kernel7Console20updateHardwareCursorEv
.LVL626:
	.loc 1 193 9 view .LVU1300
	jmp	.L381
.LVL627:
.L378:
	.loc 1 193 9 view .LVU1301
.LBE344:
.LBE343:
	.loc 1 251 36 view .LVU1302
	movl	%ebx, %esi
	movl	$37, %edi
	call	_ZN6Kernel7Console7putCharEhNS0_10AttributesE
.LVL628:
	.loc 1 252 36 view .LVU1303
	movzbl	1(%r12), %edi
	movl	%ebx, %esi
	call	_ZN6Kernel7Console7putCharEhNS0_10AttributesE
.LVL629:
	.loc 1 254 25 view .LVU1304
	jmp	.L381
.L376:
	.loc 1 262 36 view .LVU1305
	movl	%ebx, %esi
	movl	$37, %edi
	call	_ZN6Kernel7Console7putCharEhNS0_10AttributesE
.LVL630:
	.loc 1 263 36 view .LVU1306
	movzbl	1(%r12), %edi
	movl	%ebx, %esi
	call	_ZN6Kernel7Console7putCharEhNS0_10AttributesE
.LVL631:
	.loc 1 265 25 view .LVU1307
	jmp	.L381
.L375:
	.loc 1 274 36 view .LVU1308
	movl	%ebx, %esi
	movl	$37, %edi
	call	_ZN6Kernel7Console7putCharEhNS0_10AttributesE
.LVL632:
	.loc 1 275 36 view .LVU1309
	movzbl	1(%r12), %edi
	movl	%ebx, %esi
	call	_ZN6Kernel7Console7putCharEhNS0_10AttributesE
.LVL633:
	.loc 1 277 25 view .LVU1310
	jmp	.L381
.L372:
	.loc 1 279 32 view .LVU1311
	movl	%ebx, %esi
	movl	$37, %edi
	call	_ZN6Kernel7Console7putCharEhNS0_10AttributesE
.LVL634:
	.loc 1 280 32 view .LVU1312
	movzbl	1(%r12), %edi
	movl	%ebx, %esi
	call	_ZN6Kernel7Console7putCharEhNS0_10AttributesE
.LVL635:
	.loc 1 281 25 view .LVU1313
	addq	$2, %r12
.LVL636:
	.loc 1 282 25 view .LVU1314
	jmp	.L371
.LVL637:
.L403:
.LBB351:
.LBB341:
.LBB340:
.LBB338:
	.loc 1 97 35 view .LVU1315
	movq	$0, _ZN6Kernel7Console11s_cursorPosE(%rip)
	.loc 1 98 35 view .LVU1316
	movq	_ZN6Kernel7Console11s_cursorPosE+8(%rip), %rax
	.loc 1 98 21 view .LVU1317
	addq	$1, %rax
	movq	%rax, _ZN6Kernel7Console11s_cursorPosE+8(%rip)
	.loc 1 99 37 view .LVU1318
	movq	_ZN6Kernel7Console11s_cursorPosE+8(%rip), %rax
	.loc 1 99 21 view .LVU1319
	cmpq	8(%r14), %rax
	jnb	.L428
.L404:
.LBE338:
	.loc 1 90 13 is_stmt 1 discriminator 2 view .LVU1320
	.loc 1 90 39 discriminator 1 view .LVU1321
	.loc 1 90 35 is_stmt 0 discriminator 1 view .LVU1322
	addq	$1, %r13
	movzbl	0(%r13), %esi
	.loc 1 90 39 discriminator 1 view .LVU1323
	testb	%sil, %sil
	je	.L402
.LVL638:
.L401:
.LBB339:
	.loc 1 92 42 view .LVU1324
	movq	_ZN6Kernel7Console11s_cursorPosE+8(%rip), %rdi
	.loc 1 92 75 view .LVU1325
	movq	_ZN6Kernel7Console11s_cursorPosE(%rip), %rax
.LVL639:
	.loc 1 93 26 view .LVU1326
	movzbl	%sil, %esi
	.loc 1 92 44 view .LVU1327
	imulq	%r12, %rdi
.LVL640:
	.loc 1 92 24 view .LVU1328
	addq	%rax, %rdi
.LVL641:
	.loc 1 93 26 view .LVU1329
	movl	%ebx, %edx
	call	_ZN6Kernel7Console9writeCharEmhNS0_10AttributesE
.LVL642:
	.loc 1 94 31 view .LVU1330
	movq	_ZN6Kernel7Console11s_cursorPosE(%rip), %rax
	.loc 1 94 17 view .LVU1331
	addq	$1, %rax
	movq	%rax, _ZN6Kernel7Console11s_cursorPosE(%rip)
	.loc 1 95 33 view .LVU1332
	movq	_ZN6Kernel7Console11s_cursorPosE(%rip), %rax
	.loc 1 95 53 view .LVU1333
	cmpq	%r12, %rax
	jnb	.L403
	.loc 1 95 53 discriminator 2 view .LVU1334
	cmpb	$10, 0(%r13)
	jne	.L404
	jmp	.L403
.L428:
	.loc 1 100 35 view .LVU1335
	movl	$1, %edi
	call	_ZN6Kernel7Console10scrollDownEm
.LVL643:
	jmp	.L404
.LVL644:
.L402:
	.loc 1 100 35 view .LVU1336
.LBE339:
.LBE340:
	.loc 1 103 33 view .LVU1337
	call	_ZN6Kernel7Console20updateHardwareCursorEv
.LVL645:
.L367:
.LBE341:
.LBE351:
	.loc 1 297 9 view .LVU1338
	addq	$40, %rsp
	popq	%rbx
	.cfi_remember_state
	.cfi_restore 3
.LVL646:
	.loc 1 297 9 view .LVU1339
	popq	%r12
	.cfi_restore 12
	popq	%r13
	.cfi_restore 13
	popq	%r14
	.cfi_restore 14
	popq	%r15
	.cfi_restore 15
	popq	%rbp
	.cfi_restore 6
	.cfi_def_cfa 7, 8
	ret
.LVL647:
.L369:
	.cfi_restore_state
	.loc 1 293 28 view .LVU1340
	movzbl	%dil, %edi
	movl	%ebx, %esi
	call	_ZN6Kernel7Console7putCharEhNS0_10AttributesE
.LVL648:
	.loc 1 295 17 view .LVU1341
	addq	$1, %r12
.LVL649:
.L371:
	.loc 1 199 13 is_stmt 1 view .LVU1342
	movzbl	(%r12), %edi
	testb	%dil, %dil
	je	.L367
.L405:
	.loc 1 201 17 is_stmt 0 view .LVU1343
	cmpb	$37, %dil
	jne	.L369
	.loc 1 201 33 discriminator 1 view .LVU1344
	movzbl	1(%r12), %eax
	testb	%al, %al
	je	.L369
.LVL650:
	.loc 1 203 21 view .LVU1345
	cmpb	$37, %al
	je	.L429
	.loc 1 209 21 view .LVU1346
	subl	$98, %eax
	cmpb	$22, %al
	ja	.L372
	movzbl	%al, %eax
	jmp	*.L374(,%rax,8)
	.section	.rodata._ZN6Kernel7Console9printImplIRjJEEEvPKcNS0_10AttributesEOT_DpOT0_,"aG",@progbits,_ZN6Kernel7Console9printImplIRjJEEEvPKcNS0_10AttributesEOT_DpOT0_,comdat
	.align 8
	.align 4
.L374:
	.quad	.L379
	.quad	.L378
	.quad	.L377
	.quad	.L372
	.quad	.L372
	.quad	.L372
	.quad	.L372
	.quad	.L372
	.quad	.L372
	.quad	.L372
	.quad	.L372
	.quad	.L372
	.quad	.L372
	.quad	.L372
	.quad	.L376
	.quad	.L372
	.quad	.L372
	.quad	.L375
	.quad	.L372
	.quad	.L372
	.quad	.L372
	.quad	.L372
	.quad	.L373
	.section	.text._ZN6Kernel7Console9printImplIRjJEEEvPKcNS0_10AttributesEOT_DpOT0_,"axG",@progbits,_ZN6Kernel7Console9printImplIRjJEEEvPKcNS0_10AttributesEOT_DpOT0_,comdat
.LVL651:
.L406:
.LBB352:
.LBB333:
	.loc 1 113 20 view .LVU1347
	movq	$0, -72(%rbp)
	.loc 1 112 20 view .LVU1348
	movl	$0, %r14d
	jmp	.L388
.LVL652:
.L408:
	.loc 1 112 20 view .LVU1349
.LBE333:
.LBE352:
.LBB353:
.LBB350:
	.loc 1 178 20 view .LVU1350
	movl	$0, %r15d
	.loc 1 177 20 view .LVU1351
	movl	$0, %r14d
	jmp	.L396
.LBE350:
.LBE353:
	.cfi_endproc
.LFE76:
	.size	_ZN6Kernel7Console9printImplIRjJEEEvPKcNS0_10AttributesEOT_DpOT0_, .-_ZN6Kernel7Console9printImplIRjJEEEvPKcNS0_10AttributesEOT_DpOT0_
	.section	.text._ZN6Kernel7Console9printImplIRjJS2_EEEvPKcNS0_10AttributesEOT_DpOT0_,"axG",@progbits,_ZN6Kernel7Console9printImplIRjJS2_EEEvPKcNS0_10AttributesEOT_DpOT0_,comdat
	.weak	_ZN6Kernel7Console9printImplIRjJS2_EEEvPKcNS0_10AttributesEOT_DpOT0_
	.type	_ZN6Kernel7Console9printImplIRjJS2_EEEvPKcNS0_10AttributesEOT_DpOT0_, @function
_ZN6Kernel7Console9printImplIRjJS2_EEEvPKcNS0_10AttributesEOT_DpOT0_:
.LVL653:
.LFB60:
	.loc 1 197 21 is_stmt 1 view -0
	.cfi_startproc
	.loc 1 197 21 is_stmt 0 view .LVU1353
	pushq	%rbp
	.cfi_def_cfa_offset 16
	.cfi_offset 6, -16
	movq	%rsp, %rbp
	.cfi_def_cfa_register 6
	pushq	%r15
	pushq	%r14
	pushq	%r13
	pushq	%r12
	pushq	%rbx
	subq	$40, %rsp
	.cfi_offset 15, -24
	.cfi_offset 14, -32
	.cfi_offset 13, -40
	.cfi_offset 12, -48
	.cfi_offset 3, -56
	movq	%rdi, %rbx
	movq	%rdx, %r12
	movq	%rcx, -56(%rbp)
	movl	%esi, %r15d
	.loc 1 199 13 is_stmt 1 view .LVU1354
	movzbl	(%rdi), %eax
	testb	%al, %al
	jne	.L464
	jmp	.L430
.LVL654:
.L485:
	.loc 1 205 32 is_stmt 0 view .LVU1355
	movl	%r15d, %esi
	movl	$37, %edi
	call	_ZN6Kernel7Console7putCharEhNS0_10AttributesE
.LVL655:
	.loc 1 206 25 view .LVU1356
	addq	$2, %rbx
.LVL656:
	.loc 1 207 25 view .LVU1357
	jmp	.L434
.LVL657:
.L440:
	.loc 1 214 38 view .LVU1358
	movl	(%r12), %r13d
.LVL658:
.LBB369:
.LBI369:
	.loc 1 131 21 is_stmt 1 view .LVU1359
.LBB370:
	.loc 1 133 13 is_stmt 0 view .LVU1360
	testl	%r13d, %r13d
	je	.L479
	.loc 1 138 38 view .LVU1361
	movq	_ZN6Kernel7Console11s_cursorPosE+8(%rip), %rax
	.loc 1 138 71 view .LVU1362
	movq	_ZN6Kernel7Console11s_cursorPosE(%rip), %rdx
	.loc 1 138 40 view .LVU1363
	imulq	_ZN6Kernel7Console8s_extentE(%rip), %rax
	.loc 1 138 20 view .LVU1364
	addq	%rdx, %rax
.LVL659:
	.loc 1 147 24 is_stmt 1 view .LVU1365
	.loc 1 145 20 is_stmt 0 view .LVU1366
	movl	$0, %r14d
	.loc 1 149 50 view .LVU1367
	movq	%rax, %r12
.LVL660:
	.loc 1 149 50 view .LVU1368
	movq	%rbx, -64(%rbp)
.LVL661:
.L445:
	.loc 1 149 50 view .LVU1369
	movl	%r13d, %ebx
	movl	$3435973837, %eax
	imulq	%rax, %rbx
	shrq	$35, %rbx
	leal	(%rbx,%rbx,4), %eax
	addl	%eax, %eax
	movl	%r13d, %esi
	subl	%eax, %esi
	.loc 1 149 44 view .LVU1370
	addl	$48, %esi
	.loc 1 149 26 view .LVU1371
	movzbl	%sil, %esi
	leaq	(%r12,%r14), %rdi
	movl	%r15d, %edx
	call	_ZN6Kernel7Console9writeCharEmhNS0_10AttributesE
.LVL662:
	movl	%r13d, %eax
	.loc 1 150 21 view .LVU1372
	movl	%ebx, %r13d
.LVL663:
	.loc 1 151 17 view .LVU1373
	addq	$1, %r14
.LVL664:
	.loc 1 147 24 is_stmt 1 view .LVU1374
	cmpl	$9, %eax
	ja	.L445
.LBB371:
	.loc 1 156 42 is_stmt 0 discriminator 1 view .LVU1375
	movq	%r12, %rax
	movq	-64(%rbp), %rbx
.LVL665:
	.loc 1 156 34 is_stmt 1 discriminator 1 view .LVU1376
	.loc 1 156 42 is_stmt 0 discriminator 1 view .LVU1377
	movq	%r14, %r11
	shrq	%r11
	.loc 1 156 34 discriminator 1 view .LVU1378
	cmpq	$1, %r14
	jbe	.L446
.LVL666:
	.loc 1 156 34 discriminator 1 view .LVU1379
	leaq	(%r12,%r14), %rdx
	leaq	-2(%rdx,%rdx), %rcx
	addq	%r12, %rdx
	.loc 1 156 25 view .LVU1380
	movl	$0, %r8d
	.loc 1 160 83 view .LVU1381
	leaq	-2(%rdx,%rdx), %r12
.LVL667:
.L447:
	.loc 1 158 68 view .LVU1382
	movq	_ZN6Kernel7Console12s_vgaAddressE(%rip), %rsi
	leaq	(%rsi,%rcx), %r10
	.loc 1 158 70 view .LVU1383
	movzbl	(%r10), %r9d
.LVL668:
	.loc 1 159 65 view .LVU1384
	movzbl	1(%r10), %edi
.LVL669:
	.loc 1 160 83 view .LVU1385
	movq	%r12, %rdx
	subq	%rcx, %rdx
	addq	%rdx, %rsi
	.loc 1 160 85 view .LVU1386
	movzbl	(%rsi), %esi
	.loc 1 160 61 view .LVU1387
	movb	%sil, (%r10)
	.loc 1 161 78 view .LVU1388
	movq	_ZN6Kernel7Console12s_vgaAddressE(%rip), %rsi
	leaq	(%rsi,%rdx), %r10
	.loc 1 161 49 view .LVU1389
	addq	%rcx, %rsi
	.loc 1 161 80 view .LVU1390
	movzbl	1(%r10), %r10d
	.loc 1 161 56 view .LVU1391
	movb	%r10b, 1(%rsi)
	.loc 1 162 37 view .LVU1392
	movq	%rdx, %rsi
	addq	_ZN6Kernel7Console12s_vgaAddressE(%rip), %rsi
	.loc 1 162 49 view .LVU1393
	movb	%r9b, (%rsi)
	.loc 1 163 37 view .LVU1394
	addq	_ZN6Kernel7Console12s_vgaAddressE(%rip), %rdx
	.loc 1 163 44 view .LVU1395
	movb	%dil, 1(%rdx)
	.loc 1 156 13 is_stmt 1 discriminator 3 view .LVU1396
	addq	$1, %r8
.LVL670:
	.loc 1 156 34 discriminator 1 view .LVU1397
	subq	$2, %rcx
	cmpq	%r11, %r8
	jb	.L447
.LVL671:
.L446:
	.loc 1 156 34 is_stmt 0 discriminator 1 view .LVU1398
.LBE371:
	.loc 1 166 34 view .LVU1399
	addq	%r14, %rax
.LVL672:
	.loc 1 166 43 view .LVU1400
	movl	$0, %edx
	divq	_ZN6Kernel7Console8s_extentE(%rip)
	.loc 1 166 27 view .LVU1401
	movq	%rdx, _ZN6Kernel7Console11s_cursorPosE(%rip)
	.loc 1 167 27 view .LVU1402
	movq	%rax, _ZN6Kernel7Console11s_cursorPosE+8(%rip)
	.loc 1 168 33 view .LVU1403
	call	_ZN6Kernel7Console20updateHardwareCursorEv
.LVL673:
	jmp	.L444
.LVL674:
.L479:
	.loc 1 135 24 view .LVU1404
	movl	%r15d, %esi
	movl	$48, %edi
	call	_ZN6Kernel7Console7putCharEhNS0_10AttributesE
.LVL675:
	jmp	.L444
.LVL676:
.L442:
	.loc 1 135 24 view .LVU1405
.LBE370:
.LBE369:
	.loc 1 225 38 view .LVU1406
	movl	(%r12), %r12d
.LVL677:
.LBB372:
.LBI372:
	.loc 1 107 21 is_stmt 1 view .LVU1407
.LBB373:
.LBB374:
.LBI374:
	.loc 1 87 21 view .LVU1408
.LBB375:
.LBB376:
	.loc 1 90 39 discriminator 1 view .LVU1409
	movq	$.LC0+1, %r14
	.loc 1 90 35 is_stmt 0 discriminator 1 view .LVU1410
	movl	$48, %r13d
.LBB377:
	.loc 1 92 55 view .LVU1411
	movq	$_ZN6Kernel7Console8s_extentE, %rax
	movq	(%rax), %rax
	movq	%rax, -64(%rbp)
	movl	%r12d, -72(%rbp)
	movq	%rax, %r12
.LVL678:
	.loc 1 92 55 view .LVU1412
	jmp	.L450
.LVL679:
.L469:
	.loc 1 97 35 view .LVU1413
	movq	$0, _ZN6Kernel7Console11s_cursorPosE(%rip)
	.loc 1 98 35 view .LVU1414
	movq	_ZN6Kernel7Console11s_cursorPosE+8(%rip), %rax
	.loc 1 98 21 view .LVU1415
	addq	$1, %rax
	movq	%rax, _ZN6Kernel7Console11s_cursorPosE+8(%rip)
	.loc 1 99 37 view .LVU1416
	movq	_ZN6Kernel7Console11s_cursorPosE+8(%rip), %rax
	.loc 1 99 21 view .LVU1417
	movq	$_ZN6Kernel7Console8s_extentE, %rcx
	cmpq	8(%rcx), %rax
	jnb	.L480
.L448:
.LBE377:
	.loc 1 90 13 is_stmt 1 discriminator 2 view .LVU1418
.LVL680:
	.loc 1 90 39 discriminator 1 view .LVU1419
	addq	$1, %r14
.LVL681:
	.loc 1 90 35 is_stmt 0 discriminator 1 view .LVU1420
	movzbl	-1(%r14), %r13d
	.loc 1 90 39 discriminator 1 view .LVU1421
	testb	%r13b, %r13b
	je	.L481
.LVL682:
.L450:
.LBB378:
	.loc 1 92 42 view .LVU1422
	movq	_ZN6Kernel7Console11s_cursorPosE+8(%rip), %rdi
	.loc 1 92 75 view .LVU1423
	movq	_ZN6Kernel7Console11s_cursorPosE(%rip), %rax
.LVL683:
	.loc 1 93 26 view .LVU1424
	movzbl	%r13b, %esi
	.loc 1 92 44 view .LVU1425
	imulq	%r12, %rdi
.LVL684:
	.loc 1 92 24 view .LVU1426
	addq	%rax, %rdi
.LVL685:
	.loc 1 93 26 view .LVU1427
	movl	%r15d, %edx
	call	_ZN6Kernel7Console9writeCharEmhNS0_10AttributesE
.LVL686:
	.loc 1 94 31 view .LVU1428
	movq	_ZN6Kernel7Console11s_cursorPosE(%rip), %rax
	.loc 1 94 17 view .LVU1429
	addq	$1, %rax
	movq	%rax, _ZN6Kernel7Console11s_cursorPosE(%rip)
	.loc 1 95 33 view .LVU1430
	movq	_ZN6Kernel7Console11s_cursorPosE(%rip), %rax
	.loc 1 95 53 discriminator 2 view .LVU1431
	cmpq	%r12, %rax
	jnb	.L469
	cmpb	$10, %r13b
	je	.L469
	jmp	.L448
.L480:
	.loc 1 100 35 view .LVU1432
	movl	$1, %edi
	call	_ZN6Kernel7Console10scrollDownEm
.LVL687:
	jmp	.L448
.LVL688:
.L481:
	.loc 1 100 35 view .LVU1433
.LBE378:
.LBE376:
	.loc 1 103 33 view .LVU1434
	movl	-72(%rbp), %r12d
	call	_ZN6Kernel7Console20updateHardwareCursorEv
.LVL689:
	.loc 1 103 33 view .LVU1435
.LBE375:
.LBE374:
	.loc 1 111 38 view .LVU1436
	movq	_ZN6Kernel7Console11s_cursorPosE+8(%rip), %rax
	.loc 1 111 71 view .LVU1437
	movq	_ZN6Kernel7Console11s_cursorPosE(%rip), %rdx
	.loc 1 111 40 view .LVU1438
	movq	-64(%rbp), %rcx
	imulq	%rcx, %rax
	.loc 1 111 20 view .LVU1439
	addq	%rdx, %rax
.LVL690:
	.loc 1 114 22 is_stmt 1 discriminator 1 view .LVU1440
	.loc 1 116 17 is_stmt 0 view .LVU1441
	testl	%r12d, %r12d
	js	.L465
	.loc 1 112 20 view .LVU1442
	movl	$0, %r13d
.LVL691:
.L452:
	.loc 1 118 21 view .LVU1443
	addl	%r12d, %r12d
.LVL692:
	.loc 1 114 13 is_stmt 1 view .LVU1444
	addq	$1, %r13
.LVL693:
	.loc 1 114 22 discriminator 1 view .LVU1445
	cmpq	$32, %r13
	je	.L482
	.loc 1 116 17 is_stmt 0 view .LVU1446
	testl	%r12d, %r12d
	jns	.L452
	movq	%r13, %rdx
.LVL694:
.L451:
	.loc 1 120 22 is_stmt 1 discriminator 1 view .LVU1447
	.loc 1 120 22 is_stmt 0 discriminator 1 view .LVU1448
	addq	%rax, %r13
.LVL695:
	.loc 1 120 22 discriminator 1 view .LVU1449
	subq	%rdx, %r13
	leaq	32(%rax), %r14
	subq	%rdx, %r14
	movq	%rax, -72(%rbp)
	movq	%rdx, -80(%rbp)
.LVL696:
.L455:
	.loc 1 122 56 view .LVU1450
	movl	%r12d, %eax
	shrl	$31, %eax
	.loc 1 122 26 view .LVU1451
	leal	48(%rax), %esi
	movl	%r15d, %edx
	movq	%r13, %rdi
	call	_ZN6Kernel7Console9writeCharEmhNS0_10AttributesE
.LVL697:
	.loc 1 123 21 view .LVU1452
	addl	%r12d, %r12d
.LVL698:
	.loc 1 120 13 is_stmt 1 discriminator 2 view .LVU1453
	.loc 1 120 22 discriminator 1 view .LVU1454
	addq	$1, %r13
.LVL699:
	.loc 1 120 22 is_stmt 0 discriminator 1 view .LVU1455
	cmpq	%r14, %r13
	jne	.L455
	movq	-72(%rbp), %rax
	movq	-80(%rbp), %rdx
.LVL700:
.L454:
	.loc 1 125 43 view .LVU1456
	addq	$32, %rax
	subq	%rdx, %rax
	.loc 1 125 51 view .LVU1457
	movl	$0, %edx
	divq	-64(%rbp)
	.loc 1 125 27 view .LVU1458
	movq	%rdx, _ZN6Kernel7Console11s_cursorPosE(%rip)
	.loc 1 126 27 view .LVU1459
	movq	%rax, _ZN6Kernel7Console11s_cursorPosE+8(%rip)
	.loc 1 127 33 view .LVU1460
	call	_ZN6Kernel7Console20updateHardwareCursorEv
.LVL701:
.L444:
	.loc 1 127 33 view .LVU1461
.LBE373:
.LBE372:
	.loc 1 284 21 view .LVU1462
	leaq	2(%rbx), %rdi
.LVL702:
	.loc 1 286 34 view .LVU1463
	movq	-56(%rbp), %rdx
	movl	%r15d, %esi
	call	_ZN6Kernel7Console9printImplIRjJEEEvPKcNS0_10AttributesEOT_DpOT0_
.LVL703:
.L430:
	.loc 1 297 9 view .LVU1464
	addq	$40, %rsp
	popq	%rbx
	.cfi_remember_state
	.cfi_restore 3
	popq	%r12
	.cfi_restore 12
	popq	%r13
	.cfi_restore 13
	popq	%r14
	.cfi_restore 14
	popq	%r15
	.cfi_restore 15
.LVL704:
	.loc 1 297 9 view .LVU1465
	popq	%rbp
	.cfi_restore 6
	.cfi_def_cfa 7, 8
	ret
.LVL705:
.L482:
	.cfi_restore_state
.LBB381:
.LBB379:
	.loc 1 297 9 view .LVU1466
	movq	%r13, %rdx
	jmp	.L454
.LVL706:
.L436:
	.loc 1 297 9 view .LVU1467
.LBE379:
.LBE381:
	.loc 1 236 38 view .LVU1468
	movl	(%r12), %r12d
.LVL707:
.LBB382:
.LBI382:
	.loc 1 172 21 is_stmt 1 view .LVU1469
.LBB383:
.LBB384:
.LBI384:
	.loc 1 87 21 view .LVU1470
.LBB385:
.LBB386:
	.loc 1 90 39 discriminator 1 view .LVU1471
	movq	$.LC1+1, %r14
	.loc 1 90 35 is_stmt 0 discriminator 1 view .LVU1472
	movl	$48, %r13d
.LBB387:
	.loc 1 92 55 view .LVU1473
	movq	$_ZN6Kernel7Console8s_extentE, %rax
	movq	(%rax), %rax
	movq	%rax, -64(%rbp)
	movl	%r12d, -72(%rbp)
	movq	%rax, %r12
.LVL708:
	.loc 1 92 55 view .LVU1474
	jmp	.L458
.LVL709:
.L470:
	.loc 1 97 35 view .LVU1475
	movq	$0, _ZN6Kernel7Console11s_cursorPosE(%rip)
	.loc 1 98 35 view .LVU1476
	movq	_ZN6Kernel7Console11s_cursorPosE+8(%rip), %rax
	.loc 1 98 21 view .LVU1477
	addq	$1, %rax
	movq	%rax, _ZN6Kernel7Console11s_cursorPosE+8(%rip)
	.loc 1 99 37 view .LVU1478
	movq	_ZN6Kernel7Console11s_cursorPosE+8(%rip), %rax
	.loc 1 99 21 view .LVU1479
	movq	$_ZN6Kernel7Console8s_extentE, %rcx
	cmpq	8(%rcx), %rax
	jnb	.L483
.L456:
.LBE387:
	.loc 1 90 13 is_stmt 1 discriminator 2 view .LVU1480
.LVL710:
	.loc 1 90 39 discriminator 1 view .LVU1481
	addq	$1, %r14
.LVL711:
	.loc 1 90 35 is_stmt 0 discriminator 1 view .LVU1482
	movzbl	-1(%r14), %r13d
	.loc 1 90 39 discriminator 1 view .LVU1483
	testb	%r13b, %r13b
	je	.L484
.LVL712:
.L458:
.LBB388:
	.loc 1 92 42 view .LVU1484
	movq	_ZN6Kernel7Console11s_cursorPosE+8(%rip), %rdi
	.loc 1 92 75 view .LVU1485
	movq	_ZN6Kernel7Console11s_cursorPosE(%rip), %rax
.LVL713:
	.loc 1 93 26 view .LVU1486
	movzbl	%r13b, %esi
	.loc 1 92 44 view .LVU1487
	imulq	%r12, %rdi
.LVL714:
	.loc 1 92 24 view .LVU1488
	addq	%rax, %rdi
.LVL715:
	.loc 1 93 26 view .LVU1489
	movl	%r15d, %edx
	call	_ZN6Kernel7Console9writeCharEmhNS0_10AttributesE
.LVL716:
	.loc 1 94 31 view .LVU1490
	movq	_ZN6Kernel7Console11s_cursorPosE(%rip), %rax
	.loc 1 94 17 view .LVU1491
	addq	$1, %rax
	movq	%rax, _ZN6Kernel7Console11s_cursorPosE(%rip)
	.loc 1 95 33 view .LVU1492
	movq	_ZN6Kernel7Console11s_cursorPosE(%rip), %rax
	.loc 1 95 53 discriminator 2 view .LVU1493
	cmpq	%r12, %rax
	jnb	.L470
	cmpb	$10, %r13b
	je	.L470
	jmp	.L456
.L483:
	.loc 1 100 35 view .LVU1494
	movl	$1, %edi
	call	_ZN6Kernel7Console10scrollDownEm
.LVL717:
	jmp	.L456
.LVL718:
.L484:
	.loc 1 100 35 view .LVU1495
.LBE388:
.LBE386:
	.loc 1 103 33 view .LVU1496
	movl	-72(%rbp), %r12d
	call	_ZN6Kernel7Console20updateHardwareCursorEv
.LVL719:
	.loc 1 103 33 view .LVU1497
.LBE385:
.LBE384:
	.loc 1 176 38 view .LVU1498
	movq	_ZN6Kernel7Console11s_cursorPosE+8(%rip), %rax
	.loc 1 176 71 view .LVU1499
	movq	_ZN6Kernel7Console11s_cursorPosE(%rip), %rdx
	.loc 1 176 40 view .LVU1500
	movq	-64(%rbp), %rcx
	imulq	%rcx, %rax
	.loc 1 176 20 view .LVU1501
	addq	%rdx, %rax
.LVL720:
	.loc 1 179 22 is_stmt 1 discriminator 1 view .LVU1502
	.loc 1 181 17 is_stmt 0 view .LVU1503
	movl	%r12d, %ecx
	shrl	$28, %ecx
	jne	.L467
	.loc 1 177 20 view .LVU1504
	movl	$0, %edx
.LVL721:
.L460:
	.loc 1 183 21 view .LVU1505
	sall	$4, %r12d
.LVL722:
	.loc 1 179 13 is_stmt 1 view .LVU1506
	addq	$1, %rdx
.LVL723:
	.loc 1 179 22 discriminator 1 view .LVU1507
	cmpq	$8, %rdx
	je	.L462
	.loc 1 181 17 is_stmt 0 view .LVU1508
	movl	%r12d, %ecx
	shrl	$28, %ecx
	je	.L460
	movq	%rdx, %r13
.LVL724:
.L459:
	.loc 1 185 22 is_stmt 1 discriminator 1 view .LVU1509
	.loc 1 185 22 is_stmt 0 discriminator 1 view .LVU1510
	addq	%rax, %r13
.LVL725:
	.loc 1 185 22 discriminator 1 view .LVU1511
	subq	%rdx, %r13
	leaq	8(%rax), %r14
	subq	%rdx, %r14
	movq	%rdx, -72(%rbp)
	movq	%rax, -80(%rbp)
.LVL726:
.L463:
	.loc 1 187 69 view .LVU1512
	movl	%r12d, %eax
	shrl	$28, %eax
	.loc 1 187 63 view .LVU1513
	movl	%eax, %eax
	.loc 1 187 26 view .LVU1514
	movzbl	.LC2(%rax), %esi
	movl	%r15d, %edx
	movq	%r13, %rdi
	call	_ZN6Kernel7Console9writeCharEmhNS0_10AttributesE
.LVL727:
	.loc 1 188 21 view .LVU1515
	sall	$4, %r12d
.LVL728:
	.loc 1 185 13 is_stmt 1 discriminator 2 view .LVU1516
	.loc 1 185 22 discriminator 1 view .LVU1517
	addq	$1, %r13
.LVL729:
	.loc 1 185 22 is_stmt 0 discriminator 1 view .LVU1518
	cmpq	%r14, %r13
	jne	.L463
	movq	-72(%rbp), %rdx
	movq	-80(%rbp), %rax
.LVL730:
.L462:
	.loc 1 190 43 view .LVU1519
	addq	$8, %rax
	subq	%rdx, %rax
	.loc 1 190 55 view .LVU1520
	movl	$0, %edx
	divq	-64(%rbp)
	.loc 1 190 27 view .LVU1521
	movq	%rdx, _ZN6Kernel7Console11s_cursorPosE(%rip)
	.loc 1 191 27 view .LVU1522
	movq	%rax, _ZN6Kernel7Console11s_cursorPosE+8(%rip)
	.loc 1 192 33 view .LVU1523
	call	_ZN6Kernel7Console20updateHardwareCursorEv
.LVL731:
	.loc 1 193 9 view .LVU1524
	jmp	.L444
.LVL732:
.L441:
	.loc 1 193 9 view .LVU1525
.LBE383:
.LBE382:
	.loc 1 251 36 view .LVU1526
	movl	%r15d, %esi
	movl	$37, %edi
	call	_ZN6Kernel7Console7putCharEhNS0_10AttributesE
.LVL733:
	.loc 1 252 36 view .LVU1527
	movzbl	1(%rbx), %edi
	movl	%r15d, %esi
	call	_ZN6Kernel7Console7putCharEhNS0_10AttributesE
.LVL734:
	.loc 1 254 25 view .LVU1528
	jmp	.L444
.L439:
	.loc 1 262 36 view .LVU1529
	movl	%r15d, %esi
	movl	$37, %edi
	call	_ZN6Kernel7Console7putCharEhNS0_10AttributesE
.LVL735:
	.loc 1 263 36 view .LVU1530
	movzbl	1(%rbx), %edi
	movl	%r15d, %esi
	call	_ZN6Kernel7Console7putCharEhNS0_10AttributesE
.LVL736:
	.loc 1 265 25 view .LVU1531
	jmp	.L444
.L438:
	.loc 1 274 36 view .LVU1532
	movl	%r15d, %esi
	movl	$37, %edi
	call	_ZN6Kernel7Console7putCharEhNS0_10AttributesE
.LVL737:
	.loc 1 275 36 view .LVU1533
	movzbl	1(%rbx), %edi
	movl	%r15d, %esi
	call	_ZN6Kernel7Console7putCharEhNS0_10AttributesE
.LVL738:
	.loc 1 277 25 view .LVU1534
	jmp	.L444
.L435:
	.loc 1 279 32 view .LVU1535
	movl	%r15d, %esi
	movl	$37, %edi
	call	_ZN6Kernel7Console7putCharEhNS0_10AttributesE
.LVL739:
	.loc 1 280 32 view .LVU1536
	movzbl	1(%rbx), %edi
	movl	%r15d, %esi
	call	_ZN6Kernel7Console7putCharEhNS0_10AttributesE
.LVL740:
	.loc 1 281 25 view .LVU1537
	addq	$2, %rbx
.LVL741:
	.loc 1 282 25 view .LVU1538
	jmp	.L434
.L432:
	.loc 1 293 28 view .LVU1539
	movzbl	%al, %edi
	movl	%r15d, %esi
	call	_ZN6Kernel7Console7putCharEhNS0_10AttributesE
.LVL742:
	.loc 1 295 17 view .LVU1540
	addq	$1, %rbx
.LVL743:
.L434:
	.loc 1 199 13 is_stmt 1 view .LVU1541
	movzbl	(%rbx), %eax
	testb	%al, %al
	je	.L430
.L464:
	.loc 1 201 17 is_stmt 0 view .LVU1542
	cmpb	$37, %al
	jne	.L432
	.loc 1 201 33 discriminator 1 view .LVU1543
	movzbl	1(%rbx), %edx
	testb	%dl, %dl
	je	.L432
.LVL744:
	.loc 1 203 21 view .LVU1544
	cmpb	$37, %dl
	je	.L485
	.loc 1 209 21 view .LVU1545
	subl	$98, %edx
	cmpb	$22, %dl
	ja	.L435
	movzbl	%dl, %edx
	jmp	*.L437(,%rdx,8)
	.section	.rodata._ZN6Kernel7Console9printImplIRjJS2_EEEvPKcNS0_10AttributesEOT_DpOT0_,"aG",@progbits,_ZN6Kernel7Console9printImplIRjJS2_EEEvPKcNS0_10AttributesEOT_DpOT0_,comdat
	.align 8
	.align 4
.L437:
	.quad	.L442
	.quad	.L441
	.quad	.L440
	.quad	.L435
	.quad	.L435
	.quad	.L435
	.quad	.L435
	.quad	.L435
	.quad	.L435
	.quad	.L435
	.quad	.L435
	.quad	.L435
	.quad	.L435
	.quad	.L435
	.quad	.L439
	.quad	.L435
	.quad	.L435
	.quad	.L438
	.quad	.L435
	.quad	.L435
	.quad	.L435
	.quad	.L435
	.quad	.L436
	.section	.text._ZN6Kernel7Console9printImplIRjJS2_EEEvPKcNS0_10AttributesEOT_DpOT0_,"axG",@progbits,_ZN6Kernel7Console9printImplIRjJS2_EEEvPKcNS0_10AttributesEOT_DpOT0_,comdat
.LVL745:
.L465:
.LBB390:
.LBB380:
	.loc 1 113 20 view .LVU1546
	movl	$0, %edx
	.loc 1 112 20 view .LVU1547
	movl	$0, %r13d
	jmp	.L451
.LVL746:
.L467:
	.loc 1 112 20 view .LVU1548
.LBE380:
.LBE390:
.LBB391:
.LBB389:
	.loc 1 178 20 view .LVU1549
	movl	$0, %edx
	.loc 1 177 20 view .LVU1550
	movl	$0, %r13d
	jmp	.L459
.LBE389:
.LBE391:
	.cfi_endproc
.LFE60:
	.size	_ZN6Kernel7Console9printImplIRjJS2_EEEvPKcNS0_10AttributesEOT_DpOT0_, .-_ZN6Kernel7Console9printImplIRjJS2_EEEvPKcNS0_10AttributesEOT_DpOT0_
	.section	.text._ZN6Kernel7Console9printImplIRyJRPKcEEEvS4_NS0_10AttributesEOT_DpOT0_,"axG",@progbits,_ZN6Kernel7Console9printImplIRyJRPKcEEEvS4_NS0_10AttributesEOT_DpOT0_,comdat
	.weak	_ZN6Kernel7Console9printImplIRyJRPKcEEEvS4_NS0_10AttributesEOT_DpOT0_
	.type	_ZN6Kernel7Console9printImplIRyJRPKcEEEvS4_NS0_10AttributesEOT_DpOT0_, @function
_ZN6Kernel7Console9printImplIRyJRPKcEEEvS4_NS0_10AttributesEOT_DpOT0_:
.LVL747:
.LFB79:
	.loc 1 197 21 is_stmt 1 view -0
	.cfi_startproc
	.loc 1 197 21 is_stmt 0 view .LVU1552
	pushq	%rbp
	.cfi_def_cfa_offset 16
	.cfi_offset 6, -16
	movq	%rsp, %rbp
	.cfi_def_cfa_register 6
	pushq	%r15
	pushq	%r14
	pushq	%r13
	pushq	%r12
	pushq	%rbx
	subq	$40, %rsp
	.cfi_offset 15, -24
	.cfi_offset 14, -32
	.cfi_offset 13, -40
	.cfi_offset 12, -48
	.cfi_offset 3, -56
	movq	%rdi, %rbx
	movq	%rdx, %r12
	movq	%rcx, -56(%rbp)
	movl	%esi, %r15d
	.loc 1 199 13 is_stmt 1 view .LVU1553
	movzbl	(%rdi), %eax
	testb	%al, %al
	jne	.L520
	jmp	.L486
.LVL748:
.L543:
	.loc 1 205 32 is_stmt 0 view .LVU1554
	movl	%r15d, %esi
	movl	$37, %edi
	call	_ZN6Kernel7Console7putCharEhNS0_10AttributesE
.LVL749:
	.loc 1 206 25 view .LVU1555
	addq	$2, %rbx
.LVL750:
	.loc 1 207 25 view .LVU1556
	jmp	.L490
.LVL751:
.L496:
	.loc 1 214 38 view .LVU1557
	movq	(%r12), %r13
.LVL752:
.LBB407:
.LBI407:
	.loc 1 131 21 is_stmt 1 view .LVU1558
.LBB408:
	.loc 1 133 13 is_stmt 0 view .LVU1559
	testq	%r13, %r13
	je	.L536
	.loc 1 138 38 view .LVU1560
	movq	_ZN6Kernel7Console11s_cursorPosE+8(%rip), %rdi
	.loc 1 138 71 view .LVU1561
	movq	_ZN6Kernel7Console11s_cursorPosE(%rip), %rax
	.loc 1 138 40 view .LVU1562
	imulq	_ZN6Kernel7Console8s_extentE(%rip), %rdi
	.loc 1 138 20 view .LVU1563
	leaq	(%rdi,%rax), %r9
.LVL753:
	.loc 1 147 24 is_stmt 1 view .LVU1564
	.loc 1 145 20 is_stmt 0 view .LVU1565
	movl	$0, %r14d
	.loc 1 149 50 view .LVU1566
	movq	%r9, %r12
.LVL754:
	.loc 1 149 50 view .LVU1567
	movq	%rbx, -64(%rbp)
.LVL755:
.L501:
	.loc 1 149 50 view .LVU1568
	movabsq	$-3689348814741910323, %rax
	mulq	%r13
	movq	%rdx, %rbx
	shrq	$3, %rbx
	leaq	(%rbx,%rbx,4), %rax
	addq	%rax, %rax
	movq	%r13, %rsi
	subq	%rax, %rsi
	.loc 1 149 44 view .LVU1569
	addl	$48, %esi
	.loc 1 149 26 view .LVU1570
	movzbl	%sil, %esi
	leaq	(%r12,%r14), %rdi
	movl	%r15d, %edx
	call	_ZN6Kernel7Console9writeCharEmhNS0_10AttributesE
.LVL756:
	movq	%r13, %rax
	.loc 1 150 21 view .LVU1571
	movq	%rbx, %r13
.LVL757:
	.loc 1 151 17 view .LVU1572
	addq	$1, %r14
.LVL758:
	.loc 1 147 24 is_stmt 1 view .LVU1573
	cmpq	$9, %rax
	ja	.L501
.LBB409:
	.loc 1 156 42 is_stmt 0 discriminator 1 view .LVU1574
	movq	%r12, %r9
	movq	-64(%rbp), %rbx
.LVL759:
	.loc 1 156 34 is_stmt 1 discriminator 1 view .LVU1575
	.loc 1 156 42 is_stmt 0 discriminator 1 view .LVU1576
	movq	%r14, %r10
	shrq	%r10
	.loc 1 156 34 discriminator 1 view .LVU1577
	cmpq	$1, %r14
	jbe	.L502
.LVL760:
	.loc 1 156 34 discriminator 1 view .LVU1578
	leaq	(%r12,%r14), %rax
	leaq	-2(%rax,%rax), %rcx
	addq	%r12, %rax
	.loc 1 156 25 view .LVU1579
	movl	$0, %r8d
	.loc 1 160 83 view .LVU1580
	leaq	-2(%rax,%rax), %r11
.LVL761:
.L503:
	.loc 1 158 68 view .LVU1581
	movq	_ZN6Kernel7Console12s_vgaAddressE(%rip), %rdx
	leaq	(%rdx,%rcx), %r12
	.loc 1 158 70 view .LVU1582
	movzbl	(%r12), %edi
.LVL762:
	.loc 1 159 65 view .LVU1583
	movzbl	1(%r12), %esi
.LVL763:
	.loc 1 160 83 view .LVU1584
	movq	%r11, %rax
	subq	%rcx, %rax
	addq	%rax, %rdx
	.loc 1 160 85 view .LVU1585
	movzbl	(%rdx), %edx
	.loc 1 160 61 view .LVU1586
	movb	%dl, (%r12)
	.loc 1 161 78 view .LVU1587
	movq	_ZN6Kernel7Console12s_vgaAddressE(%rip), %rdx
	leaq	(%rdx,%rax), %r12
	.loc 1 161 49 view .LVU1588
	addq	%rcx, %rdx
	.loc 1 161 80 view .LVU1589
	movzbl	1(%r12), %r12d
	.loc 1 161 56 view .LVU1590
	movb	%r12b, 1(%rdx)
	.loc 1 162 37 view .LVU1591
	movq	%rax, %rdx
	addq	_ZN6Kernel7Console12s_vgaAddressE(%rip), %rdx
	.loc 1 162 49 view .LVU1592
	movb	%dil, (%rdx)
	.loc 1 163 37 view .LVU1593
	addq	_ZN6Kernel7Console12s_vgaAddressE(%rip), %rax
	.loc 1 163 44 view .LVU1594
	movb	%sil, 1(%rax)
	.loc 1 156 13 is_stmt 1 discriminator 3 view .LVU1595
	addq	$1, %r8
.LVL764:
	.loc 1 156 34 discriminator 1 view .LVU1596
	subq	$2, %rcx
	cmpq	%r10, %r8
	jb	.L503
.LVL765:
.L502:
	.loc 1 156 34 is_stmt 0 discriminator 1 view .LVU1597
.LBE409:
	.loc 1 166 34 view .LVU1598
	leaq	(%r9,%r14), %rax
	.loc 1 166 43 view .LVU1599
	movl	$0, %edx
	divq	_ZN6Kernel7Console8s_extentE(%rip)
	.loc 1 166 27 view .LVU1600
	movq	%rdx, _ZN6Kernel7Console11s_cursorPosE(%rip)
	.loc 1 167 27 view .LVU1601
	movq	%rax, _ZN6Kernel7Console11s_cursorPosE+8(%rip)
	.loc 1 168 33 view .LVU1602
	call	_ZN6Kernel7Console20updateHardwareCursorEv
.LVL766:
	.loc 1 168 33 view .LVU1603
	jmp	.L500
.LVL767:
.L536:
	.loc 1 135 24 view .LVU1604
	movl	%r15d, %esi
	movl	$48, %edi
	call	_ZN6Kernel7Console7putCharEhNS0_10AttributesE
.LVL768:
	jmp	.L500
.LVL769:
.L498:
	.loc 1 135 24 view .LVU1605
.LBE408:
.LBE407:
	.loc 1 225 38 view .LVU1606
	movq	(%r12), %r12
.LVL770:
.LBB410:
.LBI410:
	.loc 1 107 21 is_stmt 1 view .LVU1607
.LBB411:
.LBB412:
.LBI412:
	.loc 1 87 21 view .LVU1608
.LBB413:
.LBB414:
	.loc 1 90 39 discriminator 1 view .LVU1609
	movq	$.LC0+1, %r14
	.loc 1 90 35 is_stmt 0 discriminator 1 view .LVU1610
	movl	$48, %r13d
.LBB415:
	.loc 1 92 55 view .LVU1611
	movq	$_ZN6Kernel7Console8s_extentE, %rax
	movq	(%rax), %rax
	movq	%rax, -64(%rbp)
	movq	%r12, -72(%rbp)
	movq	%rax, %r12
.LVL771:
	.loc 1 92 55 view .LVU1612
	jmp	.L506
.LVL772:
.L525:
	.loc 1 97 35 view .LVU1613
	movq	$0, _ZN6Kernel7Console11s_cursorPosE(%rip)
	.loc 1 98 35 view .LVU1614
	movq	_ZN6Kernel7Console11s_cursorPosE+8(%rip), %rax
	.loc 1 98 21 view .LVU1615
	addq	$1, %rax
	movq	%rax, _ZN6Kernel7Console11s_cursorPosE+8(%rip)
	.loc 1 99 37 view .LVU1616
	movq	_ZN6Kernel7Console11s_cursorPosE+8(%rip), %rax
	.loc 1 99 21 view .LVU1617
	movq	$_ZN6Kernel7Console8s_extentE, %rcx
	cmpq	8(%rcx), %rax
	jnb	.L537
.L504:
.LBE415:
	.loc 1 90 13 is_stmt 1 discriminator 2 view .LVU1618
.LVL773:
	.loc 1 90 39 discriminator 1 view .LVU1619
	addq	$1, %r14
.LVL774:
	.loc 1 90 35 is_stmt 0 discriminator 1 view .LVU1620
	movzbl	-1(%r14), %r13d
	.loc 1 90 39 discriminator 1 view .LVU1621
	testb	%r13b, %r13b
	je	.L538
.LVL775:
.L506:
.LBB416:
	.loc 1 92 42 view .LVU1622
	movq	_ZN6Kernel7Console11s_cursorPosE+8(%rip), %rdi
	.loc 1 92 75 view .LVU1623
	movq	_ZN6Kernel7Console11s_cursorPosE(%rip), %rax
.LVL776:
	.loc 1 93 26 view .LVU1624
	movzbl	%r13b, %esi
	.loc 1 92 44 view .LVU1625
	imulq	%r12, %rdi
.LVL777:
	.loc 1 92 24 view .LVU1626
	addq	%rax, %rdi
.LVL778:
	.loc 1 93 26 view .LVU1627
	movl	%r15d, %edx
	call	_ZN6Kernel7Console9writeCharEmhNS0_10AttributesE
.LVL779:
	.loc 1 94 31 view .LVU1628
	movq	_ZN6Kernel7Console11s_cursorPosE(%rip), %rax
	.loc 1 94 17 view .LVU1629
	addq	$1, %rax
	movq	%rax, _ZN6Kernel7Console11s_cursorPosE(%rip)
	.loc 1 95 33 view .LVU1630
	movq	_ZN6Kernel7Console11s_cursorPosE(%rip), %rax
	.loc 1 95 53 discriminator 2 view .LVU1631
	cmpq	%r12, %rax
	jnb	.L525
	cmpb	$10, %r13b
	je	.L525
	jmp	.L504
.L537:
	.loc 1 100 35 view .LVU1632
	movl	$1, %edi
	call	_ZN6Kernel7Console10scrollDownEm
.LVL780:
	jmp	.L504
.LVL781:
.L538:
	.loc 1 100 35 view .LVU1633
.LBE416:
.LBE414:
	.loc 1 103 33 view .LVU1634
	movq	-72(%rbp), %r12
	call	_ZN6Kernel7Console20updateHardwareCursorEv
.LVL782:
	.loc 1 103 33 view .LVU1635
.LBE413:
.LBE412:
	.loc 1 111 38 view .LVU1636
	movq	_ZN6Kernel7Console11s_cursorPosE+8(%rip), %rax
	.loc 1 111 71 view .LVU1637
	movq	_ZN6Kernel7Console11s_cursorPosE(%rip), %rdx
	.loc 1 111 40 view .LVU1638
	movq	-64(%rbp), %rcx
	imulq	%rcx, %rax
	.loc 1 111 20 view .LVU1639
	addq	%rdx, %rax
.LVL783:
	.loc 1 114 22 is_stmt 1 discriminator 1 view .LVU1640
	.loc 1 116 17 is_stmt 0 view .LVU1641
	testq	%r12, %r12
	js	.L521
	.loc 1 112 20 view .LVU1642
	movl	$0, %r13d
.LVL784:
.L508:
	.loc 1 118 21 view .LVU1643
	addq	%r12, %r12
.LVL785:
	.loc 1 114 13 is_stmt 1 view .LVU1644
	addq	$1, %r13
.LVL786:
	.loc 1 114 22 discriminator 1 view .LVU1645
	cmpq	$64, %r13
	je	.L539
	.loc 1 116 17 is_stmt 0 view .LVU1646
	testq	%r12, %r12
	jns	.L508
	movq	%r13, %rdx
.LVL787:
.L507:
	.loc 1 120 22 is_stmt 1 discriminator 1 view .LVU1647
	.loc 1 120 22 is_stmt 0 discriminator 1 view .LVU1648
	addq	%rax, %r13
.LVL788:
	.loc 1 120 22 discriminator 1 view .LVU1649
	subq	%rdx, %r13
	leaq	64(%rax), %r14
	subq	%rdx, %r14
	movq	%rax, -72(%rbp)
	movq	%rdx, -80(%rbp)
.LVL789:
.L511:
	.loc 1 122 56 view .LVU1650
	movq	%r12, %rax
	shrq	$63, %rax
	.loc 1 122 26 view .LVU1651
	leal	48(%rax), %esi
	movl	%r15d, %edx
	movq	%r13, %rdi
	call	_ZN6Kernel7Console9writeCharEmhNS0_10AttributesE
.LVL790:
	.loc 1 123 21 view .LVU1652
	addq	%r12, %r12
.LVL791:
	.loc 1 120 13 is_stmt 1 discriminator 2 view .LVU1653
	.loc 1 120 22 discriminator 1 view .LVU1654
	addq	$1, %r13
.LVL792:
	.loc 1 120 22 is_stmt 0 discriminator 1 view .LVU1655
	cmpq	%r14, %r13
	jne	.L511
	movq	-72(%rbp), %rax
	movq	-80(%rbp), %rdx
.LVL793:
.L510:
	.loc 1 125 43 view .LVU1656
	addq	$64, %rax
	subq	%rdx, %rax
	.loc 1 125 51 view .LVU1657
	movl	$0, %edx
	divq	-64(%rbp)
	.loc 1 125 27 view .LVU1658
	movq	%rdx, _ZN6Kernel7Console11s_cursorPosE(%rip)
	.loc 1 126 27 view .LVU1659
	movq	%rax, _ZN6Kernel7Console11s_cursorPosE+8(%rip)
	.loc 1 127 33 view .LVU1660
	call	_ZN6Kernel7Console20updateHardwareCursorEv
.LVL794:
.L500:
	.loc 1 127 33 view .LVU1661
.LBE411:
.LBE410:
	.loc 1 284 21 view .LVU1662
	leaq	2(%rbx), %rdi
.LVL795:
	.loc 1 286 34 view .LVU1663
	movq	-56(%rbp), %rdx
	movl	%r15d, %esi
	call	_ZN6Kernel7Console9printImplIRPKcJEEEvS3_NS0_10AttributesEOT_DpOT0_
.LVL796:
.L486:
	.loc 1 297 9 view .LVU1664
	addq	$40, %rsp
	popq	%rbx
	.cfi_remember_state
	.cfi_restore 3
	popq	%r12
	.cfi_restore 12
	popq	%r13
	.cfi_restore 13
	popq	%r14
	.cfi_restore 14
	popq	%r15
	.cfi_restore 15
.LVL797:
	.loc 1 297 9 view .LVU1665
	popq	%rbp
	.cfi_restore 6
	.cfi_def_cfa 7, 8
	ret
.LVL798:
.L539:
	.cfi_restore_state
.LBB419:
.LBB417:
	.loc 1 297 9 view .LVU1666
	movq	%r13, %rdx
	jmp	.L510
.LVL799:
.L492:
	.loc 1 297 9 view .LVU1667
.LBE417:
.LBE419:
	.loc 1 236 38 view .LVU1668
	movq	(%r12), %r12
.LVL800:
.LBB420:
.LBI420:
	.loc 1 172 21 is_stmt 1 view .LVU1669
.LBB421:
.LBB422:
.LBI422:
	.loc 1 87 21 view .LVU1670
.LBB423:
.LBB424:
	.loc 1 90 39 discriminator 1 view .LVU1671
	movq	$.LC1+1, %r14
	.loc 1 90 35 is_stmt 0 discriminator 1 view .LVU1672
	movl	$48, %r13d
.LBB425:
	.loc 1 92 55 view .LVU1673
	movq	$_ZN6Kernel7Console8s_extentE, %rax
	movq	(%rax), %rax
	movq	%rax, -64(%rbp)
	movq	%r12, -72(%rbp)
	movq	%rax, %r12
.LVL801:
	.loc 1 92 55 view .LVU1674
	jmp	.L514
.LVL802:
.L526:
	.loc 1 97 35 view .LVU1675
	movq	$0, _ZN6Kernel7Console11s_cursorPosE(%rip)
	.loc 1 98 35 view .LVU1676
	movq	_ZN6Kernel7Console11s_cursorPosE+8(%rip), %rax
	.loc 1 98 21 view .LVU1677
	addq	$1, %rax
	movq	%rax, _ZN6Kernel7Console11s_cursorPosE+8(%rip)
	.loc 1 99 37 view .LVU1678
	movq	_ZN6Kernel7Console11s_cursorPosE+8(%rip), %rax
	.loc 1 99 21 view .LVU1679
	movq	$_ZN6Kernel7Console8s_extentE, %rcx
	cmpq	8(%rcx), %rax
	jnb	.L540
.L512:
.LBE425:
	.loc 1 90 13 is_stmt 1 discriminator 2 view .LVU1680
.LVL803:
	.loc 1 90 39 discriminator 1 view .LVU1681
	addq	$1, %r14
.LVL804:
	.loc 1 90 35 is_stmt 0 discriminator 1 view .LVU1682
	movzbl	-1(%r14), %r13d
	.loc 1 90 39 discriminator 1 view .LVU1683
	testb	%r13b, %r13b
	je	.L541
.LVL805:
.L514:
.LBB426:
	.loc 1 92 42 view .LVU1684
	movq	_ZN6Kernel7Console11s_cursorPosE+8(%rip), %rdi
	.loc 1 92 75 view .LVU1685
	movq	_ZN6Kernel7Console11s_cursorPosE(%rip), %rax
.LVL806:
	.loc 1 93 26 view .LVU1686
	movzbl	%r13b, %esi
	.loc 1 92 44 view .LVU1687
	imulq	%r12, %rdi
.LVL807:
	.loc 1 92 24 view .LVU1688
	addq	%rax, %rdi
.LVL808:
	.loc 1 93 26 view .LVU1689
	movl	%r15d, %edx
	call	_ZN6Kernel7Console9writeCharEmhNS0_10AttributesE
.LVL809:
	.loc 1 94 31 view .LVU1690
	movq	_ZN6Kernel7Console11s_cursorPosE(%rip), %rax
	.loc 1 94 17 view .LVU1691
	addq	$1, %rax
	movq	%rax, _ZN6Kernel7Console11s_cursorPosE(%rip)
	.loc 1 95 33 view .LVU1692
	movq	_ZN6Kernel7Console11s_cursorPosE(%rip), %rax
	.loc 1 95 53 discriminator 2 view .LVU1693
	cmpq	%r12, %rax
	jnb	.L526
	cmpb	$10, %r13b
	je	.L526
	jmp	.L512
.L540:
	.loc 1 100 35 view .LVU1694
	movl	$1, %edi
	call	_ZN6Kernel7Console10scrollDownEm
.LVL810:
	jmp	.L512
.LVL811:
.L541:
	.loc 1 100 35 view .LVU1695
.LBE426:
.LBE424:
	.loc 1 103 33 view .LVU1696
	movq	-72(%rbp), %r12
	call	_ZN6Kernel7Console20updateHardwareCursorEv
.LVL812:
	.loc 1 103 33 view .LVU1697
.LBE423:
.LBE422:
	.loc 1 176 38 view .LVU1698
	movq	_ZN6Kernel7Console11s_cursorPosE+8(%rip), %rax
	.loc 1 176 71 view .LVU1699
	movq	_ZN6Kernel7Console11s_cursorPosE(%rip), %rdx
	.loc 1 176 40 view .LVU1700
	movq	-64(%rbp), %rcx
	imulq	%rcx, %rax
	.loc 1 176 20 view .LVU1701
	addq	%rdx, %rax
.LVL813:
	.loc 1 179 22 is_stmt 1 discriminator 1 view .LVU1702
	.loc 1 181 17 is_stmt 0 view .LVU1703
	movq	%r12, %rdx
	shrq	$60, %rdx
	jne	.L542
.LVL814:
.L516:
	.loc 1 183 21 view .LVU1704
	salq	$4, %r12
.LVL815:
	.loc 1 179 13 is_stmt 1 view .LVU1705
	addq	$1, %rdx
.LVL816:
	.loc 1 179 22 discriminator 1 view .LVU1706
	cmpq	$16, %rdx
	je	.L518
	.loc 1 181 17 is_stmt 0 view .LVU1707
	movq	%r12, %rcx
	shrq	$60, %rcx
	je	.L516
	movq	%rdx, %r13
.LVL817:
.L515:
	.loc 1 185 22 is_stmt 1 discriminator 1 view .LVU1708
	.loc 1 185 22 is_stmt 0 discriminator 1 view .LVU1709
	addq	%rax, %r13
.LVL818:
	.loc 1 185 22 discriminator 1 view .LVU1710
	subq	%rdx, %r13
	leaq	16(%rax), %r14
	subq	%rdx, %r14
	movq	%rax, -72(%rbp)
	movq	%rdx, -80(%rbp)
.LVL819:
.L519:
	.loc 1 187 69 view .LVU1711
	movq	%r12, %rax
	shrq	$60, %rax
	.loc 1 187 26 view .LVU1712
	movzbl	.LC2(%rax), %esi
	movl	%r15d, %edx
	movq	%r13, %rdi
	call	_ZN6Kernel7Console9writeCharEmhNS0_10AttributesE
.LVL820:
	.loc 1 188 21 view .LVU1713
	salq	$4, %r12
.LVL821:
	.loc 1 185 13 is_stmt 1 discriminator 2 view .LVU1714
	.loc 1 185 22 discriminator 1 view .LVU1715
	addq	$1, %r13
.LVL822:
	.loc 1 185 22 is_stmt 0 discriminator 1 view .LVU1716
	cmpq	%r14, %r13
	jne	.L519
	movq	-72(%rbp), %rax
	movq	-80(%rbp), %rdx
.LVL823:
.L518:
	.loc 1 190 43 view .LVU1717
	addq	$16, %rax
	subq	%rdx, %rax
	.loc 1 190 55 view .LVU1718
	movl	$0, %edx
	divq	-64(%rbp)
	.loc 1 190 27 view .LVU1719
	movq	%rdx, _ZN6Kernel7Console11s_cursorPosE(%rip)
	.loc 1 191 27 view .LVU1720
	movq	%rax, _ZN6Kernel7Console11s_cursorPosE+8(%rip)
	.loc 1 192 33 view .LVU1721
	call	_ZN6Kernel7Console20updateHardwareCursorEv
.LVL824:
	.loc 1 193 9 view .LVU1722
	jmp	.L500
.LVL825:
.L497:
	.loc 1 193 9 view .LVU1723
.LBE421:
.LBE420:
	.loc 1 251 36 view .LVU1724
	movl	%r15d, %esi
	movl	$37, %edi
	call	_ZN6Kernel7Console7putCharEhNS0_10AttributesE
.LVL826:
	.loc 1 252 36 view .LVU1725
	movzbl	1(%rbx), %edi
	movl	%r15d, %esi
	call	_ZN6Kernel7Console7putCharEhNS0_10AttributesE
.LVL827:
	.loc 1 254 25 view .LVU1726
	jmp	.L500
.L495:
	.loc 1 262 36 view .LVU1727
	movl	%r15d, %esi
	movl	$37, %edi
	call	_ZN6Kernel7Console7putCharEhNS0_10AttributesE
.LVL828:
	.loc 1 263 36 view .LVU1728
	movzbl	1(%rbx), %edi
	movl	%r15d, %esi
	call	_ZN6Kernel7Console7putCharEhNS0_10AttributesE
.LVL829:
	.loc 1 265 25 view .LVU1729
	jmp	.L500
.L494:
	.loc 1 274 36 view .LVU1730
	movl	%r15d, %esi
	movl	$37, %edi
	call	_ZN6Kernel7Console7putCharEhNS0_10AttributesE
.LVL830:
	.loc 1 275 36 view .LVU1731
	movzbl	1(%rbx), %edi
	movl	%r15d, %esi
	call	_ZN6Kernel7Console7putCharEhNS0_10AttributesE
.LVL831:
	.loc 1 277 25 view .LVU1732
	jmp	.L500
.L491:
	.loc 1 279 32 view .LVU1733
	movl	%r15d, %esi
	movl	$37, %edi
	call	_ZN6Kernel7Console7putCharEhNS0_10AttributesE
.LVL832:
	.loc 1 280 32 view .LVU1734
	movzbl	1(%rbx), %edi
	movl	%r15d, %esi
	call	_ZN6Kernel7Console7putCharEhNS0_10AttributesE
.LVL833:
	.loc 1 281 25 view .LVU1735
	addq	$2, %rbx
.LVL834:
	.loc 1 282 25 view .LVU1736
	jmp	.L490
.L488:
	.loc 1 293 28 view .LVU1737
	movzbl	%al, %edi
	movl	%r15d, %esi
	call	_ZN6Kernel7Console7putCharEhNS0_10AttributesE
.LVL835:
	.loc 1 295 17 view .LVU1738
	addq	$1, %rbx
.LVL836:
.L490:
	.loc 1 199 13 is_stmt 1 view .LVU1739
	movzbl	(%rbx), %eax
	testb	%al, %al
	je	.L486
.L520:
	.loc 1 201 17 is_stmt 0 view .LVU1740
	cmpb	$37, %al
	jne	.L488
	.loc 1 201 33 discriminator 1 view .LVU1741
	movzbl	1(%rbx), %edx
	testb	%dl, %dl
	je	.L488
.LVL837:
	.loc 1 203 21 view .LVU1742
	cmpb	$37, %dl
	je	.L543
	.loc 1 209 21 view .LVU1743
	subl	$98, %edx
	cmpb	$22, %dl
	ja	.L491
	movzbl	%dl, %edx
	jmp	*.L493(,%rdx,8)
	.section	.rodata._ZN6Kernel7Console9printImplIRyJRPKcEEEvS4_NS0_10AttributesEOT_DpOT0_,"aG",@progbits,_ZN6Kernel7Console9printImplIRyJRPKcEEEvS4_NS0_10AttributesEOT_DpOT0_,comdat
	.align 8
	.align 4
.L493:
	.quad	.L498
	.quad	.L497
	.quad	.L496
	.quad	.L491
	.quad	.L491
	.quad	.L491
	.quad	.L491
	.quad	.L491
	.quad	.L491
	.quad	.L491
	.quad	.L491
	.quad	.L491
	.quad	.L491
	.quad	.L491
	.quad	.L495
	.quad	.L491
	.quad	.L491
	.quad	.L494
	.quad	.L491
	.quad	.L491
	.quad	.L491
	.quad	.L491
	.quad	.L492
	.section	.text._ZN6Kernel7Console9printImplIRyJRPKcEEEvS4_NS0_10AttributesEOT_DpOT0_,"axG",@progbits,_ZN6Kernel7Console9printImplIRyJRPKcEEEvS4_NS0_10AttributesEOT_DpOT0_,comdat
.LVL838:
.L521:
.LBB428:
.LBB418:
	.loc 1 113 20 view .LVU1744
	movl	$0, %edx
	.loc 1 112 20 view .LVU1745
	movl	$0, %r13d
	jmp	.L507
.LVL839:
.L542:
	.loc 1 112 20 view .LVU1746
.LBE418:
.LBE428:
.LBB429:
.LBB427:
	.loc 1 178 20 view .LVU1747
	movl	$0, %edx
	.loc 1 177 20 view .LVU1748
	movl	$0, %r13d
	jmp	.L515
.LBE427:
.LBE429:
	.cfi_endproc
.LFE79:
	.size	_ZN6Kernel7Console9printImplIRyJRPKcEEEvS4_NS0_10AttributesEOT_DpOT0_, .-_ZN6Kernel7Console9printImplIRyJRPKcEEEvS4_NS0_10AttributesEOT_DpOT0_
	.section	.text._ZN6Kernel7Console9printImplIRyJS2_RPKcEEEvS4_NS0_10AttributesEOT_DpOT0_,"axG",@progbits,_ZN6Kernel7Console9printImplIRyJS2_RPKcEEEvS4_NS0_10AttributesEOT_DpOT0_,comdat
	.weak	_ZN6Kernel7Console9printImplIRyJS2_RPKcEEEvS4_NS0_10AttributesEOT_DpOT0_
	.type	_ZN6Kernel7Console9printImplIRyJS2_RPKcEEEvS4_NS0_10AttributesEOT_DpOT0_, @function
_ZN6Kernel7Console9printImplIRyJS2_RPKcEEEvS4_NS0_10AttributesEOT_DpOT0_:
.LVL840:
.LFB78:
	.loc 1 197 21 is_stmt 1 view -0
	.cfi_startproc
	.loc 1 197 21 is_stmt 0 view .LVU1750
	pushq	%rbp
	.cfi_def_cfa_offset 16
	.cfi_offset 6, -16
	movq	%rsp, %rbp
	.cfi_def_cfa_register 6
	pushq	%r15
	pushq	%r14
	pushq	%r13
	pushq	%r12
	pushq	%rbx
	subq	$56, %rsp
	.cfi_offset 15, -24
	.cfi_offset 14, -32
	.cfi_offset 13, -40
	.cfi_offset 12, -48
	.cfi_offset 3, -56
	movq	%rdi, %r15
	movq	%rdx, %rbx
	movq	%rcx, -56(%rbp)
	movq	%r8, -64(%rbp)
	movl	%esi, %r14d
	.loc 1 199 13 is_stmt 1 view .LVU1751
	movzbl	(%rdi), %eax
	testb	%al, %al
	jne	.L578
	jmp	.L544
.LVL841:
.L601:
	.loc 1 205 32 is_stmt 0 view .LVU1752
	movl	%r14d, %esi
	movl	$37, %edi
	call	_ZN6Kernel7Console7putCharEhNS0_10AttributesE
.LVL842:
	.loc 1 206 25 view .LVU1753
	addq	$2, %r15
.LVL843:
	.loc 1 207 25 view .LVU1754
	jmp	.L548
.LVL844:
.L554:
	.loc 1 214 38 view .LVU1755
	movq	(%rbx), %r12
.LVL845:
.LBB445:
.LBI445:
	.loc 1 131 21 is_stmt 1 view .LVU1756
.LBB446:
	.loc 1 133 13 is_stmt 0 view .LVU1757
	testq	%r12, %r12
	je	.L594
	.loc 1 138 38 view .LVU1758
	movq	_ZN6Kernel7Console11s_cursorPosE+8(%rip), %rdx
	.loc 1 138 71 view .LVU1759
	movq	_ZN6Kernel7Console11s_cursorPosE(%rip), %rax
	.loc 1 138 40 view .LVU1760
	imulq	_ZN6Kernel7Console8s_extentE(%rip), %rdx
	.loc 1 138 20 view .LVU1761
	leaq	(%rdx,%rax), %r9
.LVL846:
	.loc 1 147 24 is_stmt 1 view .LVU1762
	.loc 1 145 20 is_stmt 0 view .LVU1763
	movl	$0, %r13d
	.loc 1 149 50 view .LVU1764
	movq	%r15, -72(%rbp)
	movq	%r9, %r15
.LVL847:
.L559:
	.loc 1 149 50 view .LVU1765
	movabsq	$-3689348814741910323, %rax
	mulq	%r12
	movq	%rdx, %rbx
	shrq	$3, %rbx
	leaq	(%rbx,%rbx,4), %rax
	addq	%rax, %rax
	movq	%r12, %rsi
	subq	%rax, %rsi
	.loc 1 149 44 view .LVU1766
	addl	$48, %esi
	.loc 1 149 26 view .LVU1767
	movzbl	%sil, %esi
	leaq	(%r15,%r13), %rdi
	movl	%r14d, %edx
	call	_ZN6Kernel7Console9writeCharEmhNS0_10AttributesE
.LVL848:
	movq	%r12, %rax
	.loc 1 150 21 view .LVU1768
	movq	%rbx, %r12
.LVL849:
	.loc 1 151 17 view .LVU1769
	addq	$1, %r13
.LVL850:
	.loc 1 147 24 is_stmt 1 view .LVU1770
	cmpq	$9, %rax
	ja	.L559
.LBB447:
	.loc 1 156 42 is_stmt 0 discriminator 1 view .LVU1771
	movq	%r15, %r9
	movq	-72(%rbp), %r15
.LVL851:
	.loc 1 156 34 is_stmt 1 discriminator 1 view .LVU1772
	.loc 1 156 42 is_stmt 0 discriminator 1 view .LVU1773
	movq	%r13, %r10
	shrq	%r10
	.loc 1 156 34 discriminator 1 view .LVU1774
	cmpq	$1, %r13
	jbe	.L560
	.loc 1 156 34 discriminator 1 view .LVU1775
	leaq	(%r9,%r13), %rax
	leaq	-2(%rax,%rax), %rcx
	addq	%r9, %rax
	.loc 1 156 25 view .LVU1776
	movl	$0, %r8d
	.loc 1 160 83 view .LVU1777
	leaq	-2(%rax,%rax), %r11
.LVL852:
.L561:
	.loc 1 158 68 view .LVU1778
	movq	_ZN6Kernel7Console12s_vgaAddressE(%rip), %rdx
	leaq	(%rdx,%rcx), %rbx
	.loc 1 158 70 view .LVU1779
	movzbl	(%rbx), %edi
.LVL853:
	.loc 1 159 65 view .LVU1780
	movzbl	1(%rbx), %esi
.LVL854:
	.loc 1 160 83 view .LVU1781
	movq	%r11, %rax
	subq	%rcx, %rax
	addq	%rax, %rdx
	.loc 1 160 85 view .LVU1782
	movzbl	(%rdx), %edx
	.loc 1 160 61 view .LVU1783
	movb	%dl, (%rbx)
	.loc 1 161 78 view .LVU1784
	movq	_ZN6Kernel7Console12s_vgaAddressE(%rip), %rdx
	leaq	(%rdx,%rax), %rbx
	.loc 1 161 49 view .LVU1785
	addq	%rcx, %rdx
	.loc 1 161 80 view .LVU1786
	movzbl	1(%rbx), %ebx
	.loc 1 161 56 view .LVU1787
	movb	%bl, 1(%rdx)
	.loc 1 162 37 view .LVU1788
	movq	%rax, %rdx
	addq	_ZN6Kernel7Console12s_vgaAddressE(%rip), %rdx
	.loc 1 162 49 view .LVU1789
	movb	%dil, (%rdx)
	.loc 1 163 37 view .LVU1790
	addq	_ZN6Kernel7Console12s_vgaAddressE(%rip), %rax
	.loc 1 163 44 view .LVU1791
	movb	%sil, 1(%rax)
	.loc 1 156 13 is_stmt 1 discriminator 3 view .LVU1792
	addq	$1, %r8
.LVL855:
	.loc 1 156 34 discriminator 1 view .LVU1793
	subq	$2, %rcx
	cmpq	%r10, %r8
	jb	.L561
.LVL856:
.L560:
	.loc 1 156 34 is_stmt 0 discriminator 1 view .LVU1794
.LBE447:
	.loc 1 166 34 view .LVU1795
	leaq	(%r9,%r13), %rax
	.loc 1 166 43 view .LVU1796
	movl	$0, %edx
	divq	_ZN6Kernel7Console8s_extentE(%rip)
	.loc 1 166 27 view .LVU1797
	movq	%rdx, _ZN6Kernel7Console11s_cursorPosE(%rip)
	.loc 1 167 27 view .LVU1798
	movq	%rax, _ZN6Kernel7Console11s_cursorPosE+8(%rip)
	.loc 1 168 33 view .LVU1799
	call	_ZN6Kernel7Console20updateHardwareCursorEv
.LVL857:
	.loc 1 168 33 view .LVU1800
	jmp	.L558
.LVL858:
.L594:
	.loc 1 135 24 view .LVU1801
	movl	%r14d, %esi
	movl	$48, %edi
	call	_ZN6Kernel7Console7putCharEhNS0_10AttributesE
.LVL859:
	jmp	.L558
.LVL860:
.L556:
	.loc 1 135 24 view .LVU1802
.LBE446:
.LBE445:
	.loc 1 225 38 view .LVU1803
	movq	(%rbx), %rbx
.LVL861:
.LBB448:
.LBI448:
	.loc 1 107 21 is_stmt 1 view .LVU1804
.LBB449:
.LBB450:
.LBI450:
	.loc 1 87 21 view .LVU1805
.LBB451:
.LBB452:
	.loc 1 90 39 discriminator 1 view .LVU1806
	movq	$.LC0+1, %r13
	.loc 1 90 35 is_stmt 0 discriminator 1 view .LVU1807
	movl	$48, %r12d
.LBB453:
	.loc 1 92 55 view .LVU1808
	movq	$_ZN6Kernel7Console8s_extentE, %rax
	movq	(%rax), %rax
	movq	%rax, -72(%rbp)
	movq	%rbx, -80(%rbp)
	movq	%rax, %rbx
.LVL862:
	.loc 1 92 55 view .LVU1809
	jmp	.L564
.LVL863:
.L583:
	.loc 1 97 35 view .LVU1810
	movq	$0, _ZN6Kernel7Console11s_cursorPosE(%rip)
	.loc 1 98 35 view .LVU1811
	movq	_ZN6Kernel7Console11s_cursorPosE+8(%rip), %rax
	.loc 1 98 21 view .LVU1812
	addq	$1, %rax
	movq	%rax, _ZN6Kernel7Console11s_cursorPosE+8(%rip)
	.loc 1 99 37 view .LVU1813
	movq	_ZN6Kernel7Console11s_cursorPosE+8(%rip), %rax
	.loc 1 99 21 view .LVU1814
	movq	$_ZN6Kernel7Console8s_extentE, %rcx
	cmpq	8(%rcx), %rax
	jnb	.L595
.L562:
.LBE453:
	.loc 1 90 13 is_stmt 1 discriminator 2 view .LVU1815
.LVL864:
	.loc 1 90 39 discriminator 1 view .LVU1816
	addq	$1, %r13
.LVL865:
	.loc 1 90 35 is_stmt 0 discriminator 1 view .LVU1817
	movzbl	-1(%r13), %r12d
	.loc 1 90 39 discriminator 1 view .LVU1818
	testb	%r12b, %r12b
	je	.L596
.LVL866:
.L564:
.LBB454:
	.loc 1 92 42 view .LVU1819
	movq	_ZN6Kernel7Console11s_cursorPosE+8(%rip), %rdi
	.loc 1 92 75 view .LVU1820
	movq	_ZN6Kernel7Console11s_cursorPosE(%rip), %rax
.LVL867:
	.loc 1 93 26 view .LVU1821
	movzbl	%r12b, %esi
	.loc 1 92 44 view .LVU1822
	imulq	%rbx, %rdi
.LVL868:
	.loc 1 92 24 view .LVU1823
	addq	%rax, %rdi
.LVL869:
	.loc 1 93 26 view .LVU1824
	movl	%r14d, %edx
	call	_ZN6Kernel7Console9writeCharEmhNS0_10AttributesE
.LVL870:
	.loc 1 94 31 view .LVU1825
	movq	_ZN6Kernel7Console11s_cursorPosE(%rip), %rax
	.loc 1 94 17 view .LVU1826
	addq	$1, %rax
	movq	%rax, _ZN6Kernel7Console11s_cursorPosE(%rip)
	.loc 1 95 33 view .LVU1827
	movq	_ZN6Kernel7Console11s_cursorPosE(%rip), %rax
	.loc 1 95 53 discriminator 2 view .LVU1828
	cmpq	%rbx, %rax
	jnb	.L583
	cmpb	$10, %r12b
	je	.L583
	jmp	.L562
.L595:
	.loc 1 100 35 view .LVU1829
	movl	$1, %edi
	call	_ZN6Kernel7Console10scrollDownEm
.LVL871:
	jmp	.L562
.LVL872:
.L596:
	.loc 1 100 35 view .LVU1830
.LBE454:
.LBE452:
	.loc 1 103 33 view .LVU1831
	movq	-80(%rbp), %rbx
	call	_ZN6Kernel7Console20updateHardwareCursorEv
.LVL873:
	.loc 1 103 33 view .LVU1832
.LBE451:
.LBE450:
	.loc 1 111 38 view .LVU1833
	movq	_ZN6Kernel7Console11s_cursorPosE+8(%rip), %rdx
	.loc 1 111 71 view .LVU1834
	movq	_ZN6Kernel7Console11s_cursorPosE(%rip), %rax
	.loc 1 111 40 view .LVU1835
	movq	-72(%rbp), %rcx
	imulq	%rcx, %rdx
	.loc 1 111 20 view .LVU1836
	addq	%rdx, %rax
.LVL874:
	.loc 1 114 22 is_stmt 1 discriminator 1 view .LVU1837
	.loc 1 116 17 is_stmt 0 view .LVU1838
	testq	%rbx, %rbx
	js	.L579
	.loc 1 112 20 view .LVU1839
	movl	$0, %r12d
.LVL875:
.L566:
	.loc 1 118 21 view .LVU1840
	addq	%rbx, %rbx
.LVL876:
	.loc 1 114 13 is_stmt 1 view .LVU1841
	addq	$1, %r12
.LVL877:
	.loc 1 114 22 discriminator 1 view .LVU1842
	cmpq	$64, %r12
	je	.L597
	.loc 1 116 17 is_stmt 0 view .LVU1843
	testq	%rbx, %rbx
	jns	.L566
	movq	%r12, %rdx
.LVL878:
.L565:
	.loc 1 120 22 is_stmt 1 discriminator 1 view .LVU1844
	.loc 1 120 22 is_stmt 0 discriminator 1 view .LVU1845
	addq	%rax, %r12
.LVL879:
	.loc 1 120 22 discriminator 1 view .LVU1846
	subq	%rdx, %r12
	leaq	64(%rax), %r13
	subq	%rdx, %r13
	movq	%rax, -80(%rbp)
	movq	%rdx, -88(%rbp)
.LVL880:
.L569:
	.loc 1 122 56 view .LVU1847
	movq	%rbx, %rax
	shrq	$63, %rax
	.loc 1 122 26 view .LVU1848
	leal	48(%rax), %esi
	movl	%r14d, %edx
	movq	%r12, %rdi
	call	_ZN6Kernel7Console9writeCharEmhNS0_10AttributesE
.LVL881:
	.loc 1 123 21 view .LVU1849
	addq	%rbx, %rbx
.LVL882:
	.loc 1 120 13 is_stmt 1 discriminator 2 view .LVU1850
	.loc 1 120 22 discriminator 1 view .LVU1851
	addq	$1, %r12
.LVL883:
	.loc 1 120 22 is_stmt 0 discriminator 1 view .LVU1852
	cmpq	%r13, %r12
	jne	.L569
	movq	-80(%rbp), %rax
	movq	-88(%rbp), %rdx
.LVL884:
.L568:
	.loc 1 125 43 view .LVU1853
	addq	$64, %rax
	subq	%rdx, %rax
	.loc 1 125 51 view .LVU1854
	movl	$0, %edx
	divq	-72(%rbp)
	.loc 1 125 27 view .LVU1855
	movq	%rdx, _ZN6Kernel7Console11s_cursorPosE(%rip)
	.loc 1 126 27 view .LVU1856
	movq	%rax, _ZN6Kernel7Console11s_cursorPosE+8(%rip)
	.loc 1 127 33 view .LVU1857
	call	_ZN6Kernel7Console20updateHardwareCursorEv
.LVL885:
.L558:
	.loc 1 127 33 view .LVU1858
.LBE449:
.LBE448:
	.loc 1 284 21 view .LVU1859
	leaq	2(%r15), %rdi
.LVL886:
	.loc 1 286 34 view .LVU1860
	movq	-64(%rbp), %rcx
	movq	-56(%rbp), %rdx
	movl	%r14d, %esi
	call	_ZN6Kernel7Console9printImplIRyJRPKcEEEvS4_NS0_10AttributesEOT_DpOT0_
.LVL887:
.L544:
	.loc 1 297 9 view .LVU1861
	addq	$56, %rsp
	popq	%rbx
	.cfi_remember_state
	.cfi_restore 3
	popq	%r12
	.cfi_restore 12
	popq	%r13
	.cfi_restore 13
	popq	%r14
	.cfi_restore 14
.LVL888:
	.loc 1 297 9 view .LVU1862
	popq	%r15
	.cfi_restore 15
	popq	%rbp
	.cfi_restore 6
	.cfi_def_cfa 7, 8
	ret
.LVL889:
.L597:
	.cfi_restore_state
.LBB457:
.LBB455:
	.loc 1 297 9 view .LVU1863
	movq	%r12, %rdx
	jmp	.L568
.LVL890:
.L550:
	.loc 1 297 9 view .LVU1864
.LBE455:
.LBE457:
	.loc 1 236 38 view .LVU1865
	movq	(%rbx), %rbx
.LVL891:
.LBB458:
.LBI458:
	.loc 1 172 21 is_stmt 1 view .LVU1866
.LBB459:
.LBB460:
.LBI460:
	.loc 1 87 21 view .LVU1867
.LBB461:
.LBB462:
	.loc 1 90 39 discriminator 1 view .LVU1868
	movq	$.LC1+1, %r13
	.loc 1 90 35 is_stmt 0 discriminator 1 view .LVU1869
	movl	$48, %r12d
.LBB463:
	.loc 1 92 55 view .LVU1870
	movq	$_ZN6Kernel7Console8s_extentE, %rax
	movq	(%rax), %rax
	movq	%rax, -72(%rbp)
	movq	%rbx, -80(%rbp)
	movq	%rax, %rbx
.LVL892:
	.loc 1 92 55 view .LVU1871
	jmp	.L572
.LVL893:
.L584:
	.loc 1 97 35 view .LVU1872
	movq	$0, _ZN6Kernel7Console11s_cursorPosE(%rip)
	.loc 1 98 35 view .LVU1873
	movq	_ZN6Kernel7Console11s_cursorPosE+8(%rip), %rax
	.loc 1 98 21 view .LVU1874
	addq	$1, %rax
	movq	%rax, _ZN6Kernel7Console11s_cursorPosE+8(%rip)
	.loc 1 99 37 view .LVU1875
	movq	_ZN6Kernel7Console11s_cursorPosE+8(%rip), %rax
	.loc 1 99 21 view .LVU1876
	movq	$_ZN6Kernel7Console8s_extentE, %rcx
	cmpq	8(%rcx), %rax
	jnb	.L598
.L570:
.LBE463:
	.loc 1 90 13 is_stmt 1 discriminator 2 view .LVU1877
.LVL894:
	.loc 1 90 39 discriminator 1 view .LVU1878
	addq	$1, %r13
.LVL895:
	.loc 1 90 35 is_stmt 0 discriminator 1 view .LVU1879
	movzbl	-1(%r13), %r12d
	.loc 1 90 39 discriminator 1 view .LVU1880
	testb	%r12b, %r12b
	je	.L599
.LVL896:
.L572:
.LBB464:
	.loc 1 92 42 view .LVU1881
	movq	_ZN6Kernel7Console11s_cursorPosE+8(%rip), %rdi
	.loc 1 92 75 view .LVU1882
	movq	_ZN6Kernel7Console11s_cursorPosE(%rip), %rax
.LVL897:
	.loc 1 93 26 view .LVU1883
	movzbl	%r12b, %esi
	.loc 1 92 44 view .LVU1884
	imulq	%rbx, %rdi
.LVL898:
	.loc 1 92 24 view .LVU1885
	addq	%rax, %rdi
.LVL899:
	.loc 1 93 26 view .LVU1886
	movl	%r14d, %edx
	call	_ZN6Kernel7Console9writeCharEmhNS0_10AttributesE
.LVL900:
	.loc 1 94 31 view .LVU1887
	movq	_ZN6Kernel7Console11s_cursorPosE(%rip), %rax
	.loc 1 94 17 view .LVU1888
	addq	$1, %rax
	movq	%rax, _ZN6Kernel7Console11s_cursorPosE(%rip)
	.loc 1 95 33 view .LVU1889
	movq	_ZN6Kernel7Console11s_cursorPosE(%rip), %rax
	.loc 1 95 53 discriminator 2 view .LVU1890
	cmpq	%rbx, %rax
	jnb	.L584
	cmpb	$10, %r12b
	je	.L584
	jmp	.L570
.L598:
	.loc 1 100 35 view .LVU1891
	movl	$1, %edi
	call	_ZN6Kernel7Console10scrollDownEm
.LVL901:
	jmp	.L570
.LVL902:
.L599:
	.loc 1 100 35 view .LVU1892
.LBE464:
.LBE462:
	.loc 1 103 33 view .LVU1893
	movq	-80(%rbp), %rbx
	call	_ZN6Kernel7Console20updateHardwareCursorEv
.LVL903:
	.loc 1 103 33 view .LVU1894
.LBE461:
.LBE460:
	.loc 1 176 38 view .LVU1895
	movq	_ZN6Kernel7Console11s_cursorPosE+8(%rip), %rax
	.loc 1 176 71 view .LVU1896
	movq	_ZN6Kernel7Console11s_cursorPosE(%rip), %rdx
	.loc 1 176 40 view .LVU1897
	movq	-72(%rbp), %rcx
	imulq	%rcx, %rax
	.loc 1 176 20 view .LVU1898
	addq	%rdx, %rax
.LVL904:
	.loc 1 179 22 is_stmt 1 discriminator 1 view .LVU1899
	.loc 1 181 17 is_stmt 0 view .LVU1900
	movq	%rbx, %rcx
	shrq	$60, %rcx
	jne	.L600
.LVL905:
.L574:
	.loc 1 183 21 view .LVU1901
	salq	$4, %rbx
.LVL906:
	.loc 1 179 13 is_stmt 1 view .LVU1902
	addq	$1, %rcx
.LVL907:
	.loc 1 179 22 discriminator 1 view .LVU1903
	cmpq	$16, %rcx
	je	.L576
	.loc 1 181 17 is_stmt 0 view .LVU1904
	movq	%rbx, %rsi
	shrq	$60, %rsi
	je	.L574
	movq	%rcx, %r12
.LVL908:
.L573:
	.loc 1 185 22 is_stmt 1 discriminator 1 view .LVU1905
	.loc 1 185 22 is_stmt 0 discriminator 1 view .LVU1906
	addq	%rax, %r12
.LVL909:
	.loc 1 185 22 discriminator 1 view .LVU1907
	subq	%rcx, %r12
	leaq	16(%rax), %r13
	subq	%rcx, %r13
	movq	%rax, -80(%rbp)
	movq	%rcx, -88(%rbp)
.LVL910:
.L577:
	.loc 1 187 69 view .LVU1908
	movq	%rbx, %rax
	shrq	$60, %rax
	.loc 1 187 26 view .LVU1909
	movzbl	.LC2(%rax), %esi
	movl	%r14d, %edx
	movq	%r12, %rdi
	call	_ZN6Kernel7Console9writeCharEmhNS0_10AttributesE
.LVL911:
	.loc 1 188 21 view .LVU1910
	salq	$4, %rbx
.LVL912:
	.loc 1 185 13 is_stmt 1 discriminator 2 view .LVU1911
	.loc 1 185 22 discriminator 1 view .LVU1912
	addq	$1, %r12
.LVL913:
	.loc 1 185 22 is_stmt 0 discriminator 1 view .LVU1913
	cmpq	%r13, %r12
	jne	.L577
	movq	-80(%rbp), %rax
	movq	-88(%rbp), %rcx
.LVL914:
.L576:
	.loc 1 190 43 view .LVU1914
	addq	$16, %rax
	subq	%rcx, %rax
	.loc 1 190 55 view .LVU1915
	movl	$0, %edx
	divq	-72(%rbp)
	.loc 1 190 27 view .LVU1916
	movq	%rdx, _ZN6Kernel7Console11s_cursorPosE(%rip)
	.loc 1 191 27 view .LVU1917
	movq	%rax, _ZN6Kernel7Console11s_cursorPosE+8(%rip)
	.loc 1 192 33 view .LVU1918
	call	_ZN6Kernel7Console20updateHardwareCursorEv
.LVL915:
	.loc 1 193 9 view .LVU1919
	jmp	.L558
.LVL916:
.L555:
	.loc 1 193 9 view .LVU1920
.LBE459:
.LBE458:
	.loc 1 251 36 view .LVU1921
	movl	%r14d, %esi
	movl	$37, %edi
	call	_ZN6Kernel7Console7putCharEhNS0_10AttributesE
.LVL917:
	.loc 1 252 36 view .LVU1922
	movzbl	1(%r15), %edi
	movl	%r14d, %esi
	call	_ZN6Kernel7Console7putCharEhNS0_10AttributesE
.LVL918:
	.loc 1 254 25 view .LVU1923
	jmp	.L558
.L553:
	.loc 1 262 36 view .LVU1924
	movl	%r14d, %esi
	movl	$37, %edi
	call	_ZN6Kernel7Console7putCharEhNS0_10AttributesE
.LVL919:
	.loc 1 263 36 view .LVU1925
	movzbl	1(%r15), %edi
	movl	%r14d, %esi
	call	_ZN6Kernel7Console7putCharEhNS0_10AttributesE
.LVL920:
	.loc 1 265 25 view .LVU1926
	jmp	.L558
.L552:
	.loc 1 274 36 view .LVU1927
	movl	%r14d, %esi
	movl	$37, %edi
	call	_ZN6Kernel7Console7putCharEhNS0_10AttributesE
.LVL921:
	.loc 1 275 36 view .LVU1928
	movzbl	1(%r15), %edi
	movl	%r14d, %esi
	call	_ZN6Kernel7Console7putCharEhNS0_10AttributesE
.LVL922:
	.loc 1 277 25 view .LVU1929
	jmp	.L558
.L549:
	.loc 1 279 32 view .LVU1930
	movl	%r14d, %esi
	movl	$37, %edi
	call	_ZN6Kernel7Console7putCharEhNS0_10AttributesE
.LVL923:
	.loc 1 280 32 view .LVU1931
	movzbl	1(%r15), %edi
	movl	%r14d, %esi
	call	_ZN6Kernel7Console7putCharEhNS0_10AttributesE
.LVL924:
	.loc 1 281 25 view .LVU1932
	addq	$2, %r15
.LVL925:
	.loc 1 282 25 view .LVU1933
	jmp	.L548
.L546:
	.loc 1 293 28 view .LVU1934
	movzbl	%al, %edi
	movl	%r14d, %esi
	call	_ZN6Kernel7Console7putCharEhNS0_10AttributesE
.LVL926:
	.loc 1 295 17 view .LVU1935
	addq	$1, %r15
.LVL927:
.L548:
	.loc 1 199 13 is_stmt 1 view .LVU1936
	movzbl	(%r15), %eax
	testb	%al, %al
	je	.L544
.L578:
	.loc 1 201 17 is_stmt 0 view .LVU1937
	cmpb	$37, %al
	jne	.L546
	.loc 1 201 33 discriminator 1 view .LVU1938
	movzbl	1(%r15), %edx
	testb	%dl, %dl
	je	.L546
.LVL928:
	.loc 1 203 21 view .LVU1939
	cmpb	$37, %dl
	je	.L601
	.loc 1 209 21 view .LVU1940
	subl	$98, %edx
	cmpb	$22, %dl
	ja	.L549
	movzbl	%dl, %edx
	jmp	*.L551(,%rdx,8)
	.section	.rodata._ZN6Kernel7Console9printImplIRyJS2_RPKcEEEvS4_NS0_10AttributesEOT_DpOT0_,"aG",@progbits,_ZN6Kernel7Console9printImplIRyJS2_RPKcEEEvS4_NS0_10AttributesEOT_DpOT0_,comdat
	.align 8
	.align 4
.L551:
	.quad	.L556
	.quad	.L555
	.quad	.L554
	.quad	.L549
	.quad	.L549
	.quad	.L549
	.quad	.L549
	.quad	.L549
	.quad	.L549
	.quad	.L549
	.quad	.L549
	.quad	.L549
	.quad	.L549
	.quad	.L549
	.quad	.L553
	.quad	.L549
	.quad	.L549
	.quad	.L552
	.quad	.L549
	.quad	.L549
	.quad	.L549
	.quad	.L549
	.quad	.L550
	.section	.text._ZN6Kernel7Console9printImplIRyJS2_RPKcEEEvS4_NS0_10AttributesEOT_DpOT0_,"axG",@progbits,_ZN6Kernel7Console9printImplIRyJS2_RPKcEEEvS4_NS0_10AttributesEOT_DpOT0_,comdat
.LVL929:
.L579:
.LBB466:
.LBB456:
	.loc 1 113 20 view .LVU1941
	movl	$0, %edx
	.loc 1 112 20 view .LVU1942
	movl	$0, %r12d
	jmp	.L565
.LVL930:
.L600:
	.loc 1 112 20 view .LVU1943
.LBE456:
.LBE466:
.LBB467:
.LBB465:
	.loc 1 178 20 view .LVU1944
	movl	$0, %ecx
	.loc 1 177 20 view .LVU1945
	movl	$0, %r12d
	jmp	.L573
.LBE465:
.LBE467:
	.cfi_endproc
.LFE78:
	.size	_ZN6Kernel7Console9printImplIRyJS2_RPKcEEEvS4_NS0_10AttributesEOT_DpOT0_, .-_ZN6Kernel7Console9printImplIRyJS2_RPKcEEEvS4_NS0_10AttributesEOT_DpOT0_
	.section	.text._ZN6Kernel7Console9printImplIRyJS2_S2_RPKcEEEvS4_NS0_10AttributesEOT_DpOT0_,"axG",@progbits,_ZN6Kernel7Console9printImplIRyJS2_S2_RPKcEEEvS4_NS0_10AttributesEOT_DpOT0_,comdat
	.weak	_ZN6Kernel7Console9printImplIRyJS2_S2_RPKcEEEvS4_NS0_10AttributesEOT_DpOT0_
	.type	_ZN6Kernel7Console9printImplIRyJS2_S2_RPKcEEEvS4_NS0_10AttributesEOT_DpOT0_, @function
_ZN6Kernel7Console9printImplIRyJS2_S2_RPKcEEEvS4_NS0_10AttributesEOT_DpOT0_:
.LVL931:
.LFB77:
	.loc 1 197 21 is_stmt 1 view -0
	.cfi_startproc
	.loc 1 197 21 is_stmt 0 view .LVU1947
	pushq	%rbp
	.cfi_def_cfa_offset 16
	.cfi_offset 6, -16
	movq	%rsp, %rbp
	.cfi_def_cfa_register 6
	pushq	%r15
	pushq	%r14
	pushq	%r13
	pushq	%r12
	pushq	%rbx
	subq	$56, %rsp
	.cfi_offset 15, -24
	.cfi_offset 14, -32
	.cfi_offset 13, -40
	.cfi_offset 12, -48
	.cfi_offset 3, -56
	movq	%rdi, %r15
	movq	%rdx, %rbx
	movq	%rcx, -56(%rbp)
	movq	%r8, -64(%rbp)
	movq	%r9, -72(%rbp)
	movl	%esi, %r14d
	.loc 1 199 13 is_stmt 1 view .LVU1948
	movzbl	(%rdi), %eax
	testb	%al, %al
	jne	.L636
	jmp	.L602
.LVL932:
.L659:
	.loc 1 205 32 is_stmt 0 view .LVU1949
	movl	%r14d, %esi
	movl	$37, %edi
	call	_ZN6Kernel7Console7putCharEhNS0_10AttributesE
.LVL933:
	.loc 1 206 25 view .LVU1950
	addq	$2, %r15
.LVL934:
	.loc 1 207 25 view .LVU1951
	jmp	.L606
.LVL935:
.L612:
	.loc 1 214 38 view .LVU1952
	movq	(%rbx), %r12
.LVL936:
.LBB483:
.LBI483:
	.loc 1 131 21 is_stmt 1 view .LVU1953
.LBB484:
	.loc 1 133 13 is_stmt 0 view .LVU1954
	testq	%r12, %r12
	je	.L652
	.loc 1 138 38 view .LVU1955
	movq	_ZN6Kernel7Console11s_cursorPosE+8(%rip), %rdx
	.loc 1 138 71 view .LVU1956
	movq	_ZN6Kernel7Console11s_cursorPosE(%rip), %rax
	.loc 1 138 40 view .LVU1957
	imulq	_ZN6Kernel7Console8s_extentE(%rip), %rdx
	.loc 1 138 20 view .LVU1958
	leaq	(%rdx,%rax), %r9
.LVL937:
	.loc 1 147 24 is_stmt 1 view .LVU1959
	.loc 1 145 20 is_stmt 0 view .LVU1960
	movl	$0, %r13d
	.loc 1 149 50 view .LVU1961
	movq	%r15, -80(%rbp)
	movq	%r9, %r15
.LVL938:
.L617:
	.loc 1 149 50 view .LVU1962
	movabsq	$-3689348814741910323, %rax
	mulq	%r12
	movq	%rdx, %rbx
	shrq	$3, %rbx
	leaq	(%rbx,%rbx,4), %rax
	addq	%rax, %rax
	movq	%r12, %rsi
	subq	%rax, %rsi
	.loc 1 149 44 view .LVU1963
	addl	$48, %esi
	.loc 1 149 26 view .LVU1964
	movzbl	%sil, %esi
	leaq	(%r15,%r13), %rdi
	movl	%r14d, %edx
	call	_ZN6Kernel7Console9writeCharEmhNS0_10AttributesE
.LVL939:
	movq	%r12, %rax
	.loc 1 150 21 view .LVU1965
	movq	%rbx, %r12
.LVL940:
	.loc 1 151 17 view .LVU1966
	addq	$1, %r13
.LVL941:
	.loc 1 147 24 is_stmt 1 view .LVU1967
	cmpq	$9, %rax
	ja	.L617
.LBB485:
	.loc 1 156 42 is_stmt 0 discriminator 1 view .LVU1968
	movq	%r15, %r9
	movq	-80(%rbp), %r15
.LVL942:
	.loc 1 156 34 is_stmt 1 discriminator 1 view .LVU1969
	.loc 1 156 42 is_stmt 0 discriminator 1 view .LVU1970
	movq	%r13, %r10
	shrq	%r10
	.loc 1 156 34 discriminator 1 view .LVU1971
	cmpq	$1, %r13
	jbe	.L618
	.loc 1 156 34 discriminator 1 view .LVU1972
	leaq	(%r9,%r13), %rax
	leaq	-2(%rax,%rax), %rcx
	addq	%r9, %rax
	.loc 1 156 25 view .LVU1973
	movl	$0, %r8d
	.loc 1 160 83 view .LVU1974
	leaq	-2(%rax,%rax), %r11
.LVL943:
.L619:
	.loc 1 158 68 view .LVU1975
	movq	_ZN6Kernel7Console12s_vgaAddressE(%rip), %rdx
	leaq	(%rdx,%rcx), %rbx
	.loc 1 158 70 view .LVU1976
	movzbl	(%rbx), %edi
.LVL944:
	.loc 1 159 65 view .LVU1977
	movzbl	1(%rbx), %esi
.LVL945:
	.loc 1 160 83 view .LVU1978
	movq	%r11, %rax
	subq	%rcx, %rax
	addq	%rax, %rdx
	.loc 1 160 85 view .LVU1979
	movzbl	(%rdx), %edx
	.loc 1 160 61 view .LVU1980
	movb	%dl, (%rbx)
	.loc 1 161 78 view .LVU1981
	movq	_ZN6Kernel7Console12s_vgaAddressE(%rip), %rdx
	leaq	(%rdx,%rax), %rbx
	.loc 1 161 49 view .LVU1982
	addq	%rcx, %rdx
	.loc 1 161 80 view .LVU1983
	movzbl	1(%rbx), %ebx
	.loc 1 161 56 view .LVU1984
	movb	%bl, 1(%rdx)
	.loc 1 162 37 view .LVU1985
	movq	%rax, %rdx
	addq	_ZN6Kernel7Console12s_vgaAddressE(%rip), %rdx
	.loc 1 162 49 view .LVU1986
	movb	%dil, (%rdx)
	.loc 1 163 37 view .LVU1987
	addq	_ZN6Kernel7Console12s_vgaAddressE(%rip), %rax
	.loc 1 163 44 view .LVU1988
	movb	%sil, 1(%rax)
	.loc 1 156 13 is_stmt 1 discriminator 3 view .LVU1989
	addq	$1, %r8
.LVL946:
	.loc 1 156 34 discriminator 1 view .LVU1990
	subq	$2, %rcx
	cmpq	%r10, %r8
	jb	.L619
.LVL947:
.L618:
	.loc 1 156 34 is_stmt 0 discriminator 1 view .LVU1991
.LBE485:
	.loc 1 166 34 view .LVU1992
	leaq	(%r9,%r13), %rax
	.loc 1 166 43 view .LVU1993
	movl	$0, %edx
	divq	_ZN6Kernel7Console8s_extentE(%rip)
	.loc 1 166 27 view .LVU1994
	movq	%rdx, _ZN6Kernel7Console11s_cursorPosE(%rip)
	.loc 1 167 27 view .LVU1995
	movq	%rax, _ZN6Kernel7Console11s_cursorPosE+8(%rip)
	.loc 1 168 33 view .LVU1996
	call	_ZN6Kernel7Console20updateHardwareCursorEv
.LVL948:
	.loc 1 168 33 view .LVU1997
	jmp	.L616
.LVL949:
.L652:
	.loc 1 135 24 view .LVU1998
	movl	%r14d, %esi
	movl	$48, %edi
	call	_ZN6Kernel7Console7putCharEhNS0_10AttributesE
.LVL950:
	jmp	.L616
.LVL951:
.L614:
	.loc 1 135 24 view .LVU1999
.LBE484:
.LBE483:
	.loc 1 225 38 view .LVU2000
	movq	(%rbx), %rbx
.LVL952:
.LBB486:
.LBI486:
	.loc 1 107 21 is_stmt 1 view .LVU2001
.LBB487:
.LBB488:
.LBI488:
	.loc 1 87 21 view .LVU2002
.LBB489:
.LBB490:
	.loc 1 90 39 discriminator 1 view .LVU2003
	movq	$.LC0+1, %r13
	.loc 1 90 35 is_stmt 0 discriminator 1 view .LVU2004
	movl	$48, %r12d
.LBB491:
	.loc 1 92 55 view .LVU2005
	movq	$_ZN6Kernel7Console8s_extentE, %rax
	movq	(%rax), %rax
	movq	%rax, -80(%rbp)
	movq	%rbx, -88(%rbp)
	movq	%rax, %rbx
.LVL953:
	.loc 1 92 55 view .LVU2006
	jmp	.L622
.LVL954:
.L641:
	.loc 1 97 35 view .LVU2007
	movq	$0, _ZN6Kernel7Console11s_cursorPosE(%rip)
	.loc 1 98 35 view .LVU2008
	movq	_ZN6Kernel7Console11s_cursorPosE+8(%rip), %rax
	.loc 1 98 21 view .LVU2009
	addq	$1, %rax
	movq	%rax, _ZN6Kernel7Console11s_cursorPosE+8(%rip)
	.loc 1 99 37 view .LVU2010
	movq	_ZN6Kernel7Console11s_cursorPosE+8(%rip), %rax
	.loc 1 99 21 view .LVU2011
	movq	$_ZN6Kernel7Console8s_extentE, %rcx
	cmpq	8(%rcx), %rax
	jnb	.L653
.L620:
.LBE491:
	.loc 1 90 13 is_stmt 1 discriminator 2 view .LVU2012
.LVL955:
	.loc 1 90 39 discriminator 1 view .LVU2013
	addq	$1, %r13
.LVL956:
	.loc 1 90 35 is_stmt 0 discriminator 1 view .LVU2014
	movzbl	-1(%r13), %r12d
	.loc 1 90 39 discriminator 1 view .LVU2015
	testb	%r12b, %r12b
	je	.L654
.LVL957:
.L622:
.LBB492:
	.loc 1 92 42 view .LVU2016
	movq	_ZN6Kernel7Console11s_cursorPosE+8(%rip), %rdi
	.loc 1 92 75 view .LVU2017
	movq	_ZN6Kernel7Console11s_cursorPosE(%rip), %rax
.LVL958:
	.loc 1 93 26 view .LVU2018
	movzbl	%r12b, %esi
	.loc 1 92 44 view .LVU2019
	imulq	%rbx, %rdi
.LVL959:
	.loc 1 92 24 view .LVU2020
	addq	%rax, %rdi
.LVL960:
	.loc 1 93 26 view .LVU2021
	movl	%r14d, %edx
	call	_ZN6Kernel7Console9writeCharEmhNS0_10AttributesE
.LVL961:
	.loc 1 94 31 view .LVU2022
	movq	_ZN6Kernel7Console11s_cursorPosE(%rip), %rax
	.loc 1 94 17 view .LVU2023
	addq	$1, %rax
	movq	%rax, _ZN6Kernel7Console11s_cursorPosE(%rip)
	.loc 1 95 33 view .LVU2024
	movq	_ZN6Kernel7Console11s_cursorPosE(%rip), %rax
	.loc 1 95 53 discriminator 2 view .LVU2025
	cmpq	%rbx, %rax
	jnb	.L641
	cmpb	$10, %r12b
	je	.L641
	jmp	.L620
.L653:
	.loc 1 100 35 view .LVU2026
	movl	$1, %edi
	call	_ZN6Kernel7Console10scrollDownEm
.LVL962:
	jmp	.L620
.LVL963:
.L654:
	.loc 1 100 35 view .LVU2027
.LBE492:
.LBE490:
	.loc 1 103 33 view .LVU2028
	movq	-88(%rbp), %rbx
	call	_ZN6Kernel7Console20updateHardwareCursorEv
.LVL964:
	.loc 1 103 33 view .LVU2029
.LBE489:
.LBE488:
	.loc 1 111 38 view .LVU2030
	movq	_ZN6Kernel7Console11s_cursorPosE+8(%rip), %rdx
	.loc 1 111 71 view .LVU2031
	movq	_ZN6Kernel7Console11s_cursorPosE(%rip), %rax
	.loc 1 111 40 view .LVU2032
	movq	-80(%rbp), %rcx
	imulq	%rcx, %rdx
	.loc 1 111 20 view .LVU2033
	addq	%rdx, %rax
.LVL965:
	.loc 1 114 22 is_stmt 1 discriminator 1 view .LVU2034
	.loc 1 116 17 is_stmt 0 view .LVU2035
	testq	%rbx, %rbx
	js	.L637
	.loc 1 112 20 view .LVU2036
	movl	$0, %r12d
.LVL966:
.L624:
	.loc 1 118 21 view .LVU2037
	addq	%rbx, %rbx
.LVL967:
	.loc 1 114 13 is_stmt 1 view .LVU2038
	addq	$1, %r12
.LVL968:
	.loc 1 114 22 discriminator 1 view .LVU2039
	cmpq	$64, %r12
	je	.L655
	.loc 1 116 17 is_stmt 0 view .LVU2040
	testq	%rbx, %rbx
	jns	.L624
	movq	%r12, %rdx
.LVL969:
.L623:
	.loc 1 120 22 is_stmt 1 discriminator 1 view .LVU2041
	.loc 1 120 22 is_stmt 0 discriminator 1 view .LVU2042
	addq	%rax, %r12
.LVL970:
	.loc 1 120 22 discriminator 1 view .LVU2043
	subq	%rdx, %r12
	leaq	64(%rax), %r13
	subq	%rdx, %r13
	movq	%rax, -88(%rbp)
	movq	%rdx, -96(%rbp)
.LVL971:
.L627:
	.loc 1 122 56 view .LVU2044
	movq	%rbx, %rax
	shrq	$63, %rax
	.loc 1 122 26 view .LVU2045
	leal	48(%rax), %esi
	movl	%r14d, %edx
	movq	%r12, %rdi
	call	_ZN6Kernel7Console9writeCharEmhNS0_10AttributesE
.LVL972:
	.loc 1 123 21 view .LVU2046
	addq	%rbx, %rbx
.LVL973:
	.loc 1 120 13 is_stmt 1 discriminator 2 view .LVU2047
	.loc 1 120 22 discriminator 1 view .LVU2048
	addq	$1, %r12
.LVL974:
	.loc 1 120 22 is_stmt 0 discriminator 1 view .LVU2049
	cmpq	%r13, %r12
	jne	.L627
	movq	-88(%rbp), %rax
	movq	-96(%rbp), %rdx
.LVL975:
.L626:
	.loc 1 125 43 view .LVU2050
	addq	$64, %rax
	subq	%rdx, %rax
	.loc 1 125 51 view .LVU2051
	movl	$0, %edx
	divq	-80(%rbp)
	.loc 1 125 27 view .LVU2052
	movq	%rdx, _ZN6Kernel7Console11s_cursorPosE(%rip)
	.loc 1 126 27 view .LVU2053
	movq	%rax, _ZN6Kernel7Console11s_cursorPosE+8(%rip)
	.loc 1 127 33 view .LVU2054
	call	_ZN6Kernel7Console20updateHardwareCursorEv
.LVL976:
.L616:
	.loc 1 127 33 view .LVU2055
.LBE487:
.LBE486:
	.loc 1 284 21 view .LVU2056
	leaq	2(%r15), %rdi
.LVL977:
	.loc 1 286 34 view .LVU2057
	movq	-72(%rbp), %r8
	movq	-64(%rbp), %rcx
	movq	-56(%rbp), %rdx
	movl	%r14d, %esi
	call	_ZN6Kernel7Console9printImplIRyJS2_RPKcEEEvS4_NS0_10AttributesEOT_DpOT0_
.LVL978:
.L602:
	.loc 1 297 9 view .LVU2058
	addq	$56, %rsp
	popq	%rbx
	.cfi_remember_state
	.cfi_restore 3
	popq	%r12
	.cfi_restore 12
	popq	%r13
	.cfi_restore 13
	popq	%r14
	.cfi_restore 14
.LVL979:
	.loc 1 297 9 view .LVU2059
	popq	%r15
	.cfi_restore 15
	popq	%rbp
	.cfi_restore 6
	.cfi_def_cfa 7, 8
	ret
.LVL980:
.L655:
	.cfi_restore_state
.LBB495:
.LBB493:
	.loc 1 297 9 view .LVU2060
	movq	%r12, %rdx
	jmp	.L626
.LVL981:
.L608:
	.loc 1 297 9 view .LVU2061
.LBE493:
.LBE495:
	.loc 1 236 38 view .LVU2062
	movq	(%rbx), %rbx
.LVL982:
.LBB496:
.LBI496:
	.loc 1 172 21 is_stmt 1 view .LVU2063
.LBB497:
.LBB498:
.LBI498:
	.loc 1 87 21 view .LVU2064
.LBB499:
.LBB500:
	.loc 1 90 39 discriminator 1 view .LVU2065
	movq	$.LC1+1, %r13
	.loc 1 90 35 is_stmt 0 discriminator 1 view .LVU2066
	movl	$48, %r12d
.LBB501:
	.loc 1 92 55 view .LVU2067
	movq	$_ZN6Kernel7Console8s_extentE, %rax
	movq	(%rax), %rax
	movq	%rax, -80(%rbp)
	movq	%rbx, -88(%rbp)
	movq	%rax, %rbx
.LVL983:
	.loc 1 92 55 view .LVU2068
	jmp	.L630
.LVL984:
.L642:
	.loc 1 97 35 view .LVU2069
	movq	$0, _ZN6Kernel7Console11s_cursorPosE(%rip)
	.loc 1 98 35 view .LVU2070
	movq	_ZN6Kernel7Console11s_cursorPosE+8(%rip), %rax
	.loc 1 98 21 view .LVU2071
	addq	$1, %rax
	movq	%rax, _ZN6Kernel7Console11s_cursorPosE+8(%rip)
	.loc 1 99 37 view .LVU2072
	movq	_ZN6Kernel7Console11s_cursorPosE+8(%rip), %rax
	.loc 1 99 21 view .LVU2073
	movq	$_ZN6Kernel7Console8s_extentE, %rcx
	cmpq	8(%rcx), %rax
	jnb	.L656
.L628:
.LBE501:
	.loc 1 90 13 is_stmt 1 discriminator 2 view .LVU2074
.LVL985:
	.loc 1 90 39 discriminator 1 view .LVU2075
	addq	$1, %r13
.LVL986:
	.loc 1 90 35 is_stmt 0 discriminator 1 view .LVU2076
	movzbl	-1(%r13), %r12d
	.loc 1 90 39 discriminator 1 view .LVU2077
	testb	%r12b, %r12b
	je	.L657
.LVL987:
.L630:
.LBB502:
	.loc 1 92 42 view .LVU2078
	movq	_ZN6Kernel7Console11s_cursorPosE+8(%rip), %rdi
	.loc 1 92 75 view .LVU2079
	movq	_ZN6Kernel7Console11s_cursorPosE(%rip), %rax
.LVL988:
	.loc 1 93 26 view .LVU2080
	movzbl	%r12b, %esi
	.loc 1 92 44 view .LVU2081
	imulq	%rbx, %rdi
.LVL989:
	.loc 1 92 24 view .LVU2082
	addq	%rax, %rdi
.LVL990:
	.loc 1 93 26 view .LVU2083
	movl	%r14d, %edx
	call	_ZN6Kernel7Console9writeCharEmhNS0_10AttributesE
.LVL991:
	.loc 1 94 31 view .LVU2084
	movq	_ZN6Kernel7Console11s_cursorPosE(%rip), %rax
	.loc 1 94 17 view .LVU2085
	addq	$1, %rax
	movq	%rax, _ZN6Kernel7Console11s_cursorPosE(%rip)
	.loc 1 95 33 view .LVU2086
	movq	_ZN6Kernel7Console11s_cursorPosE(%rip), %rax
	.loc 1 95 53 discriminator 2 view .LVU2087
	cmpq	%rbx, %rax
	jnb	.L642
	cmpb	$10, %r12b
	je	.L642
	jmp	.L628
.L656:
	.loc 1 100 35 view .LVU2088
	movl	$1, %edi
	call	_ZN6Kernel7Console10scrollDownEm
.LVL992:
	jmp	.L628
.LVL993:
.L657:
	.loc 1 100 35 view .LVU2089
.LBE502:
.LBE500:
	.loc 1 103 33 view .LVU2090
	movq	-88(%rbp), %rbx
	call	_ZN6Kernel7Console20updateHardwareCursorEv
.LVL994:
	.loc 1 103 33 view .LVU2091
.LBE499:
.LBE498:
	.loc 1 176 38 view .LVU2092
	movq	_ZN6Kernel7Console11s_cursorPosE+8(%rip), %rax
	.loc 1 176 71 view .LVU2093
	movq	_ZN6Kernel7Console11s_cursorPosE(%rip), %rdx
	.loc 1 176 40 view .LVU2094
	movq	-80(%rbp), %rcx
	imulq	%rcx, %rax
	.loc 1 176 20 view .LVU2095
	addq	%rdx, %rax
.LVL995:
	.loc 1 179 22 is_stmt 1 discriminator 1 view .LVU2096
	.loc 1 181 17 is_stmt 0 view .LVU2097
	movq	%rbx, %rcx
	shrq	$60, %rcx
	jne	.L658
.LVL996:
.L632:
	.loc 1 183 21 view .LVU2098
	salq	$4, %rbx
.LVL997:
	.loc 1 179 13 is_stmt 1 view .LVU2099
	addq	$1, %rcx
.LVL998:
	.loc 1 179 22 discriminator 1 view .LVU2100
	cmpq	$16, %rcx
	je	.L634
	.loc 1 181 17 is_stmt 0 view .LVU2101
	movq	%rbx, %rsi
	shrq	$60, %rsi
	je	.L632
	movq	%rcx, %r12
.LVL999:
.L631:
	.loc 1 185 22 is_stmt 1 discriminator 1 view .LVU2102
	.loc 1 185 22 is_stmt 0 discriminator 1 view .LVU2103
	addq	%rax, %r12
.LVL1000:
	.loc 1 185 22 discriminator 1 view .LVU2104
	subq	%rcx, %r12
	leaq	16(%rax), %r13
	subq	%rcx, %r13
	movq	%rax, -88(%rbp)
	movq	%rcx, -96(%rbp)
.LVL1001:
.L635:
	.loc 1 187 69 view .LVU2105
	movq	%rbx, %rax
	shrq	$60, %rax
	.loc 1 187 26 view .LVU2106
	movzbl	.LC2(%rax), %esi
	movl	%r14d, %edx
	movq	%r12, %rdi
	call	_ZN6Kernel7Console9writeCharEmhNS0_10AttributesE
.LVL1002:
	.loc 1 188 21 view .LVU2107
	salq	$4, %rbx
.LVL1003:
	.loc 1 185 13 is_stmt 1 discriminator 2 view .LVU2108
	.loc 1 185 22 discriminator 1 view .LVU2109
	addq	$1, %r12
.LVL1004:
	.loc 1 185 22 is_stmt 0 discriminator 1 view .LVU2110
	cmpq	%r13, %r12
	jne	.L635
	movq	-88(%rbp), %rax
	movq	-96(%rbp), %rcx
.LVL1005:
.L634:
	.loc 1 190 43 view .LVU2111
	addq	$16, %rax
	subq	%rcx, %rax
	.loc 1 190 55 view .LVU2112
	movl	$0, %edx
	divq	-80(%rbp)
	.loc 1 190 27 view .LVU2113
	movq	%rdx, _ZN6Kernel7Console11s_cursorPosE(%rip)
	.loc 1 191 27 view .LVU2114
	movq	%rax, _ZN6Kernel7Console11s_cursorPosE+8(%rip)
	.loc 1 192 33 view .LVU2115
	call	_ZN6Kernel7Console20updateHardwareCursorEv
.LVL1006:
	.loc 1 193 9 view .LVU2116
	jmp	.L616
.LVL1007:
.L613:
	.loc 1 193 9 view .LVU2117
.LBE497:
.LBE496:
	.loc 1 251 36 view .LVU2118
	movl	%r14d, %esi
	movl	$37, %edi
	call	_ZN6Kernel7Console7putCharEhNS0_10AttributesE
.LVL1008:
	.loc 1 252 36 view .LVU2119
	movzbl	1(%r15), %edi
	movl	%r14d, %esi
	call	_ZN6Kernel7Console7putCharEhNS0_10AttributesE
.LVL1009:
	.loc 1 254 25 view .LVU2120
	jmp	.L616
.L611:
	.loc 1 262 36 view .LVU2121
	movl	%r14d, %esi
	movl	$37, %edi
	call	_ZN6Kernel7Console7putCharEhNS0_10AttributesE
.LVL1010:
	.loc 1 263 36 view .LVU2122
	movzbl	1(%r15), %edi
	movl	%r14d, %esi
	call	_ZN6Kernel7Console7putCharEhNS0_10AttributesE
.LVL1011:
	.loc 1 265 25 view .LVU2123
	jmp	.L616
.L610:
	.loc 1 274 36 view .LVU2124
	movl	%r14d, %esi
	movl	$37, %edi
	call	_ZN6Kernel7Console7putCharEhNS0_10AttributesE
.LVL1012:
	.loc 1 275 36 view .LVU2125
	movzbl	1(%r15), %edi
	movl	%r14d, %esi
	call	_ZN6Kernel7Console7putCharEhNS0_10AttributesE
.LVL1013:
	.loc 1 277 25 view .LVU2126
	jmp	.L616
.L607:
	.loc 1 279 32 view .LVU2127
	movl	%r14d, %esi
	movl	$37, %edi
	call	_ZN6Kernel7Console7putCharEhNS0_10AttributesE
.LVL1014:
	.loc 1 280 32 view .LVU2128
	movzbl	1(%r15), %edi
	movl	%r14d, %esi
	call	_ZN6Kernel7Console7putCharEhNS0_10AttributesE
.LVL1015:
	.loc 1 281 25 view .LVU2129
	addq	$2, %r15
.LVL1016:
	.loc 1 282 25 view .LVU2130
	jmp	.L606
.L604:
	.loc 1 293 28 view .LVU2131
	movzbl	%al, %edi
	movl	%r14d, %esi
	call	_ZN6Kernel7Console7putCharEhNS0_10AttributesE
.LVL1017:
	.loc 1 295 17 view .LVU2132
	addq	$1, %r15
.LVL1018:
.L606:
	.loc 1 199 13 is_stmt 1 view .LVU2133
	movzbl	(%r15), %eax
	testb	%al, %al
	je	.L602
.L636:
	.loc 1 201 17 is_stmt 0 view .LVU2134
	cmpb	$37, %al
	jne	.L604
	.loc 1 201 33 discriminator 1 view .LVU2135
	movzbl	1(%r15), %edx
	testb	%dl, %dl
	je	.L604
.LVL1019:
	.loc 1 203 21 view .LVU2136
	cmpb	$37, %dl
	je	.L659
	.loc 1 209 21 view .LVU2137
	subl	$98, %edx
	cmpb	$22, %dl
	ja	.L607
	movzbl	%dl, %edx
	jmp	*.L609(,%rdx,8)
	.section	.rodata._ZN6Kernel7Console9printImplIRyJS2_S2_RPKcEEEvS4_NS0_10AttributesEOT_DpOT0_,"aG",@progbits,_ZN6Kernel7Console9printImplIRyJS2_S2_RPKcEEEvS4_NS0_10AttributesEOT_DpOT0_,comdat
	.align 8
	.align 4
.L609:
	.quad	.L614
	.quad	.L613
	.quad	.L612
	.quad	.L607
	.quad	.L607
	.quad	.L607
	.quad	.L607
	.quad	.L607
	.quad	.L607
	.quad	.L607
	.quad	.L607
	.quad	.L607
	.quad	.L607
	.quad	.L607
	.quad	.L611
	.quad	.L607
	.quad	.L607
	.quad	.L610
	.quad	.L607
	.quad	.L607
	.quad	.L607
	.quad	.L607
	.quad	.L608
	.section	.text._ZN6Kernel7Console9printImplIRyJS2_S2_RPKcEEEvS4_NS0_10AttributesEOT_DpOT0_,"axG",@progbits,_ZN6Kernel7Console9printImplIRyJS2_S2_RPKcEEEvS4_NS0_10AttributesEOT_DpOT0_,comdat
.LVL1020:
.L637:
.LBB504:
.LBB494:
	.loc 1 113 20 view .LVU2138
	movl	$0, %edx
	.loc 1 112 20 view .LVU2139
	movl	$0, %r12d
	jmp	.L623
.LVL1021:
.L658:
	.loc 1 112 20 view .LVU2140
.LBE494:
.LBE504:
.LBB505:
.LBB503:
	.loc 1 178 20 view .LVU2141
	movl	$0, %ecx
	.loc 1 177 20 view .LVU2142
	movl	$0, %r12d
	jmp	.L631
.LBE503:
.LBE505:
	.cfi_endproc
.LFE77:
	.size	_ZN6Kernel7Console9printImplIRyJS2_S2_RPKcEEEvS4_NS0_10AttributesEOT_DpOT0_, .-_ZN6Kernel7Console9printImplIRyJS2_S2_RPKcEEEvS4_NS0_10AttributesEOT_DpOT0_
	.section	.text._ZN6Kernel7Console9printImplIRjJRyS3_S3_RPKcEEEvS5_NS0_10AttributesEOT_DpOT0_,"axG",@progbits,_ZN6Kernel7Console9printImplIRjJRyS3_S3_RPKcEEEvS5_NS0_10AttributesEOT_DpOT0_,comdat
	.weak	_ZN6Kernel7Console9printImplIRjJRyS3_S3_RPKcEEEvS5_NS0_10AttributesEOT_DpOT0_
	.type	_ZN6Kernel7Console9printImplIRjJRyS3_S3_RPKcEEEvS5_NS0_10AttributesEOT_DpOT0_, @function
_ZN6Kernel7Console9printImplIRjJRyS3_S3_RPKcEEEvS5_NS0_10AttributesEOT_DpOT0_:
.LVL1022:
.LFB65:
	.loc 1 197 21 is_stmt 1 view -0
	.cfi_startproc
	.loc 1 197 21 is_stmt 0 view .LVU2144
	pushq	%rbp
	.cfi_def_cfa_offset 16
	.cfi_offset 6, -16
	movq	%rsp, %rbp
	.cfi_def_cfa_register 6
	pushq	%r15
	pushq	%r14
	pushq	%r13
	pushq	%r12
	pushq	%rbx
	subq	$56, %rsp
	.cfi_offset 15, -24
	.cfi_offset 14, -32
	.cfi_offset 13, -40
	.cfi_offset 12, -48
	.cfi_offset 3, -56
	movq	%rdi, %r15
	movq	%rdx, %rbx
	movq	%rcx, -56(%rbp)
	movq	%r8, -64(%rbp)
	movq	%r9, -72(%rbp)
	movl	%esi, %r14d
	.loc 1 199 13 is_stmt 1 view .LVU2145
	movzbl	(%rdi), %eax
	testb	%al, %al
	jne	.L694
	jmp	.L660
.LVL1023:
.L715:
	.loc 1 205 32 is_stmt 0 view .LVU2146
	movl	%r14d, %esi
	movl	$37, %edi
	call	_ZN6Kernel7Console7putCharEhNS0_10AttributesE
.LVL1024:
	.loc 1 206 25 view .LVU2147
	addq	$2, %r15
.LVL1025:
	.loc 1 207 25 view .LVU2148
	jmp	.L664
.LVL1026:
.L670:
	.loc 1 214 38 view .LVU2149
	movl	(%rbx), %r12d
.LVL1027:
.LBB521:
.LBI521:
	.loc 1 131 21 is_stmt 1 view .LVU2150
.LBB522:
	.loc 1 133 13 is_stmt 0 view .LVU2151
	testl	%r12d, %r12d
	je	.L709
	.loc 1 138 38 view .LVU2152
	movq	_ZN6Kernel7Console11s_cursorPosE+8(%rip), %rdx
	.loc 1 138 71 view .LVU2153
	movq	_ZN6Kernel7Console11s_cursorPosE(%rip), %rax
	.loc 1 138 40 view .LVU2154
	imulq	_ZN6Kernel7Console8s_extentE(%rip), %rdx
	.loc 1 138 20 view .LVU2155
	leaq	(%rdx,%rax), %r9
.LVL1028:
	.loc 1 147 24 is_stmt 1 view .LVU2156
	.loc 1 145 20 is_stmt 0 view .LVU2157
	movl	$0, %r13d
	.loc 1 149 50 view .LVU2158
	movq	%r15, -80(%rbp)
	movq	%r9, %r15
.LVL1029:
.L675:
	.loc 1 149 50 view .LVU2159
	movl	%r12d, %ebx
	movl	$3435973837, %eax
	imulq	%rax, %rbx
	shrq	$35, %rbx
	leal	(%rbx,%rbx,4), %eax
	addl	%eax, %eax
	movl	%r12d, %esi
	subl	%eax, %esi
	.loc 1 149 44 view .LVU2160
	addl	$48, %esi
	.loc 1 149 26 view .LVU2161
	movzbl	%sil, %esi
	leaq	(%r15,%r13), %rdi
	movl	%r14d, %edx
	call	_ZN6Kernel7Console9writeCharEmhNS0_10AttributesE
.LVL1030:
	movl	%r12d, %eax
	.loc 1 150 21 view .LVU2162
	movl	%ebx, %r12d
.LVL1031:
	.loc 1 151 17 view .LVU2163
	addq	$1, %r13
.LVL1032:
	.loc 1 147 24 is_stmt 1 view .LVU2164
	cmpl	$9, %eax
	ja	.L675
.LBB523:
	.loc 1 156 42 is_stmt 0 discriminator 1 view .LVU2165
	movq	%r15, %r9
	movq	-80(%rbp), %r15
.LVL1033:
	.loc 1 156 34 is_stmt 1 discriminator 1 view .LVU2166
	.loc 1 156 42 is_stmt 0 discriminator 1 view .LVU2167
	movq	%r13, %r10
	shrq	%r10
	.loc 1 156 34 discriminator 1 view .LVU2168
	cmpq	$1, %r13
	jbe	.L676
	.loc 1 156 34 discriminator 1 view .LVU2169
	leaq	(%r9,%r13), %rax
	leaq	-2(%rax,%rax), %rcx
	addq	%r9, %rax
	.loc 1 156 25 view .LVU2170
	movl	$0, %r8d
	.loc 1 160 83 view .LVU2171
	leaq	-2(%rax,%rax), %r11
.LVL1034:
.L677:
	.loc 1 158 68 view .LVU2172
	movq	_ZN6Kernel7Console12s_vgaAddressE(%rip), %rdx
	leaq	(%rdx,%rcx), %rbx
	.loc 1 158 70 view .LVU2173
	movzbl	(%rbx), %edi
.LVL1035:
	.loc 1 159 65 view .LVU2174
	movzbl	1(%rbx), %esi
.LVL1036:
	.loc 1 160 83 view .LVU2175
	movq	%r11, %rax
	subq	%rcx, %rax
	addq	%rax, %rdx
	.loc 1 160 85 view .LVU2176
	movzbl	(%rdx), %edx
	.loc 1 160 61 view .LVU2177
	movb	%dl, (%rbx)
	.loc 1 161 78 view .LVU2178
	movq	_ZN6Kernel7Console12s_vgaAddressE(%rip), %rdx
	leaq	(%rdx,%rax), %rbx
	.loc 1 161 49 view .LVU2179
	addq	%rcx, %rdx
	.loc 1 161 80 view .LVU2180
	movzbl	1(%rbx), %ebx
	.loc 1 161 56 view .LVU2181
	movb	%bl, 1(%rdx)
	.loc 1 162 37 view .LVU2182
	movq	%rax, %rdx
	addq	_ZN6Kernel7Console12s_vgaAddressE(%rip), %rdx
	.loc 1 162 49 view .LVU2183
	movb	%dil, (%rdx)
	.loc 1 163 37 view .LVU2184
	addq	_ZN6Kernel7Console12s_vgaAddressE(%rip), %rax
	.loc 1 163 44 view .LVU2185
	movb	%sil, 1(%rax)
	.loc 1 156 13 is_stmt 1 discriminator 3 view .LVU2186
	addq	$1, %r8
.LVL1037:
	.loc 1 156 34 discriminator 1 view .LVU2187
	subq	$2, %rcx
	cmpq	%r10, %r8
	jb	.L677
.LVL1038:
.L676:
	.loc 1 156 34 is_stmt 0 discriminator 1 view .LVU2188
.LBE523:
	.loc 1 166 34 view .LVU2189
	leaq	(%r9,%r13), %rax
	.loc 1 166 43 view .LVU2190
	movl	$0, %edx
	divq	_ZN6Kernel7Console8s_extentE(%rip)
	.loc 1 166 27 view .LVU2191
	movq	%rdx, _ZN6Kernel7Console11s_cursorPosE(%rip)
	.loc 1 167 27 view .LVU2192
	movq	%rax, _ZN6Kernel7Console11s_cursorPosE+8(%rip)
	.loc 1 168 33 view .LVU2193
	call	_ZN6Kernel7Console20updateHardwareCursorEv
.LVL1039:
	.loc 1 168 33 view .LVU2194
	jmp	.L674
.LVL1040:
.L709:
	.loc 1 135 24 view .LVU2195
	movl	%r14d, %esi
	movl	$48, %edi
	call	_ZN6Kernel7Console7putCharEhNS0_10AttributesE
.LVL1041:
	jmp	.L674
.LVL1042:
.L672:
	.loc 1 135 24 view .LVU2196
.LBE522:
.LBE521:
	.loc 1 225 38 view .LVU2197
	movl	(%rbx), %ebx
.LVL1043:
.LBB524:
.LBI524:
	.loc 1 107 21 is_stmt 1 view .LVU2198
.LBB525:
.LBB526:
.LBI526:
	.loc 1 87 21 view .LVU2199
.LBB527:
.LBB528:
	.loc 1 90 39 discriminator 1 view .LVU2200
	movq	$.LC0+1, %r13
	.loc 1 90 35 is_stmt 0 discriminator 1 view .LVU2201
	movl	$48, %r12d
.LBB529:
	.loc 1 92 55 view .LVU2202
	movq	$_ZN6Kernel7Console8s_extentE, %rax
	movq	(%rax), %rax
	movq	%rax, -80(%rbp)
	movl	%ebx, -88(%rbp)
	movq	%rax, %rbx
.LVL1044:
	.loc 1 92 55 view .LVU2203
	jmp	.L680
.LVL1045:
.L699:
	.loc 1 97 35 view .LVU2204
	movq	$0, _ZN6Kernel7Console11s_cursorPosE(%rip)
	.loc 1 98 35 view .LVU2205
	movq	_ZN6Kernel7Console11s_cursorPosE+8(%rip), %rax
	.loc 1 98 21 view .LVU2206
	addq	$1, %rax
	movq	%rax, _ZN6Kernel7Console11s_cursorPosE+8(%rip)
	.loc 1 99 37 view .LVU2207
	movq	_ZN6Kernel7Console11s_cursorPosE+8(%rip), %rax
	.loc 1 99 21 view .LVU2208
	movq	$_ZN6Kernel7Console8s_extentE, %rcx
	cmpq	8(%rcx), %rax
	jnb	.L710
.L678:
.LBE529:
	.loc 1 90 13 is_stmt 1 discriminator 2 view .LVU2209
.LVL1046:
	.loc 1 90 39 discriminator 1 view .LVU2210
	addq	$1, %r13
.LVL1047:
	.loc 1 90 35 is_stmt 0 discriminator 1 view .LVU2211
	movzbl	-1(%r13), %r12d
	.loc 1 90 39 discriminator 1 view .LVU2212
	testb	%r12b, %r12b
	je	.L711
.LVL1048:
.L680:
.LBB530:
	.loc 1 92 42 view .LVU2213
	movq	_ZN6Kernel7Console11s_cursorPosE+8(%rip), %rdi
	.loc 1 92 75 view .LVU2214
	movq	_ZN6Kernel7Console11s_cursorPosE(%rip), %rax
.LVL1049:
	.loc 1 93 26 view .LVU2215
	movzbl	%r12b, %esi
	.loc 1 92 44 view .LVU2216
	imulq	%rbx, %rdi
.LVL1050:
	.loc 1 92 24 view .LVU2217
	addq	%rax, %rdi
.LVL1051:
	.loc 1 93 26 view .LVU2218
	movl	%r14d, %edx
	call	_ZN6Kernel7Console9writeCharEmhNS0_10AttributesE
.LVL1052:
	.loc 1 94 31 view .LVU2219
	movq	_ZN6Kernel7Console11s_cursorPosE(%rip), %rax
	.loc 1 94 17 view .LVU2220
	addq	$1, %rax
	movq	%rax, _ZN6Kernel7Console11s_cursorPosE(%rip)
	.loc 1 95 33 view .LVU2221
	movq	_ZN6Kernel7Console11s_cursorPosE(%rip), %rax
	.loc 1 95 53 discriminator 2 view .LVU2222
	cmpq	%rbx, %rax
	jnb	.L699
	cmpb	$10, %r12b
	je	.L699
	jmp	.L678
.L710:
	.loc 1 100 35 view .LVU2223
	movl	$1, %edi
	call	_ZN6Kernel7Console10scrollDownEm
.LVL1053:
	jmp	.L678
.LVL1054:
.L711:
	.loc 1 100 35 view .LVU2224
.LBE530:
.LBE528:
	.loc 1 103 33 view .LVU2225
	movl	-88(%rbp), %ebx
	call	_ZN6Kernel7Console20updateHardwareCursorEv
.LVL1055:
	.loc 1 103 33 view .LVU2226
.LBE527:
.LBE526:
	.loc 1 111 38 view .LVU2227
	movq	_ZN6Kernel7Console11s_cursorPosE+8(%rip), %rdx
	.loc 1 111 71 view .LVU2228
	movq	_ZN6Kernel7Console11s_cursorPosE(%rip), %rax
	.loc 1 111 40 view .LVU2229
	movq	-80(%rbp), %rcx
	imulq	%rcx, %rdx
	.loc 1 111 20 view .LVU2230
	addq	%rdx, %rax
.LVL1056:
	.loc 1 114 22 is_stmt 1 discriminator 1 view .LVU2231
	.loc 1 116 17 is_stmt 0 view .LVU2232
	testl	%ebx, %ebx
	js	.L695
	.loc 1 112 20 view .LVU2233
	movl	$0, %r12d
.LVL1057:
.L682:
	.loc 1 118 21 view .LVU2234
	addl	%ebx, %ebx
.LVL1058:
	.loc 1 114 13 is_stmt 1 view .LVU2235
	addq	$1, %r12
.LVL1059:
	.loc 1 114 22 discriminator 1 view .LVU2236
	cmpq	$32, %r12
	je	.L712
	.loc 1 116 17 is_stmt 0 view .LVU2237
	testl	%ebx, %ebx
	jns	.L682
	movq	%r12, %rdx
.LVL1060:
.L681:
	.loc 1 120 22 is_stmt 1 discriminator 1 view .LVU2238
	.loc 1 120 22 is_stmt 0 discriminator 1 view .LVU2239
	addq	%rax, %r12
.LVL1061:
	.loc 1 120 22 discriminator 1 view .LVU2240
	subq	%rdx, %r12
	leaq	32(%rax), %r13
	subq	%rdx, %r13
	movq	%rax, -88(%rbp)
	movq	%rdx, -96(%rbp)
.LVL1062:
.L685:
	.loc 1 122 56 view .LVU2241
	movl	%ebx, %eax
	shrl	$31, %eax
	.loc 1 122 26 view .LVU2242
	leal	48(%rax), %esi
	movl	%r14d, %edx
	movq	%r12, %rdi
	call	_ZN6Kernel7Console9writeCharEmhNS0_10AttributesE
.LVL1063:
	.loc 1 123 21 view .LVU2243
	addl	%ebx, %ebx
.LVL1064:
	.loc 1 120 13 is_stmt 1 discriminator 2 view .LVU2244
	.loc 1 120 22 discriminator 1 view .LVU2245
	addq	$1, %r12
.LVL1065:
	.loc 1 120 22 is_stmt 0 discriminator 1 view .LVU2246
	cmpq	%r13, %r12
	jne	.L685
	movq	-88(%rbp), %rax
	movq	-96(%rbp), %rdx
.LVL1066:
.L684:
	.loc 1 125 43 view .LVU2247
	addq	$32, %rax
	subq	%rdx, %rax
	.loc 1 125 51 view .LVU2248
	movl	$0, %edx
	divq	-80(%rbp)
	.loc 1 125 27 view .LVU2249
	movq	%rdx, _ZN6Kernel7Console11s_cursorPosE(%rip)
	.loc 1 126 27 view .LVU2250
	movq	%rax, _ZN6Kernel7Console11s_cursorPosE+8(%rip)
	.loc 1 127 33 view .LVU2251
	call	_ZN6Kernel7Console20updateHardwareCursorEv
.LVL1067:
.L674:
	.loc 1 127 33 view .LVU2252
.LBE525:
.LBE524:
	.loc 1 284 21 view .LVU2253
	leaq	2(%r15), %rdi
.LVL1068:
	.loc 1 286 34 view .LVU2254
	movq	16(%rbp), %r9
	movq	-72(%rbp), %r8
	movq	-64(%rbp), %rcx
	movq	-56(%rbp), %rdx
	movl	%r14d, %esi
	call	_ZN6Kernel7Console9printImplIRyJS2_S2_RPKcEEEvS4_NS0_10AttributesEOT_DpOT0_
.LVL1069:
.L660:
	.loc 1 297 9 view .LVU2255
	addq	$56, %rsp
	popq	%rbx
	.cfi_remember_state
	.cfi_restore 3
	popq	%r12
	.cfi_restore 12
	popq	%r13
	.cfi_restore 13
	popq	%r14
	.cfi_restore 14
.LVL1070:
	.loc 1 297 9 view .LVU2256
	popq	%r15
	.cfi_restore 15
	popq	%rbp
	.cfi_restore 6
	.cfi_def_cfa 7, 8
	ret
.LVL1071:
.L712:
	.cfi_restore_state
.LBB533:
.LBB531:
	.loc 1 297 9 view .LVU2257
	movq	%r12, %rdx
	jmp	.L684
.LVL1072:
.L666:
	.loc 1 297 9 view .LVU2258
.LBE531:
.LBE533:
	.loc 1 236 38 view .LVU2259
	movl	(%rbx), %ebx
.LVL1073:
.LBB534:
.LBI534:
	.loc 1 172 21 is_stmt 1 view .LVU2260
.LBB535:
.LBB536:
.LBI536:
	.loc 1 87 21 view .LVU2261
.LBB537:
.LBB538:
	.loc 1 90 39 discriminator 1 view .LVU2262
	movq	$.LC1+1, %r13
	.loc 1 90 35 is_stmt 0 discriminator 1 view .LVU2263
	movl	$48, %r12d
.LBB539:
	.loc 1 92 55 view .LVU2264
	movq	$_ZN6Kernel7Console8s_extentE, %rax
	movq	(%rax), %rax
	movq	%rax, -80(%rbp)
	movl	%ebx, -88(%rbp)
	movq	%rax, %rbx
.LVL1074:
	.loc 1 92 55 view .LVU2265
	jmp	.L688
.LVL1075:
.L700:
	.loc 1 97 35 view .LVU2266
	movq	$0, _ZN6Kernel7Console11s_cursorPosE(%rip)
	.loc 1 98 35 view .LVU2267
	movq	_ZN6Kernel7Console11s_cursorPosE+8(%rip), %rax
	.loc 1 98 21 view .LVU2268
	addq	$1, %rax
	movq	%rax, _ZN6Kernel7Console11s_cursorPosE+8(%rip)
	.loc 1 99 37 view .LVU2269
	movq	_ZN6Kernel7Console11s_cursorPosE+8(%rip), %rax
	.loc 1 99 21 view .LVU2270
	movq	$_ZN6Kernel7Console8s_extentE, %rcx
	cmpq	8(%rcx), %rax
	jnb	.L713
.L686:
.LBE539:
	.loc 1 90 13 is_stmt 1 discriminator 2 view .LVU2271
.LVL1076:
	.loc 1 90 39 discriminator 1 view .LVU2272
	addq	$1, %r13
.LVL1077:
	.loc 1 90 35 is_stmt 0 discriminator 1 view .LVU2273
	movzbl	-1(%r13), %r12d
	.loc 1 90 39 discriminator 1 view .LVU2274
	testb	%r12b, %r12b
	je	.L714
.LVL1078:
.L688:
.LBB540:
	.loc 1 92 42 view .LVU2275
	movq	_ZN6Kernel7Console11s_cursorPosE+8(%rip), %rdi
	.loc 1 92 75 view .LVU2276
	movq	_ZN6Kernel7Console11s_cursorPosE(%rip), %rax
.LVL1079:
	.loc 1 93 26 view .LVU2277
	movzbl	%r12b, %esi
	.loc 1 92 44 view .LVU2278
	imulq	%rbx, %rdi
.LVL1080:
	.loc 1 92 24 view .LVU2279
	addq	%rax, %rdi
.LVL1081:
	.loc 1 93 26 view .LVU2280
	movl	%r14d, %edx
	call	_ZN6Kernel7Console9writeCharEmhNS0_10AttributesE
.LVL1082:
	.loc 1 94 31 view .LVU2281
	movq	_ZN6Kernel7Console11s_cursorPosE(%rip), %rax
	.loc 1 94 17 view .LVU2282
	addq	$1, %rax
	movq	%rax, _ZN6Kernel7Console11s_cursorPosE(%rip)
	.loc 1 95 33 view .LVU2283
	movq	_ZN6Kernel7Console11s_cursorPosE(%rip), %rax
	.loc 1 95 53 discriminator 2 view .LVU2284
	cmpq	%rbx, %rax
	jnb	.L700
	cmpb	$10, %r12b
	je	.L700
	jmp	.L686
.L713:
	.loc 1 100 35 view .LVU2285
	movl	$1, %edi
	call	_ZN6Kernel7Console10scrollDownEm
.LVL1083:
	jmp	.L686
.LVL1084:
.L714:
	.loc 1 100 35 view .LVU2286
.LBE540:
.LBE538:
	.loc 1 103 33 view .LVU2287
	movl	-88(%rbp), %ebx
	call	_ZN6Kernel7Console20updateHardwareCursorEv
.LVL1085:
	.loc 1 103 33 view .LVU2288
.LBE537:
.LBE536:
	.loc 1 176 38 view .LVU2289
	movq	_ZN6Kernel7Console11s_cursorPosE+8(%rip), %rax
	.loc 1 176 71 view .LVU2290
	movq	_ZN6Kernel7Console11s_cursorPosE(%rip), %rdx
	.loc 1 176 40 view .LVU2291
	movq	-80(%rbp), %rcx
	imulq	%rcx, %rax
	.loc 1 176 20 view .LVU2292
	addq	%rdx, %rax
.LVL1086:
	.loc 1 179 22 is_stmt 1 discriminator 1 view .LVU2293
	.loc 1 181 17 is_stmt 0 view .LVU2294
	movl	%ebx, %ecx
	shrl	$28, %ecx
	jne	.L697
	.loc 1 177 20 view .LVU2295
	movl	$0, %ecx
.LVL1087:
.L690:
	.loc 1 183 21 view .LVU2296
	sall	$4, %ebx
.LVL1088:
	.loc 1 179 13 is_stmt 1 view .LVU2297
	addq	$1, %rcx
.LVL1089:
	.loc 1 179 22 discriminator 1 view .LVU2298
	cmpq	$8, %rcx
	je	.L692
	.loc 1 181 17 is_stmt 0 view .LVU2299
	movl	%ebx, %esi
	shrl	$28, %esi
	je	.L690
	movq	%rcx, %r12
.LVL1090:
.L689:
	.loc 1 185 22 is_stmt 1 discriminator 1 view .LVU2300
	.loc 1 185 22 is_stmt 0 discriminator 1 view .LVU2301
	addq	%rax, %r12
.LVL1091:
	.loc 1 185 22 discriminator 1 view .LVU2302
	subq	%rcx, %r12
	leaq	8(%rax), %r13
	subq	%rcx, %r13
	movq	%rcx, -88(%rbp)
	movq	%rax, -96(%rbp)
.LVL1092:
.L693:
	.loc 1 187 69 view .LVU2303
	movl	%ebx, %eax
	shrl	$28, %eax
	.loc 1 187 63 view .LVU2304
	movl	%eax, %eax
	.loc 1 187 26 view .LVU2305
	movzbl	.LC2(%rax), %esi
	movl	%r14d, %edx
	movq	%r12, %rdi
	call	_ZN6Kernel7Console9writeCharEmhNS0_10AttributesE
.LVL1093:
	.loc 1 188 21 view .LVU2306
	sall	$4, %ebx
.LVL1094:
	.loc 1 185 13 is_stmt 1 discriminator 2 view .LVU2307
	.loc 1 185 22 discriminator 1 view .LVU2308
	addq	$1, %r12
.LVL1095:
	.loc 1 185 22 is_stmt 0 discriminator 1 view .LVU2309
	cmpq	%r13, %r12
	jne	.L693
	movq	-88(%rbp), %rcx
	movq	-96(%rbp), %rax
.LVL1096:
.L692:
	.loc 1 190 43 view .LVU2310
	addq	$8, %rax
	subq	%rcx, %rax
	.loc 1 190 55 view .LVU2311
	movl	$0, %edx
	divq	-80(%rbp)
	.loc 1 190 27 view .LVU2312
	movq	%rdx, _ZN6Kernel7Console11s_cursorPosE(%rip)
	.loc 1 191 27 view .LVU2313
	movq	%rax, _ZN6Kernel7Console11s_cursorPosE+8(%rip)
	.loc 1 192 33 view .LVU2314
	call	_ZN6Kernel7Console20updateHardwareCursorEv
.LVL1097:
	.loc 1 193 9 view .LVU2315
	jmp	.L674
.LVL1098:
.L671:
	.loc 1 193 9 view .LVU2316
.LBE535:
.LBE534:
	.loc 1 251 36 view .LVU2317
	movl	%r14d, %esi
	movl	$37, %edi
	call	_ZN6Kernel7Console7putCharEhNS0_10AttributesE
.LVL1099:
	.loc 1 252 36 view .LVU2318
	movzbl	1(%r15), %edi
	movl	%r14d, %esi
	call	_ZN6Kernel7Console7putCharEhNS0_10AttributesE
.LVL1100:
	.loc 1 254 25 view .LVU2319
	jmp	.L674
.L669:
	.loc 1 262 36 view .LVU2320
	movl	%r14d, %esi
	movl	$37, %edi
	call	_ZN6Kernel7Console7putCharEhNS0_10AttributesE
.LVL1101:
	.loc 1 263 36 view .LVU2321
	movzbl	1(%r15), %edi
	movl	%r14d, %esi
	call	_ZN6Kernel7Console7putCharEhNS0_10AttributesE
.LVL1102:
	.loc 1 265 25 view .LVU2322
	jmp	.L674
.L668:
	.loc 1 274 36 view .LVU2323
	movl	%r14d, %esi
	movl	$37, %edi
	call	_ZN6Kernel7Console7putCharEhNS0_10AttributesE
.LVL1103:
	.loc 1 275 36 view .LVU2324
	movzbl	1(%r15), %edi
	movl	%r14d, %esi
	call	_ZN6Kernel7Console7putCharEhNS0_10AttributesE
.LVL1104:
	.loc 1 277 25 view .LVU2325
	jmp	.L674
.L665:
	.loc 1 279 32 view .LVU2326
	movl	%r14d, %esi
	movl	$37, %edi
	call	_ZN6Kernel7Console7putCharEhNS0_10AttributesE
.LVL1105:
	.loc 1 280 32 view .LVU2327
	movzbl	1(%r15), %edi
	movl	%r14d, %esi
	call	_ZN6Kernel7Console7putCharEhNS0_10AttributesE
.LVL1106:
	.loc 1 281 25 view .LVU2328
	addq	$2, %r15
.LVL1107:
	.loc 1 282 25 view .LVU2329
	jmp	.L664
.L662:
	.loc 1 293 28 view .LVU2330
	movzbl	%al, %edi
	movl	%r14d, %esi
	call	_ZN6Kernel7Console7putCharEhNS0_10AttributesE
.LVL1108:
	.loc 1 295 17 view .LVU2331
	addq	$1, %r15
.LVL1109:
.L664:
	.loc 1 199 13 is_stmt 1 view .LVU2332
	movzbl	(%r15), %eax
	testb	%al, %al
	je	.L660
.L694:
	.loc 1 201 17 is_stmt 0 view .LVU2333
	cmpb	$37, %al
	jne	.L662
	.loc 1 201 33 discriminator 1 view .LVU2334
	movzbl	1(%r15), %edx
	testb	%dl, %dl
	je	.L662
.LVL1110:
	.loc 1 203 21 view .LVU2335
	cmpb	$37, %dl
	je	.L715
	.loc 1 209 21 view .LVU2336
	subl	$98, %edx
	cmpb	$22, %dl
	ja	.L665
	movzbl	%dl, %edx
	jmp	*.L667(,%rdx,8)
	.section	.rodata._ZN6Kernel7Console9printImplIRjJRyS3_S3_RPKcEEEvS5_NS0_10AttributesEOT_DpOT0_,"aG",@progbits,_ZN6Kernel7Console9printImplIRjJRyS3_S3_RPKcEEEvS5_NS0_10AttributesEOT_DpOT0_,comdat
	.align 8
	.align 4
.L667:
	.quad	.L672
	.quad	.L671
	.quad	.L670
	.quad	.L665
	.quad	.L665
	.quad	.L665
	.quad	.L665
	.quad	.L665
	.quad	.L665
	.quad	.L665
	.quad	.L665
	.quad	.L665
	.quad	.L665
	.quad	.L665
	.quad	.L669
	.quad	.L665
	.quad	.L665
	.quad	.L668
	.quad	.L665
	.quad	.L665
	.quad	.L665
	.quad	.L665
	.quad	.L666
	.section	.text._ZN6Kernel7Console9printImplIRjJRyS3_S3_RPKcEEEvS5_NS0_10AttributesEOT_DpOT0_,"axG",@progbits,_ZN6Kernel7Console9printImplIRjJRyS3_S3_RPKcEEEvS5_NS0_10AttributesEOT_DpOT0_,comdat
.LVL1111:
.L695:
.LBB542:
.LBB532:
	.loc 1 113 20 view .LVU2337
	movl	$0, %edx
	.loc 1 112 20 view .LVU2338
	movl	$0, %r12d
	jmp	.L681
.LVL1112:
.L697:
	.loc 1 112 20 view .LVU2339
.LBE532:
.LBE542:
.LBB543:
.LBB541:
	.loc 1 178 20 view .LVU2340
	movl	$0, %ecx
	.loc 1 177 20 view .LVU2341
	movl	$0, %r12d
	jmp	.L689
.LBE541:
.LBE543:
	.cfi_endproc
.LFE65:
	.size	_ZN6Kernel7Console9printImplIRjJRyS3_S3_RPKcEEEvS5_NS0_10AttributesEOT_DpOT0_, .-_ZN6Kernel7Console9printImplIRjJRyS3_S3_RPKcEEEvS5_NS0_10AttributesEOT_DpOT0_
	.section	.rodata.str1.8,"aMS",@progbits,1
	.align 8
.LC3:
	.string	"Memory Map : %d entries, entry size: %d\n"
	.section	.rodata.str1.1,"aMS",@progbits,1
.LC4:
	.string	"Entry storage ptr: %p\n"
.LC5:
	.string	"Entry ptr: %p\n"
.LC6:
	.string	"s_availibleRegions ptr: %p\n"
	.section	.rodata.str1.8
	.align 8
.LC7:
	.string	"s_availibleRegions ptr ptr: %p\n"
	.align 8
.LC8:
	.string	"s_availibleRegionCount ptr: %p\n"
	.align 8
.LC9:
	.string	"Region %d: %x - %x (%d B) [%s]\n"
	.align 8
.LC10:
	.string	"Region %d: %x - %x (%d KB) [%s]\n"
	.align 8
.LC11:
	.string	"Region %d: %x - %x (%d MB) [%s]\n"
	.align 8
.LC12:
	.string	"Region %d: %x - %x (%d GB) [%s]\n"
	.section	.rodata.str1.1
.LC13:
	.string	"Initilialising kernel heap\n"
.LC14:
	.string	"Kernel heap start addr %x\n"
.LC15:
	.string	"Kernel heap end addr %x\n"
	.text
	.align 2
	.globl	_ZN6Kernel9MemoryMap17parseMemoryMapTagERNS_14HeapLinkedListE
	.type	_ZN6Kernel9MemoryMap17parseMemoryMapTagERNS_14HeapLinkedListE, @function
_ZN6Kernel9MemoryMap17parseMemoryMapTagERNS_14HeapLinkedListE:
.LVL1113:
.LFB38:
	.file 2 "src/kernel/MemoryMap.cpp"
	.loc 2 112 5 is_stmt 1 view -0
	.cfi_startproc
	.loc 2 112 5 is_stmt 0 view .LVU2343
	pushq	%rbp
	.cfi_def_cfa_offset 16
	.cfi_offset 6, -16
	movq	%rsp, %rbp
	.cfi_def_cfa_register 6
	pushq	%r15
	pushq	%r14
	pushq	%r13
	pushq	%r12
	pushq	%rbx
	subq	$72, %rsp
	.cfi_offset 15, -24
	.cfi_offset 14, -32
	.cfi_offset 13, -40
	.cfi_offset 12, -48
	.cfi_offset 3, -56
	movq	%rdi, -104(%rbp)
	.loc 2 113 9 is_stmt 1 view .LVU2344
	.loc 2 113 32 is_stmt 0 view .LVU2345
	movq	$0, _ZN6Kernel9MemoryMap22s_availibleRegionCountE(%rip)
	.loc 2 114 9 is_stmt 1 view .LVU2346
	.loc 2 114 96 is_stmt 0 view .LVU2347
	movq	_ZN6Kernel9MemoryMap18s_kernelEndDynamicE(%rip), %rax
	addq	$7, %rax
	.loc 2 114 101 view .LVU2348
	andq	$-8, %rax
	movq	%rax, _ZN6Kernel9MemoryMap24s_availibleRegionEntriesE(%rip)
	.loc 2 117 9 is_stmt 1 view .LVU2349
	.loc 2 117 53 is_stmt 0 view .LVU2350
	movq	_ZN6Kernel9MemoryMap18s_multibootMmapTagE(%rip), %rax
	.loc 2 117 18 view .LVU2351
	movl	4(%rax), %ecx
	leal	-16(%rcx), %ebx
.LVL1114:
	.loc 2 118 9 is_stmt 1 view .LVU2352
	.loc 2 118 18 is_stmt 0 view .LVU2353
	movl	8(%rax), %r12d
.LVL1115:
	.loc 2 119 9 is_stmt 1 view .LVU2354
	.loc 2 119 18 is_stmt 0 view .LVU2355
	movl	%ebx, %eax
	movl	$0, %edx
	divl	%r12d
	movl	%eax, %r13d
.LVL1116:
	.loc 2 121 9 is_stmt 1 view .LVU2356
	.loc 2 121 9 is_stmt 0 view .LVU2357
	movl	%eax, -72(%rbp)
.LVL1117:
	.loc 2 121 9 view .LVU2358
	movl	%r12d, -64(%rbp)
.LVL1118:
.LBB574:
.LBI574:
	.loc 1 301 21 is_stmt 1 view .LVU2359
.LBB575:
	.loc 1 309 26 is_stmt 0 view .LVU2360
	leaq	-64(%rbp), %rcx
	leaq	-72(%rbp), %rdx
	movl	$15, %esi
	movq	$.LC3, %rdi
.LVL1119:
	.loc 1 309 26 view .LVU2361
	call	_ZN6Kernel7Console9printImplIRjJS2_EEEvPKcNS0_10AttributesEOT_DpOT0_
.LVL1120:
	.loc 1 309 26 view .LVU2362
.LBE575:
.LBE574:
	.loc 2 123 9 is_stmt 1 view .LVU2363
	.loc 2 125 9 view .LVU2364
	.loc 2 125 95 is_stmt 0 view .LVU2365
	movq	_ZN6Kernel9MemoryMap18s_multibootMmapTagE(%rip), %rax
	addq	$16, %rax
	.loc 2 125 29 view .LVU2366
	movq	%rax, -56(%rbp)
	.loc 2 126 9 is_stmt 1 view .LVU2367
.LVL1121:
	.loc 2 126 9 is_stmt 0 view .LVU2368
	leaq	-56(%rbp), %rax
	movq	%rax, -64(%rbp)
.LVL1122:
.LBB576:
.LBI576:
	.loc 1 301 21 is_stmt 1 view .LVU2369
.LBB577:
	.loc 1 309 26 is_stmt 0 view .LVU2370
	leaq	-64(%rbp), %rdx
	movl	$15, %esi
	movq	$.LC4, %rdi
	call	_ZN6Kernel7Console9printImplIRPPNS_9MemoryMap18MultibootMmapEntryEJEEEvPKcNS0_10AttributesEOT_DpOT0_
.LVL1123:
	.loc 1 309 26 view .LVU2371
.LBE577:
.LBE576:
	.loc 2 128 9 is_stmt 1 view .LVU2372
	.loc 2 129 9 view .LVU2373
	.loc 2 129 18 discriminator 1 view .LVU2374
	cmpl	%r12d, %ebx
	jb	.L727
	.loc 2 128 18 is_stmt 0 view .LVU2375
	movl	$0, %ebx
.LVL1124:
	.loc 2 123 16 view .LVU2376
	movl	$0, %r15d
	jmp	.L723
.LVL1125:
.L732:
	.loc 2 138 17 is_stmt 1 view .LVU2377
	.loc 2 138 66 is_stmt 0 view .LVU2378
	movq	_ZN6Kernel9MemoryMap22s_availibleRegionCountE(%rip), %rcx
	movq	_ZN6Kernel9MemoryMap24s_availibleRegionEntriesE(%rip), %rdx
	movq	%rax, (%rdx,%rcx,8)
	.loc 2 139 17 is_stmt 1 view .LVU2379
	movq	(%rax), %rax
	cmpq	%rax, _ZN6Kernel9MemoryMap18s_kernelEndDynamicE(%rip)
	jb	.L718
	.loc 2 140 21 view .LVU2380
	.loc 2 140 39 is_stmt 0 view .LVU2381
	movq	_ZN6Kernel9MemoryMap22s_availibleRegionCountE(%rip), %r15
.LVL1126:
	.loc 2 140 39 view .LVU2382
	jmp	.L718
.L733:
	.loc 2 143 17 is_stmt 1 view .LVU2383
	.loc 2 143 31 is_stmt 0 view .LVU2384
	movl	16(%rdx), %ecx
	movq	_ZN6Kernel9MemoryMap26s_multibootMemoryTypeNamesE(,%rcx,8), %rcx
	.loc 2 144 55 view .LVU2385
	movq	(%rdx), %rdx
.LVL1127:
	.loc 2 144 55 view .LVU2386
	movl	%ebx, -92(%rbp)
.LVL1128:
	.loc 2 144 55 view .LVU2387
	movq	%rdx, -88(%rbp)
.LVL1129:
	.loc 2 143 31 view .LVU2388
	addq	%rax, %rdx
.LVL1130:
	.loc 2 143 31 view .LVU2389
	movq	%rdx, -80(%rbp)
.LVL1131:
	.loc 2 143 31 view .LVU2390
	movq	%rax, -72(%rbp)
.LVL1132:
	.loc 2 143 31 view .LVU2391
	movq	%rcx, -64(%rbp)
.LVL1133:
.LBB578:
.LBI578:
	.loc 1 301 21 is_stmt 1 view .LVU2392
.LBB579:
	.loc 1 309 26 is_stmt 0 view .LVU2393
	subq	$8, %rsp
	leaq	-64(%rbp), %rax
	pushq	%rax
.LVL1134:
	.loc 1 309 26 view .LVU2394
	leaq	-72(%rbp), %r9
.LVL1135:
	.loc 1 309 26 view .LVU2395
	leaq	-80(%rbp), %r8
	leaq	-88(%rbp), %rcx
.LVL1136:
	.loc 1 309 26 view .LVU2396
	leaq	-92(%rbp), %rdx
.LVL1137:
	.loc 1 309 26 view .LVU2397
	movl	$15, %esi
	movq	$.LC9, %rdi
	call	_ZN6Kernel7Console9printImplIRjJRyS3_S3_RPKcEEEvS5_NS0_10AttributesEOT_DpOT0_
.LVL1138:
	.loc 1 309 26 view .LVU2398
.LBE579:
.LBE578:
	addq	$16, %rsp
.L720:
	.loc 2 164 13 is_stmt 1 view .LVU2399
	.loc 2 164 97 is_stmt 0 view .LVU2400
	movl	%r12d, %eax
	.loc 2 164 21 view .LVU2401
	addq	%rax, -56(%rbp)
	.loc 2 129 9 is_stmt 1 view .LVU2402
	addl	$1, %ebx
.LVL1139:
	.loc 2 129 18 discriminator 1 view .LVU2403
	cmpl	%r13d, %ebx
	jnb	.L717
.LVL1140:
.L723:
	.loc 2 131 13 view .LVU2404
	.loc 2 131 13 is_stmt 0 view .LVU2405
	movq	-56(%rbp), %rax
	movq	%rax, -64(%rbp)
.LVL1141:
.LBB580:
.LBI580:
	.loc 1 301 21 is_stmt 1 view .LVU2406
.LBB581:
	.loc 1 309 26 is_stmt 0 view .LVU2407
	leaq	-64(%rbp), %rdx
	movl	$15, %esi
	movq	$.LC5, %rdi
	call	_ZN6Kernel7Console9printImplIRPNS_9MemoryMap18MultibootMmapEntryEJEEEvPKcNS0_10AttributesEOT_DpOT0_
.LVL1142:
	.loc 1 309 26 view .LVU2408
.LBE581:
.LBE580:
	.loc 2 132 13 is_stmt 1 view .LVU2409
	.loc 2 132 13 is_stmt 0 view .LVU2410
	movq	_ZN6Kernel9MemoryMap24s_availibleRegionEntriesE(%rip), %rax
	movq	%rax, -64(%rbp)
.LVL1143:
.LBB582:
.LBI582:
	.loc 1 301 21 is_stmt 1 view .LVU2411
.LBB583:
	.loc 1 309 26 is_stmt 0 view .LVU2412
	leaq	-64(%rbp), %rdx
	movl	$15, %esi
	movq	$.LC6, %rdi
	call	_ZN6Kernel7Console9printImplIRPPNS_9MemoryMap18MultibootMmapEntryEJEEEvPKcNS0_10AttributesEOT_DpOT0_
.LVL1144:
	.loc 1 309 26 view .LVU2413
.LBE583:
.LBE582:
	.loc 2 133 13 is_stmt 1 view .LVU2414
	.loc 2 133 13 is_stmt 0 view .LVU2415
	movq	$_ZN6Kernel9MemoryMap24s_availibleRegionEntriesE, -64(%rbp)
.LVL1145:
.LBB584:
.LBI584:
	.loc 1 301 21 is_stmt 1 view .LVU2416
.LBB585:
	.loc 1 309 26 is_stmt 0 view .LVU2417
	leaq	-64(%rbp), %rdx
.LVL1146:
	.loc 1 309 26 view .LVU2418
	movl	$15, %esi
	movq	$.LC7, %rdi
	call	_ZN6Kernel7Console9printImplIRPPPNS_9MemoryMap18MultibootMmapEntryEJEEEvPKcNS0_10AttributesEOT_DpOT0_
.LVL1147:
	.loc 1 309 26 view .LVU2419
.LBE585:
.LBE584:
	.loc 2 134 13 is_stmt 1 view .LVU2420
	.loc 2 134 13 is_stmt 0 view .LVU2421
	movq	$_ZN6Kernel9MemoryMap22s_availibleRegionCountE, -64(%rbp)
.LVL1148:
.LBB586:
.LBI586:
	.loc 1 301 21 is_stmt 1 view .LVU2422
.LBB587:
	.loc 1 309 26 is_stmt 0 view .LVU2423
	leaq	-64(%rbp), %rdx
.LVL1149:
	.loc 1 309 26 view .LVU2424
	movl	$15, %esi
	movq	$.LC8, %rdi
	call	_ZN6Kernel7Console9printImplIRPyJEEEvPKcNS0_10AttributesEOT_DpOT0_
.LVL1150:
	.loc 1 309 26 view .LVU2425
.LBE587:
.LBE586:
	.loc 2 136 13 is_stmt 1 view .LVU2426
	.loc 2 136 24 is_stmt 0 view .LVU2427
	movq	-56(%rbp), %rax
	.loc 2 136 13 view .LVU2428
	cmpl	$1, 16(%rax)
	je	.L732
.L718:
	.loc 2 142 13 is_stmt 1 view .LVU2429
	.loc 2 142 24 is_stmt 0 view .LVU2430
	movq	-56(%rbp), %rdx
	movq	8(%rdx), %rax
	.loc 2 142 13 view .LVU2431
	cmpq	$1023, %rax
	jbe	.L733
	.loc 2 147 18 is_stmt 1 view .LVU2432
	cmpq	$1048575, %rax
	jbe	.L734
	.loc 2 152 18 view .LVU2433
	cmpq	$1073741823, %rax
	ja	.L722
	.loc 2 153 17 view .LVU2434
	.loc 2 153 31 is_stmt 0 view .LVU2435
	movl	16(%rdx), %ecx
	movq	_ZN6Kernel9MemoryMap26s_multibootMemoryTypeNamesE(,%rcx,8), %rcx
	.loc 2 154 55 view .LVU2436
	movq	(%rdx), %rdx
.LVL1151:
	.loc 2 154 55 view .LVU2437
	movl	%ebx, -92(%rbp)
.LVL1152:
	.loc 2 154 55 view .LVU2438
	movq	%rdx, -88(%rbp)
.LVL1153:
	.loc 2 153 31 view .LVU2439
	addq	%rax, %rdx
.LVL1154:
	.loc 2 153 31 view .LVU2440
	movq	%rdx, -80(%rbp)
.LVL1155:
	.loc 2 153 31 view .LVU2441
	shrq	$20, %rax
	movq	%rax, -72(%rbp)
.LVL1156:
	.loc 2 153 31 view .LVU2442
	movq	%rcx, -64(%rbp)
.LVL1157:
.LBB588:
.LBI588:
	.loc 1 301 21 is_stmt 1 view .LVU2443
.LBB589:
	.loc 1 309 26 is_stmt 0 view .LVU2444
	subq	$8, %rsp
	leaq	-64(%rbp), %rax
.LVL1158:
	.loc 1 309 26 view .LVU2445
	pushq	%rax
	leaq	-72(%rbp), %r9
.LVL1159:
	.loc 1 309 26 view .LVU2446
	leaq	-80(%rbp), %r8
	leaq	-88(%rbp), %rcx
.LVL1160:
	.loc 1 309 26 view .LVU2447
	leaq	-92(%rbp), %rdx
.LVL1161:
	.loc 1 309 26 view .LVU2448
	movl	$15, %esi
	movq	$.LC11, %rdi
	call	_ZN6Kernel7Console9printImplIRjJRyS3_S3_RPKcEEEvS5_NS0_10AttributesEOT_DpOT0_
.LVL1162:
	.loc 1 309 26 view .LVU2449
.LBE589:
.LBE588:
	addq	$16, %rsp
	jmp	.L720
.L734:
	.loc 2 148 17 is_stmt 1 view .LVU2450
	.loc 2 148 31 is_stmt 0 view .LVU2451
	movl	16(%rdx), %ecx
	movq	_ZN6Kernel9MemoryMap26s_multibootMemoryTypeNamesE(,%rcx,8), %rcx
	.loc 2 149 55 view .LVU2452
	movq	(%rdx), %rdx
.LVL1163:
	.loc 2 149 55 view .LVU2453
	movl	%ebx, -92(%rbp)
.LVL1164:
	.loc 2 149 55 view .LVU2454
	movq	%rdx, -88(%rbp)
.LVL1165:
	.loc 2 148 31 view .LVU2455
	addq	%rax, %rdx
.LVL1166:
	.loc 2 148 31 view .LVU2456
	movq	%rdx, -80(%rbp)
.LVL1167:
	.loc 2 148 31 view .LVU2457
	shrq	$10, %rax
	movq	%rax, -72(%rbp)
.LVL1168:
	.loc 2 148 31 view .LVU2458
	movq	%rcx, -64(%rbp)
.LVL1169:
.LBB590:
.LBI590:
	.loc 1 301 21 is_stmt 1 view .LVU2459
.LBB591:
	.loc 1 309 26 is_stmt 0 view .LVU2460
	subq	$8, %rsp
	leaq	-64(%rbp), %rax
.LVL1170:
	.loc 1 309 26 view .LVU2461
	pushq	%rax
	leaq	-72(%rbp), %r9
.LVL1171:
	.loc 1 309 26 view .LVU2462
	leaq	-80(%rbp), %r8
	leaq	-88(%rbp), %rcx
.LVL1172:
	.loc 1 309 26 view .LVU2463
	leaq	-92(%rbp), %rdx
.LVL1173:
	.loc 1 309 26 view .LVU2464
	movl	$15, %esi
	movq	$.LC10, %rdi
	call	_ZN6Kernel7Console9printImplIRjJRyS3_S3_RPKcEEEvS5_NS0_10AttributesEOT_DpOT0_
.LVL1174:
	.loc 1 309 26 view .LVU2465
.LBE591:
.LBE590:
	addq	$16, %rsp
	jmp	.L720
.L722:
	.loc 2 158 17 is_stmt 1 view .LVU2466
	.loc 2 158 31 is_stmt 0 view .LVU2467
	movl	16(%rdx), %ecx
	movq	_ZN6Kernel9MemoryMap26s_multibootMemoryTypeNamesE(,%rcx,8), %rcx
	.loc 2 159 55 view .LVU2468
	movq	(%rdx), %rdx
.LVL1175:
	.loc 2 159 55 view .LVU2469
	movl	%ebx, -92(%rbp)
.LVL1176:
	.loc 2 159 55 view .LVU2470
	movq	%rdx, -88(%rbp)
.LVL1177:
	.loc 2 158 31 view .LVU2471
	addq	%rax, %rdx
.LVL1178:
	.loc 2 158 31 view .LVU2472
	movq	%rdx, -80(%rbp)
.LVL1179:
	.loc 2 158 31 view .LVU2473
	shrq	$30, %rax
	movq	%rax, -72(%rbp)
.LVL1180:
	.loc 2 158 31 view .LVU2474
	movq	%rcx, -64(%rbp)
.LVL1181:
.LBB592:
.LBI592:
	.loc 1 301 21 is_stmt 1 view .LVU2475
.LBB593:
	.loc 1 309 26 is_stmt 0 view .LVU2476
	subq	$8, %rsp
	leaq	-64(%rbp), %rax
.LVL1182:
	.loc 1 309 26 view .LVU2477
	pushq	%rax
	leaq	-72(%rbp), %r9
.LVL1183:
	.loc 1 309 26 view .LVU2478
	leaq	-80(%rbp), %r8
	leaq	-88(%rbp), %rcx
.LVL1184:
	.loc 1 309 26 view .LVU2479
	leaq	-92(%rbp), %rdx
.LVL1185:
	.loc 1 309 26 view .LVU2480
	movl	$15, %esi
	movq	$.LC12, %rdi
	call	_ZN6Kernel7Console9printImplIRjJRyS3_S3_RPKcEEEvS5_NS0_10AttributesEOT_DpOT0_
.LVL1186:
	.loc 1 309 26 view .LVU2481
.LBE593:
.LBE592:
	.loc 2 158 31 view .LVU2482
	addq	$16, %rsp
	jmp	.L720
.LVL1187:
.L727:
	.loc 2 123 16 view .LVU2483
	movl	$0, %r15d
.LVL1188:
.L717:
.LBB594:
.LBB595:
.LBB596:
.LBB597:
	.loc 1 90 39 is_stmt 1 discriminator 1 view .LVU2484
	movq	$.LC13+1, %r12
.LVL1189:
	.loc 1 90 35 is_stmt 0 discriminator 1 view .LVU2485
	movl	$73, %ebx
.LBB598:
	.loc 1 92 55 view .LVU2486
	movq	$_ZN6Kernel7Console8s_extentE, %r14
	movq	(%r14), %r13
.LVL1190:
	.loc 1 92 55 view .LVU2487
	jmp	.L726
.LVL1191:
.L728:
	.loc 1 97 35 view .LVU2488
	movq	$0, _ZN6Kernel7Console11s_cursorPosE(%rip)
	.loc 1 98 35 view .LVU2489
	movq	_ZN6Kernel7Console11s_cursorPosE+8(%rip), %rax
	.loc 1 98 21 view .LVU2490
	addq	$1, %rax
	movq	%rax, _ZN6Kernel7Console11s_cursorPosE+8(%rip)
	.loc 1 99 37 view .LVU2491
	movq	_ZN6Kernel7Console11s_cursorPosE+8(%rip), %rax
	.loc 1 99 21 view .LVU2492
	cmpq	8(%r14), %rax
	jnb	.L735
.L724:
.LBE598:
	.loc 1 90 13 is_stmt 1 discriminator 2 view .LVU2493
.LVL1192:
	.loc 1 90 39 discriminator 1 view .LVU2494
	addq	$1, %r12
.LVL1193:
	.loc 1 90 35 is_stmt 0 discriminator 1 view .LVU2495
	movzbl	-1(%r12), %ebx
	.loc 1 90 39 discriminator 1 view .LVU2496
	testb	%bl, %bl
	je	.L736
.LVL1194:
.L726:
.LBB599:
	.loc 1 92 42 view .LVU2497
	movq	_ZN6Kernel7Console11s_cursorPosE+8(%rip), %rdi
	.loc 1 92 75 view .LVU2498
	movq	_ZN6Kernel7Console11s_cursorPosE(%rip), %rax
.LVL1195:
	.loc 1 93 26 view .LVU2499
	movzbl	%bl, %esi
	.loc 1 92 44 view .LVU2500
	imulq	%r13, %rdi
.LVL1196:
	.loc 1 92 24 view .LVU2501
	addq	%rax, %rdi
.LVL1197:
	.loc 1 93 26 view .LVU2502
	movl	$15, %edx
	call	_ZN6Kernel7Console9writeCharEmhNS0_10AttributesE
.LVL1198:
	.loc 1 94 31 view .LVU2503
	movq	_ZN6Kernel7Console11s_cursorPosE(%rip), %rax
	.loc 1 94 17 view .LVU2504
	addq	$1, %rax
	movq	%rax, _ZN6Kernel7Console11s_cursorPosE(%rip)
	.loc 1 95 33 view .LVU2505
	movq	_ZN6Kernel7Console11s_cursorPosE(%rip), %rax
	.loc 1 95 53 discriminator 2 view .LVU2506
	cmpq	%r13, %rax
	jnb	.L728
	cmpb	$10, %bl
	je	.L728
	jmp	.L724
.L735:
	.loc 1 100 35 view .LVU2507
	movl	$1, %edi
	call	_ZN6Kernel7Console10scrollDownEm
.LVL1199:
	jmp	.L724
.LVL1200:
.L736:
	.loc 1 100 35 view .LVU2508
.LBE599:
.LBE597:
	.loc 1 103 33 view .LVU2509
	call	_ZN6Kernel7Console20updateHardwareCursorEv
.LVL1201:
	.loc 1 103 33 view .LVU2510
.LBE596:
.LBE595:
.LBE594:
	.loc 2 168 9 is_stmt 1 view .LVU2511
	.loc 2 168 84 is_stmt 0 view .LVU2512
	movq	_ZN6Kernel9MemoryMap24s_availibleRegionEntriesE(%rip), %rax
	.loc 2 168 144 view .LVU2513
	movq	_ZN6Kernel9MemoryMap22s_availibleRegionCountE(%rip), %rdx
	leaq	7(%rax,%rdx,8), %rbx
	.loc 2 168 18 view .LVU2514
	andq	$-8, %rbx
.LVL1202:
	.loc 2 169 9 is_stmt 1 view .LVU2515
	.loc 2 169 70 is_stmt 0 view .LVU2516
	movq	(%rax,%r15,8), %rax
	.loc 2 169 18 view .LVU2517
	movq	(%rax), %r12
	addq	8(%rax), %r12
.LVL1203:
	.loc 2 171 9 is_stmt 1 view .LVU2518
	.loc 2 171 9 is_stmt 0 view .LVU2519
	movq	%rbx, -64(%rbp)
.LVL1204:
.LBB600:
.LBI600:
	.loc 1 301 21 is_stmt 1 view .LVU2520
.LBB601:
	.loc 1 309 26 is_stmt 0 view .LVU2521
	leaq	-64(%rbp), %rdx
	movl	$15, %esi
	movq	$.LC14, %rdi
	call	_ZN6Kernel7Console9printImplIRyJEEEvPKcNS0_10AttributesEOT_DpOT0_
.LVL1205:
	.loc 1 309 26 view .LVU2522
.LBE601:
.LBE600:
	.loc 2 172 9 is_stmt 1 view .LVU2523
	.loc 2 172 9 is_stmt 0 view .LVU2524
	movq	%r12, -64(%rbp)
.LVL1206:
.LBB602:
.LBI602:
	.loc 1 301 21 is_stmt 1 view .LVU2525
.LBB603:
	.loc 1 309 26 is_stmt 0 view .LVU2526
	leaq	-64(%rbp), %rdx
	movl	$15, %esi
	movq	$.LC15, %rdi
	call	_ZN6Kernel7Console9printImplIRyJEEEvPKcNS0_10AttributesEOT_DpOT0_
.LVL1207:
	.loc 1 309 26 view .LVU2527
.LBE603:
.LBE602:
	.loc 2 173 9 is_stmt 1 view .LVU2528
	.loc 2 173 24 is_stmt 0 view .LVU2529
	movq	%r12, %rdx
	movq	%rbx, %rsi
	movq	-104(%rbp), %rdi
	call	_ZNV6Kernel14HeapLinkedList10initializeEPvS1_
.LVL1208:
	.loc 2 175 5 view .LVU2530
	leaq	-40(%rbp), %rsp
	popq	%rbx
	.cfi_restore 3
.LVL1209:
	.loc 2 175 5 view .LVU2531
	popq	%r12
	.cfi_restore 12
.LVL1210:
	.loc 2 175 5 view .LVU2532
	popq	%r13
	.cfi_restore 13
	popq	%r14
	.cfi_restore 14
	popq	%r15
	.cfi_restore 15
	popq	%rbp
	.cfi_restore 6
	.cfi_def_cfa 7, 8
.LVL1211:
	.loc 2 175 5 view .LVU2533
	ret
	.cfi_endproc
.LFE38:
	.size	_ZN6Kernel9MemoryMap17parseMemoryMapTagERNS_14HeapLinkedListE, .-_ZN6Kernel9MemoryMap17parseMemoryMapTagERNS_14HeapLinkedListE
	.section	.rodata.str1.1
.LC16:
	.string	"Memory Map : Initialising\n"
.LC17:
	.string	"Kernel memory region:\n"
.LC18:
	.string	"  Start: %x\n"
.LC19:
	.string	"  End:   %x\n"
.LC20:
	.string	"  Size:  %d B\n"
.LC21:
	.string	"Multiboot info address: %x\n"
.LC22:
	.string	"Multiboot header end: %p\n"
.LC23:
	.string	"Memory Map : Tag %d (%s)\n"
	.section	.rodata.str1.8
	.align 8
.LC24:
	.string	"Memory Map : No memory map tag found\n"
	.text
	.align 2
	.globl	_ZN6Kernel9MemoryMap10initialiseEyRNS_14HeapLinkedListE
	.type	_ZN6Kernel9MemoryMap10initialiseEyRNS_14HeapLinkedListE, @function
_ZN6Kernel9MemoryMap10initialiseEyRNS_14HeapLinkedListE:
.LVL1212:
.LFB37:
	.loc 2 69 5 is_stmt 1 view -0
	.cfi_startproc
	.loc 2 69 5 is_stmt 0 view .LVU2535
	pushq	%rbp
	.cfi_def_cfa_offset 16
	.cfi_offset 6, -16
	movq	%rsp, %rbp
	.cfi_def_cfa_register 6
	pushq	%r15
	pushq	%r14
	pushq	%r13
	pushq	%r12
	pushq	%rbx
	subq	$40, %rsp
	.cfi_offset 15, -24
	.cfi_offset 14, -32
	.cfi_offset 13, -40
	.cfi_offset 12, -48
	.cfi_offset 3, -56
	movq	%rdi, %r14
	movq	%rsi, -72(%rbp)
	.loc 2 70 9 is_stmt 1 view .LVU2536
.LVL1213:
.LBB634:
.LBI634:
	.loc 1 301 21 view .LVU2537
.LBB635:
.LBI635:
	.loc 1 87 21 view .LVU2538
.LBB636:
.LBB637:
	.loc 1 90 39 discriminator 1 view .LVU2539
	movq	$.LC16+1, %r13
	.loc 1 90 35 is_stmt 0 discriminator 1 view .LVU2540
	movl	$77, %ebx
.LBB638:
	.loc 1 92 55 view .LVU2541
	movq	$_ZN6Kernel7Console8s_extentE, %r15
	movq	(%r15), %r12
	jmp	.L740
.LVL1214:
.L751:
	.loc 1 97 35 view .LVU2542
	movq	$0, _ZN6Kernel7Console11s_cursorPosE(%rip)
	.loc 1 98 35 view .LVU2543
	movq	_ZN6Kernel7Console11s_cursorPosE+8(%rip), %rax
	.loc 1 98 21 view .LVU2544
	addq	$1, %rax
	movq	%rax, _ZN6Kernel7Console11s_cursorPosE+8(%rip)
	.loc 1 99 37 view .LVU2545
	movq	_ZN6Kernel7Console11s_cursorPosE+8(%rip), %rax
	.loc 1 99 21 view .LVU2546
	cmpq	8(%r15), %rax
	jnb	.L759
.L738:
.LBE638:
	.loc 1 90 13 is_stmt 1 discriminator 2 view .LVU2547
.LVL1215:
	.loc 1 90 39 discriminator 1 view .LVU2548
	addq	$1, %r13
.LVL1216:
	.loc 1 90 35 is_stmt 0 discriminator 1 view .LVU2549
	movzbl	-1(%r13), %ebx
	.loc 1 90 39 discriminator 1 view .LVU2550
	testb	%bl, %bl
	je	.L760
.LVL1217:
.L740:
.LBB639:
	.loc 1 92 42 view .LVU2551
	movq	_ZN6Kernel7Console11s_cursorPosE+8(%rip), %rdi
	.loc 1 92 75 view .LVU2552
	movq	_ZN6Kernel7Console11s_cursorPosE(%rip), %rax
.LVL1218:
	.loc 1 93 26 view .LVU2553
	movzbl	%bl, %esi
	.loc 1 92 44 view .LVU2554
	imulq	%r12, %rdi
.LVL1219:
	.loc 1 92 24 view .LVU2555
	addq	%rax, %rdi
.LVL1220:
	.loc 1 93 26 view .LVU2556
	movl	$15, %edx
	call	_ZN6Kernel7Console9writeCharEmhNS0_10AttributesE
.LVL1221:
	.loc 1 94 31 view .LVU2557
	movq	_ZN6Kernel7Console11s_cursorPosE(%rip), %rax
	.loc 1 94 17 view .LVU2558
	addq	$1, %rax
	movq	%rax, _ZN6Kernel7Console11s_cursorPosE(%rip)
	.loc 1 95 33 view .LVU2559
	movq	_ZN6Kernel7Console11s_cursorPosE(%rip), %rax
	.loc 1 95 53 discriminator 2 view .LVU2560
	cmpb	$10, %bl
	je	.L751
	cmpq	%r12, %rax
	jnb	.L751
	jmp	.L738
.L759:
	.loc 1 100 35 view .LVU2561
	movl	$1, %edi
	call	_ZN6Kernel7Console10scrollDownEm
.LVL1222:
	jmp	.L738
.LVL1223:
.L760:
	.loc 1 100 35 view .LVU2562
.LBE639:
.LBE637:
	.loc 1 103 33 view .LVU2563
	call	_ZN6Kernel7Console20updateHardwareCursorEv
.LVL1224:
	.loc 1 103 33 view .LVU2564
.LBE636:
.LBE635:
.LBE634:
	.loc 2 72 9 is_stmt 1 view .LVU2565
.LBB640:
.LBI640:
	.loc 1 301 21 view .LVU2566
.LBB641:
.LBI641:
	.loc 1 87 21 view .LVU2567
.LBB642:
.LBB643:
	.loc 1 90 39 discriminator 1 view .LVU2568
	movq	$.LC17+1, %r13
	.loc 1 90 35 is_stmt 0 discriminator 1 view .LVU2569
	movl	$75, %ebx
.LBB644:
	.loc 1 99 51 view .LVU2570
	movq	$_ZN6Kernel7Console8s_extentE, %r15
	jmp	.L743
.LVL1225:
.L752:
	.loc 1 97 35 view .LVU2571
	movq	$0, _ZN6Kernel7Console11s_cursorPosE(%rip)
	.loc 1 98 35 view .LVU2572
	movq	_ZN6Kernel7Console11s_cursorPosE+8(%rip), %rax
	.loc 1 98 21 view .LVU2573
	addq	$1, %rax
	movq	%rax, _ZN6Kernel7Console11s_cursorPosE+8(%rip)
	.loc 1 99 37 view .LVU2574
	movq	_ZN6Kernel7Console11s_cursorPosE+8(%rip), %rax
	.loc 1 99 21 view .LVU2575
	cmpq	8(%r15), %rax
	jnb	.L761
.L741:
.LBE644:
	.loc 1 90 13 is_stmt 1 discriminator 2 view .LVU2576
.LVL1226:
	.loc 1 90 39 discriminator 1 view .LVU2577
	addq	$1, %r13
.LVL1227:
	.loc 1 90 35 is_stmt 0 discriminator 1 view .LVU2578
	movzbl	-1(%r13), %ebx
	.loc 1 90 39 discriminator 1 view .LVU2579
	testb	%bl, %bl
	je	.L762
.LVL1228:
.L743:
.LBB645:
	.loc 1 92 42 view .LVU2580
	movq	_ZN6Kernel7Console11s_cursorPosE+8(%rip), %rdi
	.loc 1 92 75 view .LVU2581
	movq	_ZN6Kernel7Console11s_cursorPosE(%rip), %rax
.LVL1229:
	.loc 1 93 26 view .LVU2582
	movzbl	%bl, %esi
	.loc 1 92 44 view .LVU2583
	imulq	%r12, %rdi
.LVL1230:
	.loc 1 92 24 view .LVU2584
	addq	%rax, %rdi
.LVL1231:
	.loc 1 93 26 view .LVU2585
	movl	$15, %edx
	call	_ZN6Kernel7Console9writeCharEmhNS0_10AttributesE
.LVL1232:
	.loc 1 94 31 view .LVU2586
	movq	_ZN6Kernel7Console11s_cursorPosE(%rip), %rax
	.loc 1 94 17 view .LVU2587
	addq	$1, %rax
	movq	%rax, _ZN6Kernel7Console11s_cursorPosE(%rip)
	.loc 1 95 33 view .LVU2588
	movq	_ZN6Kernel7Console11s_cursorPosE(%rip), %rax
	.loc 1 95 53 discriminator 2 view .LVU2589
	cmpq	%r12, %rax
	jnb	.L752
	cmpb	$10, %bl
	je	.L752
	jmp	.L741
.L761:
	.loc 1 100 35 view .LVU2590
	movl	$1, %edi
	call	_ZN6Kernel7Console10scrollDownEm
.LVL1233:
	jmp	.L741
.LVL1234:
.L762:
	.loc 1 100 35 view .LVU2591
.LBE645:
.LBE643:
	.loc 1 103 33 view .LVU2592
	call	_ZN6Kernel7Console20updateHardwareCursorEv
.LVL1235:
	.loc 1 103 33 view .LVU2593
.LBE642:
.LBE641:
.LBE640:
	.loc 2 73 9 is_stmt 1 view .LVU2594
	.loc 2 73 62 is_stmt 0 view .LVU2595
	movq	_ZN6Kernel9MemoryMap20s_kernelMemoryRegionE(%rip), %rbx
.LVL1236:
	.loc 2 73 62 view .LVU2596
	movq	%rbx, -56(%rbp)
.LVL1237:
.LBB646:
.LBI646:
	.loc 1 301 21 is_stmt 1 view .LVU2597
.LBB647:
	.loc 1 309 26 is_stmt 0 view .LVU2598
	leaq	-56(%rbp), %rdx
	movl	$15, %esi
	movq	$.LC18, %rdi
	call	_ZN6Kernel7Console9printImplIRyJEEEvPKcNS0_10AttributesEOT_DpOT0_
.LVL1238:
	.loc 1 309 26 view .LVU2599
.LBE647:
.LBE646:
	.loc 2 74 9 is_stmt 1 view .LVU2600
	.loc 2 74 62 is_stmt 0 view .LVU2601
	movq	_ZN6Kernel9MemoryMap20s_kernelMemoryRegionE+8(%rip), %r13
.LVL1239:
	.loc 2 74 62 view .LVU2602
	movq	%r13, -56(%rbp)
.LVL1240:
.LBB648:
.LBI648:
	.loc 1 301 21 is_stmt 1 view .LVU2603
.LBB649:
	.loc 1 309 26 is_stmt 0 view .LVU2604
	leaq	-56(%rbp), %rdx
	movl	$15, %esi
	movq	$.LC19, %rdi
	call	_ZN6Kernel7Console9printImplIRyJEEEvPKcNS0_10AttributesEOT_DpOT0_
.LVL1241:
	.loc 1 309 26 view .LVU2605
.LBE649:
.LBE648:
	.loc 2 75 9 is_stmt 1 view .LVU2606
	.loc 2 75 23 is_stmt 0 view .LVU2607
	movq	%r13, %rax
	subq	%rbx, %rax
	movq	%rax, -56(%rbp)
.LVL1242:
.LBB650:
.LBI650:
	.loc 1 301 21 is_stmt 1 view .LVU2608
.LBB651:
	.loc 1 309 26 is_stmt 0 view .LVU2609
	leaq	-56(%rbp), %rdx
	movl	$15, %esi
	movq	$.LC20, %rdi
	call	_ZN6Kernel7Console9printImplIRyJEEEvPKcNS0_10AttributesEOT_DpOT0_
.LVL1243:
	.loc 1 309 26 view .LVU2610
.LBE651:
.LBE650:
	.loc 2 77 9 is_stmt 1 view .LVU2611
	.loc 2 77 9 is_stmt 0 view .LVU2612
	movq	%r14, -56(%rbp)
.LVL1244:
.LBB652:
.LBI652:
	.loc 1 301 21 is_stmt 1 view .LVU2613
.LBB653:
	.loc 1 309 26 is_stmt 0 view .LVU2614
	leaq	-56(%rbp), %rdx
.LVL1245:
	.loc 1 309 26 view .LVU2615
	movl	$15, %esi
	movq	$.LC21, %rdi
	call	_ZN6Kernel7Console9printImplIRyJEEEvPKcNS0_10AttributesEOT_DpOT0_
.LVL1246:
	.loc 1 309 26 view .LVU2616
.LBE653:
.LBE652:
	.loc 2 78 9 is_stmt 1 view .LVU2617
	.loc 2 78 27 is_stmt 0 view .LVU2618
	movq	%r14, _ZN6Kernel9MemoryMap17s_multibootHeaderE(%rip)
	.loc 2 79 9 is_stmt 1 view .LVU2619
	.loc 2 79 80 is_stmt 0 view .LVU2620
	leaq	8(%r14), %rbx
.LVL1247:
	.loc 2 81 9 is_stmt 1 view .LVU2621
	.loc 2 81 116 is_stmt 0 view .LVU2622
	movl	(%r14), %eax
	.loc 2 81 95 view .LVU2623
	leaq	(%r14,%rax,8), %rax
	.loc 2 81 9 view .LVU2624
	cmpq	%r13, %rax
	cmovb	%r13, %rax
	movq	%rax, _ZN6Kernel9MemoryMap18s_kernelEndDynamicE(%rip)
	.loc 2 88 9 is_stmt 1 view .LVU2625
.LVL1248:
	.loc 2 88 93 is_stmt 0 view .LVU2626
	movl	(%r14), %eax
	.loc 2 88 23 view .LVU2627
	leaq	(%r14,%rax,8), %rax
	movq	%rax, -56(%rbp)
.LVL1249:
.LBB654:
.LBI654:
	.loc 1 301 21 is_stmt 1 view .LVU2628
.LBB655:
	.loc 1 309 26 is_stmt 0 view .LVU2629
	leaq	-56(%rbp), %rdx
	movl	$15, %esi
	movq	$.LC22, %rdi
	call	_ZN6Kernel7Console9printImplIRPNS_9MemoryMap15MultibootHeaderEJEEEvPKcNS0_10AttributesEOT_DpOT0_
.LVL1250:
	.loc 1 309 26 view .LVU2630
.LBE655:
.LBE654:
	.loc 2 90 9 is_stmt 1 view .LVU2631
	.loc 2 90 26 view .LVU2632
	.loc 2 90 21 is_stmt 0 view .LVU2633
	movl	8(%r14), %eax
	.loc 2 90 26 view .LVU2634
	testl	%eax, %eax
	je	.L744
.L746:
	.loc 2 92 13 is_stmt 1 view .LVU2635
	.loc 2 92 27 is_stmt 0 view .LVU2636
	movl	%eax, %edx
	movq	_ZN6Kernel9MemoryMap19s_multibootTagNamesE(,%rdx,8), %rdx
.LVL1251:
	.loc 2 92 27 view .LVU2637
	movl	%eax, -60(%rbp)
.LVL1252:
	.loc 2 92 27 view .LVU2638
	movq	%rdx, -56(%rbp)
.LVL1253:
.LBB656:
.LBI656:
	.loc 1 301 21 is_stmt 1 view .LVU2639
.LBB657:
	.loc 1 309 26 is_stmt 0 view .LVU2640
	leaq	-56(%rbp), %rcx
	leaq	-60(%rbp), %rdx
.LVL1254:
	.loc 1 309 26 view .LVU2641
	movl	$15, %esi
	movq	$.LC23, %rdi
	call	_ZN6Kernel7Console9printImplIRjJRPKcEEEvS4_NS0_10AttributesEOT_DpOT0_
.LVL1255:
	.loc 1 309 26 view .LVU2642
.LBE657:
.LBE656:
	.loc 2 96 13 is_stmt 1 view .LVU2643
	cmpl	$6, (%rbx)
	je	.L763
	.loc 2 103 13 view .LVU2644
	.loc 2 103 99 is_stmt 0 view .LVU2645
	movl	4(%rbx), %eax
	addl	$7, %eax
	.loc 2 103 104 view .LVU2646
	andl	$-8, %eax
	.loc 2 103 17 view .LVU2647
	addq	%rax, %rbx
.LVL1256:
	.loc 2 90 26 is_stmt 1 view .LVU2648
	.loc 2 90 21 is_stmt 0 view .LVU2649
	movl	(%rbx), %eax
	.loc 2 90 26 view .LVU2650
	testl	%eax, %eax
	jne	.L746
	jmp	.L744
.L763:
	.loc 2 98 17 is_stmt 1 view .LVU2651
	.loc 2 98 36 is_stmt 0 view .LVU2652
	movq	%rbx, _ZN6Kernel9MemoryMap18s_multibootMmapTagE(%rip)
	.loc 2 99 17 is_stmt 1 view .LVU2653
	.loc 2 99 34 is_stmt 0 view .LVU2654
	movq	-72(%rbp), %rdi
	call	_ZN6Kernel9MemoryMap17parseMemoryMapTagERNS_14HeapLinkedListE
.LVL1257:
	.loc 2 100 17 is_stmt 1 view .LVU2655
.L744:
	.loc 2 105 9 view .LVU2656
	cmpq	$0, _ZN6Kernel9MemoryMap18s_multibootMmapTagE(%rip)
	je	.L764
.LVL1258:
.L737:
	.loc 2 109 5 is_stmt 0 view .LVU2657
	addq	$40, %rsp
	popq	%rbx
	.cfi_remember_state
	.cfi_restore 3
	popq	%r12
	.cfi_restore 12
	popq	%r13
	.cfi_restore 13
	popq	%r14
	.cfi_restore 14
	popq	%r15
	.cfi_restore 15
	popq	%rbp
	.cfi_restore 6
	.cfi_def_cfa 7, 8
	ret
.LVL1259:
.L764:
	.cfi_restore_state
	.loc 2 109 5 view .LVU2658
	movq	$.LC24+1, %r13
.LBB658:
.LBB659:
.LBB660:
.LBB661:
	.loc 1 90 35 discriminator 1 view .LVU2659
	movl	$77, %ebx
.LVL1260:
.LBB662:
	.loc 1 99 51 view .LVU2660
	movq	$_ZN6Kernel7Console8s_extentE, %r14
.LVL1261:
	.loc 1 99 51 view .LVU2661
	jmp	.L750
.LVL1262:
.L753:
	.loc 1 97 35 view .LVU2662
	movq	$0, _ZN6Kernel7Console11s_cursorPosE(%rip)
	.loc 1 98 35 view .LVU2663
	movq	_ZN6Kernel7Console11s_cursorPosE+8(%rip), %rax
	.loc 1 98 21 view .LVU2664
	addq	$1, %rax
	movq	%rax, _ZN6Kernel7Console11s_cursorPosE+8(%rip)
	.loc 1 99 37 view .LVU2665
	movq	_ZN6Kernel7Console11s_cursorPosE+8(%rip), %rax
	.loc 1 99 21 view .LVU2666
	cmpq	8(%r14), %rax
	jnb	.L765
.L748:
.LBE662:
	.loc 1 90 13 is_stmt 1 discriminator 2 view .LVU2667
.LVL1263:
	.loc 1 90 39 discriminator 1 view .LVU2668
	addq	$1, %r13
.LVL1264:
	.loc 1 90 35 is_stmt 0 discriminator 1 view .LVU2669
	movzbl	-1(%r13), %ebx
	.loc 1 90 39 discriminator 1 view .LVU2670
	testb	%bl, %bl
	je	.L766
.LVL1265:
.L750:
.LBB663:
	.loc 1 92 42 view .LVU2671
	movq	_ZN6Kernel7Console11s_cursorPosE+8(%rip), %rdi
	.loc 1 92 75 view .LVU2672
	movq	_ZN6Kernel7Console11s_cursorPosE(%rip), %rax
.LVL1266:
	.loc 1 93 26 view .LVU2673
	movzbl	%bl, %esi
	.loc 1 92 44 view .LVU2674
	imulq	%r12, %rdi
.LVL1267:
	.loc 1 92 24 view .LVU2675
	addq	%rax, %rdi
.LVL1268:
	.loc 1 93 26 view .LVU2676
	movl	$15, %edx
	call	_ZN6Kernel7Console9writeCharEmhNS0_10AttributesE
.LVL1269:
	.loc 1 94 31 view .LVU2677
	movq	_ZN6Kernel7Console11s_cursorPosE(%rip), %rax
	.loc 1 94 17 view .LVU2678
	addq	$1, %rax
	movq	%rax, _ZN6Kernel7Console11s_cursorPosE(%rip)
	.loc 1 95 33 view .LVU2679
	movq	_ZN6Kernel7Console11s_cursorPosE(%rip), %rax
	.loc 1 95 53 discriminator 2 view .LVU2680
	cmpb	$10, %bl
	je	.L753
	cmpq	%r12, %rax
	jnb	.L753
	jmp	.L748
.L765:
	.loc 1 100 35 view .LVU2681
	movl	$1, %edi
	call	_ZN6Kernel7Console10scrollDownEm
.LVL1270:
	jmp	.L748
.LVL1271:
.L766:
	.loc 1 100 35 view .LVU2682
.LBE663:
.LBE661:
	.loc 1 103 33 view .LVU2683
	call	_ZN6Kernel7Console20updateHardwareCursorEv
.LVL1272:
	.loc 1 103 33 view .LVU2684
.LBE660:
.LBE659:
.LBE658:
	.loc 2 109 5 view .LVU2685
	jmp	.L737
	.cfi_endproc
.LFE37:
	.size	_ZN6Kernel9MemoryMap10initialiseEyRNS_14HeapLinkedListE, .-_ZN6Kernel9MemoryMap10initialiseEyRNS_14HeapLinkedListE
	.globl	_ZN6Kernel9MemoryMap22s_availibleRegionCountE
	.section	.bss
	.align 8
	.type	_ZN6Kernel9MemoryMap22s_availibleRegionCountE, @object
	.size	_ZN6Kernel9MemoryMap22s_availibleRegionCountE, 8
_ZN6Kernel9MemoryMap22s_availibleRegionCountE:
	.zero	8
	.globl	_ZN6Kernel9MemoryMap24s_availibleRegionEntriesE
	.align 8
	.type	_ZN6Kernel9MemoryMap24s_availibleRegionEntriesE, @object
	.size	_ZN6Kernel9MemoryMap24s_availibleRegionEntriesE, 8
_ZN6Kernel9MemoryMap24s_availibleRegionEntriesE:
	.zero	8
	.globl	_ZN6Kernel9MemoryMap18s_kernelEndDynamicE
	.align 8
	.type	_ZN6Kernel9MemoryMap18s_kernelEndDynamicE, @object
	.size	_ZN6Kernel9MemoryMap18s_kernelEndDynamicE, 8
_ZN6Kernel9MemoryMap18s_kernelEndDynamicE:
	.zero	8
	.globl	_ZN6Kernel9MemoryMap18s_multibootMmapTagE
	.align 8
	.type	_ZN6Kernel9MemoryMap18s_multibootMmapTagE, @object
	.size	_ZN6Kernel9MemoryMap18s_multibootMmapTagE, 8
_ZN6Kernel9MemoryMap18s_multibootMmapTagE:
	.zero	8
	.globl	_ZN6Kernel9MemoryMap17s_multibootHeaderE
	.align 8
	.type	_ZN6Kernel9MemoryMap17s_multibootHeaderE, @object
	.size	_ZN6Kernel9MemoryMap17s_multibootHeaderE, 8
_ZN6Kernel9MemoryMap17s_multibootHeaderE:
	.zero	8
	.globl	_ZN6Kernel9MemoryMap20s_kernelMemoryRegionE
	.section	.rodata
	.align 32
	.type	_ZN6Kernel9MemoryMap20s_kernelMemoryRegionE, @object
	.size	_ZN6Kernel9MemoryMap20s_kernelMemoryRegionE, 112
_ZN6Kernel9MemoryMap20s_kernelMemoryRegionE:
	.quad	__kernel_start
	.quad	__kernel_end
	.quad	__multiboot_header_start
	.quad	__multiboot_header_end
	.quad	__text_start
	.quad	__text_end
	.quad	__data_start
	.quad	__data_end
	.quad	__rodata_start
	.quad	__rodata_end
	.quad	__bss_start
	.quad	__bss_end
	.quad	stack_top
	.quad	stack_bottom
	.globl	_ZN6Kernel9MemoryMap26s_multibootMemoryTypeNamesE
	.section	.rodata.str1.1
.LC25:
	.string	"Unknown"
.LC26:
	.string	"Available"
.LC27:
	.string	"Reserved"
.LC28:
	.string	"ACPI Reclaim"
.LC29:
	.string	"ACPI NVS"
.LC30:
	.string	"Bad RAM"
	.data
	.align 32
	.type	_ZN6Kernel9MemoryMap26s_multibootMemoryTypeNamesE, @object
	.size	_ZN6Kernel9MemoryMap26s_multibootMemoryTypeNamesE, 48
_ZN6Kernel9MemoryMap26s_multibootMemoryTypeNamesE:
	.quad	.LC25
	.quad	.LC26
	.quad	.LC27
	.quad	.LC28
	.quad	.LC29
	.quad	.LC30
	.globl	_ZN6Kernel9MemoryMap19s_multibootTagNamesE
	.section	.rodata.str1.1
.LC31:
	.string	"End"
.LC32:
	.string	"Cmdline"
.LC33:
	.string	"Bootloader name"
.LC34:
	.string	"Module"
.LC35:
	.string	"Basic memory info"
.LC36:
	.string	"Boot device"
.LC37:
	.string	"Memory map"
.LC38:
	.string	"VBE info"
.LC39:
	.string	"Framebuffer info"
.LC40:
	.string	"EFI memory map"
.LC41:
	.string	"EFI boot services"
.LC42:
	.string	"EFI ACPI table"
.LC43:
	.string	"EFI memory map v2"
.LC44:
	.string	"SMBIOS tables"
.LC45:
	.string	"OEM strings"
.LC46:
	.string	"ACPI old RSDP"
.LC47:
	.string	"ACPI new RSDP"
.LC48:
	.string	"NVRAM"
.LC49:
	.string	"EFI memory map v3"
.LC50:
	.string	"EFI memory map v4"
.LC51:
	.string	"Load base address"
	.data
	.align 32
	.type	_ZN6Kernel9MemoryMap19s_multibootTagNamesE, @object
	.size	_ZN6Kernel9MemoryMap19s_multibootTagNamesE, 168
_ZN6Kernel9MemoryMap19s_multibootTagNamesE:
	.quad	.LC31
	.quad	.LC32
	.quad	.LC33
	.quad	.LC34
	.quad	.LC35
	.quad	.LC36
	.quad	.LC37
	.quad	.LC38
	.quad	.LC39
	.quad	.LC40
	.quad	.LC41
	.quad	.LC42
	.quad	.LC43
	.quad	.LC44
	.quad	.LC45
	.quad	.LC46
	.quad	.LC47
	.quad	.LC48
	.quad	.LC49
	.quad	.LC50
	.quad	.LC51
	.text
.Letext0:
	.file 3 "src/kernel/../../include/Types.h"
	.file 4 "src/kernel/../../include/Heap.h"
	.file 5 "src/kernel/../../include/MemoryMap.h"
	.file 6 "src/kernel/../../include/Utils.h"